

Microchip MPLAB XC8 Assembler V2.36 build 20220127204148 
                                                                                               Mon Jun 06 22:24:22 2022

Microchip MPLAB XC8 C Compiler v2.36 (Free license) build 20220127204148 Og1 
     1                           	processor	18F4520
     2                           	fnconf	rparam,??,?,0
     3                           	pagewidth 120
     4                           	opt	flic
     5                           	psect	smallconst,global,reloc=2,class=SMALLCONST,delta=1,noexec
     6                           	psect	cinit,global,reloc=2,class=CODE,delta=1
     7                           	psect	bssCOMRAM,global,class=COMRAM,space=1,delta=1,lowdata,noexec
     8                           	psect	bssBANK0,global,class=BANK0,space=1,delta=1,lowdata,noexec
     9                           	psect	bssBANK1,global,class=BANK1,space=1,delta=1,lowdata,noexec
    10                           	psect	cstackBANK1,global,class=BANK1,space=1,delta=1,lowdata,noexec
    11                           	psect	cstackBANK0,global,class=BANK0,space=1,delta=1,lowdata,noexec
    12                           	psect	cstackCOMRAM,global,class=COMRAM,space=1,delta=1,lowdata,noexec
    13                           	psect	text0,global,reloc=2,class=CODE,delta=1
    14                           	psect	text1,global,reloc=2,class=CODE,delta=1
    15                           	psect	text2,global,reloc=2,class=CODE,delta=1
    16                           	psect	text3,global,reloc=2,class=CODE,delta=1,group=2
    17                           	psect	text4,global,reloc=2,class=CODE,delta=1
    18                           	psect	text5,global,reloc=2,class=CODE,delta=1
    19                           	psect	text6,global,reloc=2,class=CODE,delta=1
    20                           	psect	text7,global,reloc=2,class=CODE,delta=1
    21                           	psect	text8,global,reloc=2,class=CODE,delta=1
    22                           	psect	text9,global,reloc=2,class=CODE,delta=1
    23                           	psect	text10,global,reloc=2,class=CODE,delta=1
    24                           	psect	text11,global,reloc=2,class=CODE,delta=1
    25                           	psect	text12,global,reloc=2,class=CODE,delta=1,group=3
    26                           	psect	text13,global,reloc=2,class=CODE,delta=1,group=1
    27                           	psect	text14,global,reloc=2,class=CODE,delta=1,group=1
    28                           	psect	text15,global,reloc=2,class=CODE,delta=1,group=3
    29                           	psect	text16,global,reloc=2,class=CODE,delta=1,group=1
    30                           	psect	text17,global,reloc=2,class=CODE,delta=1,group=3
    31                           	psect	text18,global,reloc=2,class=CODE,delta=1,group=3
    32                           	psect	text19,global,reloc=2,class=CODE,delta=1,group=3
    33                           	psect	text20,global,reloc=2,class=CODE,delta=1,group=1
    34                           	psect	text21,global,reloc=2,class=CODE,delta=1,group=3
    35                           	psect	text22,global,reloc=2,class=CODE,delta=1,group=3
    36                           	psect	text23,global,reloc=2,class=CODE,delta=1,group=3
    37                           	psect	text24,global,reloc=2,class=CODE,delta=1,group=3
    38                           	psect	text25,global,reloc=2,class=CODE,delta=1,group=3
    39                           	psect	text26,global,reloc=2,class=CODE,delta=1,group=3
    40                           	psect	text27,global,reloc=2,class=CODE,delta=1,group=2
    41                           	psect	text28,global,reloc=2,class=CODE,delta=1,group=2
    42                           	psect	text29,global,reloc=2,class=CODE,delta=1,group=2
    43                           	psect	text30,global,reloc=2,class=CODE,delta=1,group=2
    44                           	psect	text31,global,reloc=2,class=CODE,delta=1,group=2
    45                           	psect	text32,global,reloc=2,class=CODE,delta=1,group=2
    46                           	psect	text33,global,reloc=2,class=CODE,delta=1,group=2
    47                           	psect	text34,global,reloc=2,class=CODE,delta=1,group=2
    48                           	psect	text35,global,reloc=2,class=CODE,delta=1,group=2
    49                           	psect	text36,global,reloc=2,class=CODE,delta=1,group=2
    50                           	psect	text37,global,reloc=2,class=CODE,delta=1,group=3
    51                           	psect	text38,global,reloc=2,class=CODE,delta=1,group=3
    52                           	psect	text39,global,reloc=2,class=CODE,delta=1,group=3
    53                           	psect	text40,global,reloc=2,class=CODE,delta=1,group=2
    54                           	psect	text41,global,reloc=2,class=CODE,delta=1
    55                           	psect	text42,global,reloc=2,class=CODE,delta=1
    56                           	psect	text43,global,reloc=2,class=CODE,delta=1
    57                           	psect	text44,global,reloc=2,class=CODE,delta=1
    58                           	psect	intcode,global,reloc=2,class=CODE,delta=1
    59                           	psect	intcode_body,global,reloc=2,class=CODE,delta=1
    60                           	psect	text46,global,reloc=2,class=CODE,delta=1
    61                           	psect	text47,global,reloc=2,class=CODE,delta=1
    62                           	psect	text48,global,reloc=2,class=CODE,delta=1
    63                           	psect	text49,global,reloc=2,class=CODE,delta=1
    64                           	psect	text50,global,reloc=2,class=CODE,delta=1
    65                           	psect	text51,global,reloc=2,class=CODE,delta=1
    66                           	psect	text52,global,reloc=2,class=CODE,delta=1
    67                           	psect	text53,global,reloc=2,class=CODE,delta=1
    68                           	psect	text54,global,reloc=2,class=CODE,delta=1
    69                           	psect	text55,global,reloc=2,class=CODE,delta=1
    70                           	psect	intsave_regs,global,class=BIGRAM,space=1,delta=1,noexec
    71                           	psect	rparam,global,class=COMRAM,space=1,delta=1,noexec
    72                           	psect	temp,global,ovrld,common,class=COMRAM,space=1,delta=1
    73                           	psect	idloc,global,abs,ovrld,class=IDLOC,space=5,delta=1,noexec
    74                           	psect	config,global,abs,ovrld,class=CONFIG,space=4,delta=1,noexec
    75  0000                     
    76                           ; Version 2.40
    77                           ; Generated 17/11/2021 GMT
    78                           ; 
    79                           ; Copyright © 2021, Microchip Technology Inc. and its subsidiaries ("Microchip")
    80                           ; All rights reserved.
    81                           ; 
    82                           ; This software is developed by Microchip Technology Inc. and its subsidiaries ("Microch
      +                          ip").
    83                           ; 
    84                           ; Redistribution and use in source and binary forms, with or without modification, are
    85                           ; permitted provided that the following conditions are met:
    86                           ; 
    87                           ;     1. Redistributions of source code must retain the above copyright notice, this lis
      +                          t of
    88                           ;        conditions and the following disclaimer.
    89                           ; 
    90                           ;     2. Redistributions in binary form must reproduce the above copyright notice, this 
      +                          list
    91                           ;        of conditions and the following disclaimer in the documentation and/or other
    92                           ;        materials provided with the distribution. Publication is not required when
    93                           ;        this file is used in an embedded application.
    94                           ; 
    95                           ;     3. Microchip's name may not be used to endorse or promote products derived from th
      +                          is
    96                           ;        software without specific prior written permission.
    97                           ; 
    98                           ; THIS SOFTWARE IS PROVIDED BY MICROCHIP "AS IS" AND ANY EXPRESS OR IMPLIED WARRANTIES,
    99                           ; INCLUDING, BUT NOT LIMITED TO, THE IMPLIED WARRANTIES OF MERCHANTABILITY AND FITNESS F
      +                          OR
   100                           ; PURPOSE ARE DISCLAIMED.  IN NO EVENT SHALL MICROCHIP BE LIABLE FOR ANY DIRECT, INDIREC
      +                          T,
   101                           ; INCIDENTAL, SPECIAL, EXEMPLARY, OR CONSEQUENTIAL DAMAGES (INCLUDING BUT NOT LIMITED TO
   102                           ; PROCUREMENT OF SUBSTITUTE GOODS OR SERVICES; LOSS OF USE, DATA OR PROFITS; OR BUSINESS
   103                           ; INTERRUPTION) HOWSOEVER CAUSED AND ON ANY THEORY OF LIABILITY, WHETHER IN CONTRACT, ST
      +                          RICT
   104                           ; LIABILITY, OR TORT (INCLUDING NEGLIGENCE OR OTHERWISE) ARISING IN ANY WAY OUT OF THE U
      +                          SE OF
   105                           ; THIS SOFTWARE, EVEN IF ADVISED OF THE POSSIBILITY OF SUCH DAMAGE.
   106                           ; 
   107                           ; 
   108                           ; Code-generator required, PIC18F4520 Definitions
   109                           ; 
   110                           ; SFR Addresses
   111  0000                     _ADRESL	set	4035
   112  0000                     _ADRESH	set	4036
   113  0000                     _PORTDbits	set	3971
   114  0000                     _INTCONbits	set	4082
   115  0000                     _ADCON0bits	set	4034
   116  0000                     _PORTCbits	set	3970
   117  0000                     _TRISB	set	3987
   118  0000                     _OSCTUNE	set	3995
   119  0000                     _OSCCON	set	4051
   120  0000                     _INTCON2	set	4081
   121  0000                     _INTCON	set	4082
   122  0000                     _ADCON2	set	4032
   123  0000                     _ADCON1	set	4033
   124  0000                     _ADCON0	set	4034
   125  0000                     _TRISEbits	set	3990
   126  0000                     _TRISD	set	3989
   127  0000                     _TRISC	set	3988
   128  0000                     _PORTEbits	set	3972
   129  0000                     _PORTD	set	3971
   130                           
   131                           	psect	smallconst
   132  000600                     __psmallconst:
   133                           	callstack 0
   134  000600  00                 	db	0
   135  000601                     STR_4:
   136  000601  20                 	db	32
   137  000602  20                 	db	32
   138  000603  4E                 	db	78	;'N'
   139  000604  49                 	db	73	;'I'
   140  000605  56                 	db	86	;'V'
   141  000606  45                 	db	69	;'E'
   142  000607  4C                 	db	76	;'L'
   143  000608  20                 	db	32
   144  000609  43                 	db	67	;'C'
   145  00060A  52                 	db	82	;'R'
   146  00060B  49                 	db	73	;'I'
   147  00060C  54                 	db	84	;'T'
   148  00060D  49                 	db	73	;'I'
   149  00060E  43                 	db	67	;'C'
   150  00060F  4F                 	db	79	;'O'
   151  000610  20                 	db	32
   152  000611  20                 	db	32
   153  000612  00                 	db	0
   154  000613                     STR_5:
   155  000613  20                 	db	32
   156  000614  20                 	db	32
   157  000615  20                 	db	32
   158  000616  20                 	db	32
   159  000617  20                 	db	32
   160  000618  20                 	db	32
   161  000619  20                 	db	32
   162  00061A  20                 	db	32
   163  00061B  20                 	db	32
   164  00061C  20                 	db	32
   165  00061D  20                 	db	32
   166  00061E  20                 	db	32
   167  00061F  20                 	db	32
   168  000620  20                 	db	32
   169  000621  20                 	db	32
   170  000622  00                 	db	0
   171  000623                     STR_3:
   172  000623  20                 	db	32
   173  000624  20                 	db	32
   174  000625  20                 	db	32
   175  000626  20                 	db	32
   176  000627  20                 	db	32
   177  000628  41                 	db	65	;'A'
   178  000629  4C                 	db	76	;'L'
   179  00062A  45                 	db	69	;'E'
   180  00062B  52                 	db	82	;'R'
   181  00062C  54                 	db	84	;'T'
   182  00062D  41                 	db	65	;'A'
   183  00062E  20                 	db	32
   184  00062F  20                 	db	32
   185  000630  20                 	db	32
   186  000631  20                 	db	32
   187  000632  00                 	db	0
   188  000633                     STR_2:
   189  000633  4E                 	db	78	;'N'
   190  000634  69                 	db	105	;'i'
   191  000635  76                 	db	118	;'v'
   192  000636  65                 	db	101	;'e'
   193  000637  6C                 	db	108	;'l'
   194  000638  3A                 	db	58	;':'
   195  000639  20                 	db	32
   196  00063A  25                 	db	37
   197  00063B  2E                 	db	46
   198  00063C  30                 	db	48	;'0'
   199  00063D  66                 	db	102	;'f'
   200  00063E  20                 	db	32
   201  00063F  4C                 	db	76	;'L'
   202  000640  20                 	db	32
   203  000641  20                 	db	32
   204  000642  00                 	db	0
   205  000643                     STR_1:
   206  000643  53                 	db	83	;'S'
   207  000644  65                 	db	101	;'e'
   208  000645  6E                 	db	110	;'n'
   209  000646  73                 	db	115	;'s'
   210  000647  6F                 	db	111	;'o'
   211  000648  72                 	db	114	;'r'
   212  000649  3A                 	db	58	;':'
   213  00064A  20                 	db	32
   214  00064B  25                 	db	37
   215  00064C  2E                 	db	46
   216  00064D  32                 	db	50	;'2'
   217  00064E  66                 	db	102	;'f'
   218  00064F  20                 	db	32
   219  000650  56                 	db	86	;'V'
   220  000651  20                 	db	32
   221  000652  00                 	db	0
   222  000653                     STR_7:
   223  000653  49                 	db	73	;'I'
   224  000654  4E                 	db	78	;'N'
   225  000655  46                 	db	70	;'F'
   226  000656  00                 	db	0
   227  000657                     STR_11:
   228  000657  4E                 	db	78	;'N'
   229  000658  41                 	db	65	;'A'
   230  000659  4E                 	db	78	;'N'
   231  00065A  00                 	db	0
   232  00065B                     STR_8:
   233  00065B  69                 	db	105	;'i'
   234  00065C  6E                 	db	110	;'n'
   235  00065D  66                 	db	102	;'f'
   236  00065E  00                 	db	0
   237  00065F                     STR_12:
   238  00065F  6E                 	db	110	;'n'
   239  000660  61                 	db	97	;'a'
   240  000661  6E                 	db	110	;'n'
   241  000662  00                 	db	0
   242  000663                     STR_15:
   243  000663  6C                 	db	108	;'l'
   244  000664  66                 	db	102	;'f'
   245  000665  00                 	db	0
   246  000666  00                 	db	0	; dummy byte at the end
   247  0000                     
   248                           ; #config settings
   249                           
   250                           	psect	cinit
   251  0048C4                     __pcinit:
   252                           	callstack 0
   253  0048C4                     start_initialization:
   254                           	callstack 0
   255  0048C4                     __initialization:
   256                           	callstack 0
   257                           
   258                           ; Clear objects allocated to BANK1 (144 bytes)
   259  0048C4  EE01  F000         	lfsr	0,__pbssBANK1
   260  0048C8  0E90               	movlw	144
   261  0048CA                     clear_0:
   262  0048CA  6AEE               	clrf	postinc0,c
   263  0048CC  06E8               	decf	wreg,f,c
   264  0048CE  E1FD               	bnz	clear_0
   265                           
   266                           ; Clear objects allocated to BANK0 (6 bytes)
   267  0048D0  0100               	movlb	0
   268  0048D2  6BFE               	clrf	(__pbssBANK0+5)& (0+255),b
   269  0048D4  6BFD               	clrf	(__pbssBANK0+4)& (0+255),b
   270  0048D6  6BFC               	clrf	(__pbssBANK0+3)& (0+255),b
   271  0048D8  6BFB               	clrf	(__pbssBANK0+2)& (0+255),b
   272  0048DA  6BFA               	clrf	(__pbssBANK0+1)& (0+255),b
   273  0048DC  6BF9               	clrf	__pbssBANK0& (0+255),b
   274                           
   275                           ; Clear objects allocated to COMRAM (22 bytes)
   276  0048DE  EE00  F038         	lfsr	0,__pbssCOMRAM
   277  0048E2  0E16               	movlw	22
   278  0048E4                     clear_1:
   279  0048E4  6AEE               	clrf	postinc0,c
   280  0048E6  06E8               	decf	wreg,f,c
   281  0048E8  E1FD               	bnz	clear_1
   282  0048EA                     end_of_initialization:
   283                           	callstack 0
   284  0048EA                     __end_of__initialization:
   285                           	callstack 0
   286  0048EA  904E               	bcf	int$flags,0,c	;clear compiler interrupt flag (level 1)
   287  0048EC  924E               	bcf	int$flags,1,c	;clear compiler interrupt flag (level 2)
   288  0048EE  0E00               	movlw	low (__Lmediumconst shr (0+16))
   289  0048F0  6EF8               	movwf	tblptru,c
   290  0048F2  0100               	movlb	0
   291  0048F4  EFAE  F024         	goto	_main	;jump to C main() function
   292                           
   293                           	psect	bssCOMRAM
   294  000038                     __pbssCOMRAM:
   295                           	callstack 0
   296  000038                     floorf@F526:
   297                           	callstack 0
   298  000038                     	ds	4
   299  00003C                     ___fpclassifyf@F465:
   300                           	callstack 0
   301  00003C                     	ds	4
   302  000040                     _Voltage_AN0:
   303                           	callstack 0
   304  000040                     	ds	4
   305  000044                     _nout:
   306                           	callstack 0
   307  000044                     	ds	2
   308  000046                     _width:
   309                           	callstack 0
   310  000046                     	ds	2
   311  000048                     _flags:
   312                           	callstack 0
   313  000048                     	ds	2
   314  00004A                     _Level_Loop:
   315                           	callstack 0
   316  00004A                     	ds	2
   317  00004C                     _VdigADC_AN0:
   318                           	callstack 0
   319  00004C                     	ds	2
   320                           
   321                           	psect	bssBANK0
   322  0000F9                     __pbssBANK0:
   323                           	callstack 0
   324  0000F9                     _Level_AN0:
   325                           	callstack 0
   326  0000F9                     	ds	4
   327  0000FD                     _prec:
   328                           	callstack 0
   329  0000FD                     	ds	2
   330                           
   331                           	psect	bssBANK1
   332  000100                     __pbssBANK1:
   333                           	callstack 0
   334  000100                     _dbuf:
   335                           	callstack 0
   336  000100                     	ds	80
   337  000150                     _BufferLevel:
   338                           	callstack 0
   339  000150                     	ds	32
   340  000170                     _BufferVoltage:
   341                           	callstack 0
   342  000170                     	ds	32
   343                           
   344                           	psect	cstackBANK1
   345  000190                     __pcstackBANK1:
   346                           	callstack 0
   347  000190                     vfpfcnvrt@f:
   348                           	callstack 0
   349                           
   350                           ; 4 bytes @ 0x0
   351  000190                     	ds	4
   352  000194                     vfpfcnvrt@ct:
   353                           	callstack 0
   354                           
   355                           ; 3 bytes @ 0x4
   356  000194                     	ds	3
   357  000197                     vfpfcnvrt@c:
   358                           	callstack 0
   359                           
   360                           ; 1 bytes @ 0x7
   361  000197                     	ds	1
   362  000198                     ?_vfprintf:
   363                           	callstack 0
   364  000198                     vfprintf@fp:
   365                           	callstack 0
   366                           
   367                           ; 2 bytes @ 0x8
   368  000198                     	ds	2
   369  00019A                     vfprintf@fmt:
   370                           	callstack 0
   371                           
   372                           ; 2 bytes @ 0xA
   373  00019A                     	ds	2
   374  00019C                     vfprintf@ap:
   375                           	callstack 0
   376                           
   377                           ; 2 bytes @ 0xC
   378  00019C                     	ds	2
   379  00019E                     ?_sprintf:
   380                           	callstack 0
   381  00019E                     sprintf@s:
   382                           	callstack 0
   383                           
   384                           ; 2 bytes @ 0xE
   385  00019E                     	ds	2
   386  0001A0                     sprintf@fmt:
   387                           	callstack 0
   388                           
   389                           ; 2 bytes @ 0x10
   390  0001A0                     	ds	6
   391  0001A6                     sprintf@ap:
   392                           	callstack 0
   393                           
   394                           ; 2 bytes @ 0x16
   395  0001A6                     	ds	2
   396  0001A8                     sprintf@f:
   397                           	callstack 0
   398                           
   399                           ; 11 bytes @ 0x18
   400  0001A8                     	ds	11
   401                           
   402                           	psect	cstackBANK0
   403  000080                     __pcstackBANK0:
   404                           	callstack 0
   405  000080                     ??_fputc:
   406  000080                     ??___fpclassifyf:
   407  000080                     ??_strncmp:
   408  000080                     ??___fltol:
   409  000080                     ??___xxtofl:
   410  000080                     ?_tolower:
   411                           	callstack 0
   412  000080                     ?___fladd:
   413                           	callstack 0
   414  000080                     ?___fldiv:
   415                           	callstack 0
   416  000080                     lcd_write@col:
   417                           	callstack 0
   418  000080                     ___awdiv@counter:
   419                           	callstack 0
   420  000080                     _isspace$1204:
   421                           	callstack 0
   422  000080                     strcpy@s:
   423                           	callstack 0
   424  000080                     tolower@c:
   425                           	callstack 0
   426  000080                     ___fleq@ff1:
   427                           	callstack 0
   428  000080                     ___fladd@b:
   429                           	callstack 0
   430  000080                     ___fldiv@b:
   431                           	callstack 0
   432                           
   433                           ; 4 bytes @ 0x0
   434  000080                     	ds	1
   435  000081                     ?_atoi:
   436                           	callstack 0
   437  000081                     ___awdiv@sign:
   438                           	callstack 0
   439  000081                     lcd_write@str:
   440                           	callstack 0
   441  000081                     atoi@s:
   442                           	callstack 0
   443  000081                     strncmp@l:
   444                           	callstack 0
   445                           
   446                           ; 2 bytes @ 0x1
   447  000081                     	ds	1
   448  000082                     ??_tolower:
   449  000082                     ___awdiv@quotient:
   450                           	callstack 0
   451  000082                     strcpy@d:
   452                           	callstack 0
   453                           
   454                           ; 2 bytes @ 0x2
   455  000082                     	ds	1
   456  000083                     ??_atoi:
   457  000083                     lcd_write@end:
   458                           	callstack 0
   459  000083                     strncmp@r:
   460                           	callstack 0
   461                           
   462                           ; 2 bytes @ 0x3
   463  000083                     	ds	1
   464  000084                     lcd_write@lin:
   465                           	callstack 0
   466  000084                     ___xxtofl@sign:
   467                           	callstack 0
   468  000084                     ___fpclassifyf@e:
   469                           	callstack 0
   470  000084                     ___fleq@ff2:
   471                           	callstack 0
   472  000084                     ___fladd@a:
   473                           	callstack 0
   474  000084                     ___fldiv@a:
   475                           	callstack 0
   476                           
   477                           ; 4 bytes @ 0x4
   478  000084                     	ds	1
   479  000085                     ___xxtofl@exp:
   480                           	callstack 0
   481  000085                     fputs@s:
   482                           	callstack 0
   483                           
   484                           ; 2 bytes @ 0x5
   485  000085                     	ds	1
   486  000086                     ___xxtofl@arg:
   487                           	callstack 0
   488  000086                     ___fpclassifyf@u:
   489                           	callstack 0
   490                           
   491                           ; 4 bytes @ 0x6
   492  000086                     	ds	1
   493  000087                     atoi@neg:
   494                           	callstack 0
   495  000087                     fputs@fp:
   496                           	callstack 0
   497                           
   498                           ; 2 bytes @ 0x7
   499  000087                     	ds	1
   500  000088                     ___fladd@signs:
   501                           	callstack 0
   502  000088                     ___fldiv@rem:
   503                           	callstack 0
   504                           
   505                           ; 4 bytes @ 0x8
   506  000088                     	ds	1
   507  000089                     ___fladd@aexp:
   508                           	callstack 0
   509  000089                     fputs@c:
   510                           	callstack 0
   511  000089                     atoi@n:
   512                           	callstack 0
   513                           
   514                           ; 2 bytes @ 0x9
   515  000089                     	ds	1
   516  00008A                     ?___flmul:
   517                           	callstack 0
   518  00008A                     ___fladd@bexp:
   519                           	callstack 0
   520  00008A                     fputs@i:
   521                           	callstack 0
   522  00008A                     ___flmul@b:
   523                           	callstack 0
   524                           
   525                           ; 4 bytes @ 0xA
   526  00008A                     	ds	1
   527  00008B                     ___fladd@grs:
   528                           	callstack 0
   529                           
   530                           ; 1 bytes @ 0xB
   531  00008B                     	ds	1
   532  00008C                     ?_pad:
   533                           	callstack 0
   534  00008C                     ___fldiv@sign:
   535                           	callstack 0
   536  00008C                     pad@fp:
   537                           	callstack 0
   538                           
   539                           ; 2 bytes @ 0xC
   540  00008C                     	ds	1
   541  00008D                     ___fldiv@new_exp:
   542                           	callstack 0
   543                           
   544                           ; 2 bytes @ 0xD
   545  00008D                     	ds	1
   546  00008E                     pad@buf:
   547                           	callstack 0
   548  00008E                     ___flmul@a:
   549                           	callstack 0
   550                           
   551                           ; 4 bytes @ 0xE
   552  00008E                     	ds	1
   553  00008F                     ___fldiv@grs:
   554                           	callstack 0
   555                           
   556                           ; 4 bytes @ 0xF
   557  00008F                     	ds	1
   558  000090                     pad@p:
   559                           	callstack 0
   560                           
   561                           ; 2 bytes @ 0x10
   562  000090                     	ds	2
   563  000092                     ??___flmul:
   564  000092                     pad@i:
   565                           	callstack 0
   566                           
   567                           ; 2 bytes @ 0x12
   568  000092                     	ds	1
   569  000093                     ___fldiv@bexp:
   570                           	callstack 0
   571                           
   572                           ; 1 bytes @ 0x13
   573  000093                     	ds	1
   574  000094                     ___fldiv@aexp:
   575                           	callstack 0
   576  000094                     pad@w:
   577                           	callstack 0
   578                           
   579                           ; 2 bytes @ 0x14
   580  000094                     	ds	1
   581  000095                     ?_floorf:
   582                           	callstack 0
   583  000095                     floorf@x:
   584                           	callstack 0
   585                           
   586                           ; 4 bytes @ 0x15
   587  000095                     	ds	1
   588  000096                     ___flmul@sign:
   589                           	callstack 0
   590                           
   591                           ; 1 bytes @ 0x16
   592  000096                     	ds	1
   593  000097                     ___flmul@aexp:
   594                           	callstack 0
   595                           
   596                           ; 1 bytes @ 0x17
   597  000097                     	ds	1
   598  000098                     ___flmul@grs:
   599                           	callstack 0
   600                           
   601                           ; 4 bytes @ 0x18
   602  000098                     	ds	1
   603  000099                     ??_floorf:
   604                           
   605                           ; 1 bytes @ 0x19
   606  000099                     	ds	3
   607  00009C                     ___flmul@bexp:
   608                           	callstack 0
   609                           
   610                           ; 1 bytes @ 0x1C
   611  00009C                     	ds	1
   612  00009D                     ___flmul@prod:
   613                           	callstack 0
   614                           
   615                           ; 4 bytes @ 0x1D
   616  00009D                     	ds	2
   617  00009F                     floorf@m:
   618                           	callstack 0
   619                           
   620                           ; 4 bytes @ 0x1F
   621  00009F                     	ds	2
   622  0000A1                     ___flmul@temp:
   623                           	callstack 0
   624                           
   625                           ; 2 bytes @ 0x21
   626  0000A1                     	ds	2
   627  0000A3                     ?___flsub:
   628                           	callstack 0
   629  0000A3                     floorf@e:
   630                           	callstack 0
   631  0000A3                     ___flge@ff1:
   632                           	callstack 0
   633  0000A3                     ___flsub@b:
   634                           	callstack 0
   635                           
   636                           ; 4 bytes @ 0x23
   637  0000A3                     	ds	2
   638  0000A5                     floorf@u:
   639                           	callstack 0
   640                           
   641                           ; 4 bytes @ 0x25
   642  0000A5                     	ds	2
   643  0000A7                     ___flge@ff2:
   644                           	callstack 0
   645  0000A7                     ___flsub@a:
   646                           	callstack 0
   647                           
   648                           ; 4 bytes @ 0x27
   649  0000A7                     	ds	4
   650  0000AB                     ??___flge:
   651                           
   652                           ; 1 bytes @ 0x2B
   653  0000AB                     	ds	4
   654  0000AF                     ?_efgtoa:
   655                           	callstack 0
   656  0000AF                     efgtoa@fp:
   657                           	callstack 0
   658                           
   659                           ; 2 bytes @ 0x2F
   660  0000AF                     	ds	2
   661  0000B1                     efgtoa@f:
   662                           	callstack 0
   663                           
   664                           ; 4 bytes @ 0x31
   665  0000B1                     	ds	4
   666  0000B5                     efgtoa@c:
   667                           	callstack 0
   668                           
   669                           ; 1 bytes @ 0x35
   670  0000B5                     	ds	1
   671  0000B6                     ??_efgtoa:
   672                           
   673                           ; 1 bytes @ 0x36
   674  0000B6                     	ds	5
   675  0000BB                     _efgtoa$1117:
   676                           	callstack 0
   677                           
   678                           ; 2 bytes @ 0x3B
   679  0000BB                     	ds	2
   680  0000BD                     _efgtoa$1125:
   681                           	callstack 0
   682                           
   683                           ; 2 bytes @ 0x3D
   684  0000BD                     	ds	2
   685  0000BF                     _efgtoa$1126:
   686                           	callstack 0
   687                           
   688                           ; 2 bytes @ 0x3F
   689  0000BF                     	ds	2
   690  0000C1                     efgtoa@t:
   691                           	callstack 0
   692                           
   693                           ; 2 bytes @ 0x41
   694  0000C1                     	ds	2
   695  0000C3                     efgtoa@pp:
   696                           	callstack 0
   697                           
   698                           ; 2 bytes @ 0x43
   699  0000C3                     	ds	2
   700  0000C5                     efgtoa@ne:
   701                           	callstack 0
   702                           
   703                           ; 2 bytes @ 0x45
   704  0000C5                     	ds	2
   705  0000C7                     efgtoa@m:
   706                           	callstack 0
   707                           
   708                           ; 2 bytes @ 0x47
   709  0000C7                     	ds	2
   710  0000C9                     efgtoa@ou:
   711                           	callstack 0
   712                           
   713                           ; 4 bytes @ 0x49
   714  0000C9                     	ds	4
   715  0000CD                     efgtoa@d:
   716                           	callstack 0
   717                           
   718                           ; 2 bytes @ 0x4D
   719  0000CD                     	ds	2
   720  0000CF                     efgtoa@sign:
   721                           	callstack 0
   722                           
   723                           ; 2 bytes @ 0x4F
   724  0000CF                     	ds	2
   725  0000D1                     efgtoa@p:
   726                           	callstack 0
   727                           
   728                           ; 2 bytes @ 0x51
   729  0000D1                     	ds	2
   730  0000D3                     efgtoa@w:
   731                           	callstack 0
   732                           
   733                           ; 2 bytes @ 0x53
   734  0000D3                     	ds	2
   735  0000D5                     efgtoa@nmode:
   736                           	callstack 0
   737                           
   738                           ; 1 bytes @ 0x55
   739  0000D5                     	ds	1
   740  0000D6                     efgtoa@mode:
   741                           	callstack 0
   742                           
   743                           ; 1 bytes @ 0x56
   744  0000D6                     	ds	1
   745  0000D7                     efgtoa@h:
   746                           	callstack 0
   747                           
   748                           ; 4 bytes @ 0x57
   749  0000D7                     	ds	4
   750  0000DB                     efgtoa@l:
   751                           	callstack 0
   752                           
   753                           ; 4 bytes @ 0x5B
   754  0000DB                     	ds	4
   755  0000DF                     efgtoa@i:
   756                           	callstack 0
   757                           
   758                           ; 2 bytes @ 0x5F
   759  0000DF                     	ds	2
   760  0000E1                     efgtoa@g:
   761                           	callstack 0
   762                           
   763                           ; 4 bytes @ 0x61
   764  0000E1                     	ds	4
   765  0000E5                     efgtoa@e:
   766                           	callstack 0
   767                           
   768                           ; 2 bytes @ 0x65
   769  0000E5                     	ds	2
   770  0000E7                     efgtoa@n:
   771                           	callstack 0
   772                           
   773                           ; 2 bytes @ 0x67
   774  0000E7                     	ds	2
   775  0000E9                     efgtoa@u:
   776                           	callstack 0
   777                           
   778                           ; 4 bytes @ 0x69
   779  0000E9                     	ds	4
   780  0000ED                     ?_vfpfcnvrt:
   781                           	callstack 0
   782  0000ED                     vfpfcnvrt@fp:
   783                           	callstack 0
   784                           
   785                           ; 2 bytes @ 0x6D
   786  0000ED                     	ds	2
   787  0000EF                     vfpfcnvrt@fmt:
   788                           	callstack 0
   789                           
   790                           ; 2 bytes @ 0x6F
   791  0000EF                     	ds	2
   792  0000F1                     vfpfcnvrt@ap:
   793                           	callstack 0
   794                           
   795                           ; 2 bytes @ 0x71
   796  0000F1                     	ds	2
   797  0000F3                     ??_vfpfcnvrt:
   798                           
   799                           ; 1 bytes @ 0x73
   800  0000F3                     	ds	4
   801  0000F7                     vfprintf@cfmt:
   802                           	callstack 0
   803                           
   804                           ; 2 bytes @ 0x77
   805  0000F7                     	ds	2
   806                           
   807                           	psect	cstackCOMRAM
   808  000001                     __pcstackCOMRAM:
   809                           	callstack 0
   810  000001                     ??i2_conv_AN0:
   811  000001                     ?i2___fldiv:
   812                           	callstack 0
   813  000001                     ?i2___xxtofl:
   814                           	callstack 0
   815  000001                     i2set_bit@comp:
   816                           	callstack 0
   817  000001                     i2___flge@ff1:
   818                           	callstack 0
   819  000001                     i2___fldiv@b:
   820                           	callstack 0
   821  000001                     i2___xxtofl@val:
   822                           	callstack 0
   823                           
   824                           ; 4 bytes @ 0x0
   825  000001                     	ds	1
   826  000002                     i2set_bit@cmd:
   827                           	callstack 0
   828                           
   829                           ; 1 bytes @ 0x1
   830  000002                     	ds	1
   831  000003                     ??i2_lcd_cmd:
   832                           
   833                           ; 1 bytes @ 0x2
   834  000003                     	ds	1
   835  000004                     i2lcd_cmd@cmd:
   836                           	callstack 0
   837                           
   838                           ; 1 bytes @ 0x3
   839  000004                     	ds	1
   840  000005                     ??i2___xxtofl:
   841  000005                     i2lcd_send_byte@data:
   842                           	callstack 0
   843  000005                     i2___flge@ff2:
   844                           	callstack 0
   845  000005                     i2___fldiv@a:
   846                           	callstack 0
   847                           
   848                           ; 4 bytes @ 0x4
   849  000005                     	ds	1
   850  000006                     i2lcd_send_byte@level:
   851                           	callstack 0
   852                           
   853                           ; 1 bytes @ 0x5
   854  000006                     	ds	1
   855  000007                     i2lcd_write@col:
   856                           	callstack 0
   857                           
   858                           ; 1 bytes @ 0x6
   859  000007                     	ds	1
   860  000008                     i2lcd_write@str:
   861                           	callstack 0
   862                           
   863                           ; 2 bytes @ 0x7
   864  000008                     	ds	1
   865  000009                     ??i2___flge:
   866  000009                     ??i2___fldiv:
   867  000009                     i2___xxtofl@sign:
   868                           	callstack 0
   869                           
   870                           ; 1 bytes @ 0x8
   871  000009                     	ds	1
   872  00000A                     i2lcd_write@end:
   873                           	callstack 0
   874  00000A                     i2___xxtofl@exp:
   875                           	callstack 0
   876                           
   877                           ; 1 bytes @ 0x9
   878  00000A                     	ds	1
   879  00000B                     i2lcd_write@lin:
   880                           	callstack 0
   881  00000B                     i2___xxtofl@arg:
   882                           	callstack 0
   883                           
   884                           ; 4 bytes @ 0xA
   885  00000B                     	ds	2
   886  00000D                     i2___fldiv@rem:
   887                           	callstack 0
   888                           
   889                           ; 4 bytes @ 0xC
   890  00000D                     	ds	2
   891  00000F                     ?i2___flmul:
   892                           	callstack 0
   893  00000F                     i2___flmul@b:
   894                           	callstack 0
   895                           
   896                           ; 4 bytes @ 0xE
   897  00000F                     	ds	2
   898  000011                     i2___fldiv@sign:
   899                           	callstack 0
   900                           
   901                           ; 1 bytes @ 0x10
   902  000011                     	ds	1
   903  000012                     i2___fldiv@new_exp:
   904                           	callstack 0
   905                           
   906                           ; 2 bytes @ 0x11
   907  000012                     	ds	1
   908  000013                     i2___flmul@a:
   909                           	callstack 0
   910                           
   911                           ; 4 bytes @ 0x12
   912  000013                     	ds	1
   913  000014                     i2___fldiv@grs:
   914                           	callstack 0
   915                           
   916                           ; 4 bytes @ 0x13
   917  000014                     	ds	3
   918  000017                     ??i2___flmul:
   919                           
   920                           ; 1 bytes @ 0x16
   921  000017                     	ds	1
   922  000018                     i2___fldiv@bexp:
   923                           	callstack 0
   924                           
   925                           ; 1 bytes @ 0x17
   926  000018                     	ds	1
   927  000019                     i2___fldiv@aexp:
   928                           	callstack 0
   929                           
   930                           ; 1 bytes @ 0x18
   931  000019                     	ds	2
   932  00001B                     i2___flmul@sign:
   933                           	callstack 0
   934                           
   935                           ; 1 bytes @ 0x1A
   936  00001B                     	ds	1
   937  00001C                     i2___flmul@grs:
   938                           	callstack 0
   939                           
   940                           ; 4 bytes @ 0x1B
   941  00001C                     	ds	4
   942  000020                     i2___flmul@aexp:
   943                           	callstack 0
   944                           
   945                           ; 1 bytes @ 0x1F
   946  000020                     	ds	1
   947  000021                     i2___flmul@bexp:
   948                           	callstack 0
   949                           
   950                           ; 1 bytes @ 0x20
   951  000021                     	ds	1
   952  000022                     i2___flmul@prod:
   953                           	callstack 0
   954                           
   955                           ; 4 bytes @ 0x21
   956  000022                     	ds	4
   957  000026                     i2___flmul@temp:
   958                           	callstack 0
   959                           
   960                           ; 2 bytes @ 0x25
   961  000026                     	ds	2
   962  000028                     ??_config_HighLevel:
   963  000028                     
   964                           ; 1 bytes @ 0x27
   965  000028                     	ds	10
   966  000032                     ??___fladd:
   967  000032                     ??___fldiv:
   968  000032                     ??_conv_AN0:
   969  000032                     ??___fleq:
   970  000032                     ?_strlen:
   971                           	callstack 0
   972  000032                     ?___fpclassifyf:
   973                           	callstack 0
   974  000032                     ?_isupper:
   975                           	callstack 0
   976  000032                     ?_isdigit:
   977                           	callstack 0
   978  000032                     ?_strncmp:
   979                           	callstack 0
   980  000032                     ?_isspace:
   981                           	callstack 0
   982  000032                     ?___wmul:
   983                           	callstack 0
   984  000032                     ?___awdiv:
   985                           	callstack 0
   986  000032                     ?___awmod:
   987                           	callstack 0
   988  000032                     ?___flneg:
   989                           	callstack 0
   990  000032                     ?___fltol:
   991                           	callstack 0
   992  000032                     ?___xxtofl:
   993                           	callstack 0
   994  000032                     set_bit@comp:
   995                           	callstack 0
   996  000032                     ___wmul@multiplier:
   997                           	callstack 0
   998  000032                     ___awdiv@dividend:
   999                           	callstack 0
  1000  000032                     ___awmod@dividend:
  1001                           	callstack 0
  1002  000032                     isdigit@c:
  1003                           	callstack 0
  1004  000032                     isspace@c:
  1005                           	callstack 0
  1006  000032                     isupper@c:
  1007                           	callstack 0
  1008  000032                     fputc@c:
  1009                           	callstack 0
  1010  000032                     strcpy@dest:
  1011                           	callstack 0
  1012  000032                     strlen@s:
  1013                           	callstack 0
  1014  000032                     strncmp@_l:
  1015                           	callstack 0
  1016  000032                     ___flneg@f1:
  1017                           	callstack 0
  1018  000032                     ___fltol@f1:
  1019                           	callstack 0
  1020  000032                     ___xxtofl@val:
  1021                           	callstack 0
  1022  000032                     ___fpclassifyf@x:
  1023                           	callstack 0
  1024                           
  1025                           ; 4 bytes @ 0x31
  1026  000032                     	ds	1
  1027  000033                     set_bit@cmd:
  1028                           	callstack 0
  1029                           
  1030                           ; 1 bytes @ 0x32
  1031  000033                     	ds	1
  1032  000034                     ??_lcd_cmd:
  1033  000034                     ??_isupper:
  1034  000034                     ??_isdigit:
  1035  000034                     ??_isspace:
  1036  000034                     ___wmul@multiplicand:
  1037                           	callstack 0
  1038  000034                     ___awdiv@divisor:
  1039                           	callstack 0
  1040  000034                     ___awmod@divisor:
  1041                           	callstack 0
  1042  000034                     fputc@fp:
  1043                           	callstack 0
  1044  000034                     strcpy@src:
  1045                           	callstack 0
  1046  000034                     strlen@a:
  1047                           	callstack 0
  1048  000034                     strncmp@_r:
  1049                           	callstack 0
  1050                           
  1051                           ; 2 bytes @ 0x33
  1052  000034                     	ds	1
  1053  000035                     lcd_cmd@cmd:
  1054                           	callstack 0
  1055                           
  1056                           ; 1 bytes @ 0x34
  1057  000035                     	ds	1
  1058  000036                     ??_lcd_init:
  1059  000036                     ??_strcpy:
  1060  000036                     ??_pad:
  1061  000036                     lcd_send_byte@data:
  1062                           	callstack 0
  1063  000036                     ___awmod@counter:
  1064                           	callstack 0
  1065  000036                     ___fltol@sign1:
  1066                           	callstack 0
  1067  000036                     ___wmul@product:
  1068                           	callstack 0
  1069  000036                     strncmp@n:
  1070                           	callstack 0
  1071                           
  1072                           ; 2 bytes @ 0x35
  1073  000036                     	ds	1
  1074  000037                     lcd_init@i:
  1075                           	callstack 0
  1076  000037                     lcd_send_byte@level:
  1077                           	callstack 0
  1078  000037                     ___awmod@sign:
  1079                           	callstack 0
  1080  000037                     ___fltol@exp1:
  1081                           	callstack 0
  1082                           
  1083                           ; 1 bytes @ 0x36
  1084  000037                     	ds	1
  1085  000038                     
  1086                           ; 1 bytes @ 0x37
  1087 ;;
  1088 ;;Main: autosize = 0, tempsize = 0, incstack = 0, save=0
  1089 ;;
  1090 ;; *************** function _main *****************
  1091 ;; Defined at:
  1092 ;;		line 277 in file "Program_Interrupt_Level.c"
  1093 ;; Parameters:    Size  Location     Type
  1094 ;;		None
  1095 ;; Auto vars:     Size  Location     Type
  1096 ;;		None
  1097 ;; Return value:  Size  Location     Type
  1098 ;;                  1    wreg      void 
  1099 ;; Registers used:
  1100 ;;		wreg, fsr1l, fsr1h, fsr2l, fsr2h, status,2, status,0, tblptrl, tblptrh, tblptru, prodl, prodh, cstack
  1101 ;; Tracked objects:
  1102 ;;		On entry : 0/0
  1103 ;;		On exit  : 0/0
  1104 ;;		Unchanged: 0/0
  1105 ;; Data sizes:     COMRAM   BANK0   BANK1   BANK2   BANK3   BANK4   BANK5
  1106 ;;      Params:         0       0       0       0       0       0       0
  1107 ;;      Locals:         0       0       0       0       0       0       0
  1108 ;;      Temps:          0       0       0       0       0       0       0
  1109 ;;      Totals:         0       0       0       0       0       0       0
  1110 ;;Total ram usage:        0 bytes
  1111 ;; Hardware stack levels required when called: 14
  1112 ;; This function calls:
  1113 ;;		_Lcd_Print
  1114 ;;		_config_ADC
  1115 ;;		_config_FOSC
  1116 ;;		_config_IO
  1117 ;;		_config_Interrupt
  1118 ;;		_control_HIGH
  1119 ;;		_control_LOW
  1120 ;;		_conv_AN0
  1121 ;;		_equation_SENSOR
  1122 ;;		_lcd_init
  1123 ;; This function is called by:
  1124 ;;		Startup code after reset
  1125 ;; This function uses a non-reentrant model
  1126 ;;
  1127                           
  1128                           	psect	text0
  1129  00495C                     __ptext0:
  1130                           	callstack 0
  1131  00495C                     _main:
  1132                           	callstack 17
  1133  00495C                     
  1134                           ;Program_Interrupt_Level.c: 279:     config_FOSC();
  1135  00495C  EC28  F025         	call	_config_FOSC	;wreg free
  1136                           
  1137                           ;Program_Interrupt_Level.c: 280:     config_IO();
  1138  004960  EC23  F025         	call	_config_IO	;wreg free
  1139                           
  1140                           ;Program_Interrupt_Level.c: 281:     config_ADC();
  1141  004964  EC17  F025         	call	_config_ADC	;wreg free
  1142                           
  1143                           ;Program_Interrupt_Level.c: 282:     config_Interrupt();
  1144  004968  EC1E  F025         	call	_config_Interrupt	;wreg free
  1145  00496C                     
  1146                           ;Program_Interrupt_Level.c: 283:     lcd_init();
  1147  00496C  ECCC  F021         	call	_lcd_init	;wreg free
  1148  004970                     l6572:
  1149                           
  1150                           ;Program_Interrupt_Level.c: 285:     {;Program_Interrupt_Level.c: 286:         conv_AN0(
      +                          );
  1151  004970  EC7C  F024         	call	_conv_AN0	;wreg free
  1152  004974                     
  1153                           ;Program_Interrupt_Level.c: 287:         equation_SENSOR();
  1154  004974  EC1B  F022         	call	_equation_SENSOR	;wreg free
  1155  004978                     
  1156                           ;Program_Interrupt_Level.c: 288:         Lcd_Print();
  1157  004978  EC99  F022         	call	_Lcd_Print	;wreg free
  1158  00497C                     
  1159                           ;Program_Interrupt_Level.c: 289:         control_HIGH();
  1160  00497C  EC89  F015         	call	_control_HIGH	;wreg free
  1161  004980                     
  1162                           ;Program_Interrupt_Level.c: 290:         control_LOW();
  1163  004980  ECD0  F016         	call	_control_LOW	;wreg free
  1164  004984  EFB8  F024         	goto	l6572
  1165  004988  EF07  F000         	goto	start
  1166  00498C                     __end_of_main:
  1167                           	callstack 0
  1168                           
  1169 ;; *************** function _lcd_init *****************
  1170 ;; Defined at:
  1171 ;;		line 3 in file "LCD4b_EXSTO.c"
  1172 ;; Parameters:    Size  Location     Type
  1173 ;;		None
  1174 ;; Auto vars:     Size  Location     Type
  1175 ;;  i               1   54[COMRAM] unsigned char 
  1176 ;; Return value:  Size  Location     Type
  1177 ;;                  1    wreg      void 
  1178 ;; Registers used:
  1179 ;;		wreg, status,2, status,0, cstack
  1180 ;; Tracked objects:
  1181 ;;		On entry : 0/0
  1182 ;;		On exit  : 0/0
  1183 ;;		Unchanged: 0/0
  1184 ;; Data sizes:     COMRAM   BANK0   BANK1   BANK2   BANK3   BANK4   BANK5
  1185 ;;      Params:         0       0       0       0       0       0       0
  1186 ;;      Locals:         1       0       0       0       0       0       0
  1187 ;;      Temps:          1       0       0       0       0       0       0
  1188 ;;      Totals:         2       0       0       0       0       0       0
  1189 ;;Total ram usage:        2 bytes
  1190 ;; Hardware stack levels used: 1
  1191 ;; Hardware stack levels required when called: 7
  1192 ;; This function calls:
  1193 ;;		_lcd_cmd
  1194 ;; This function is called by:
  1195 ;;		_main
  1196 ;; This function uses a non-reentrant model
  1197 ;;
  1198                           
  1199                           	psect	text1
  1200  004398                     __ptext1:
  1201                           	callstack 0
  1202  004398                     _lcd_init:
  1203                           	callstack 23
  1204  004398                     
  1205                           ;LCD4b_EXSTO.c: 5:     char i;;LCD4b_EXSTO.c: 7:     TRISD = 0b00000000;
  1206  004398  0E00               	movlw	0
  1207  00439A  6E95               	movwf	149,c	;volatile
  1208  00439C                     
  1209                           ;LCD4b_EXSTO.c: 8:     TRISEbits.TRISE2 = 0;
  1210  00439C  9496               	bcf	150,2,c	;volatile
  1211  00439E                     
  1212                           ;LCD4b_EXSTO.c: 9:     TRISEbits.TRISE1 = 0;
  1213  00439E  9296               	bcf	150,1,c	;volatile
  1214  0043A0                     
  1215                           ;LCD4b_EXSTO.c: 10:     TRISEbits.TRISE0 = 0;
  1216  0043A0  9096               	bcf	150,0,c	;volatile
  1217                           
  1218                           ;LCD4b_EXSTO.c: 11:     PORTD = 0b00000000;
  1219  0043A2  0E00               	movlw	0
  1220  0043A4  6E83               	movwf	131,c	;volatile
  1221  0043A6                     
  1222                           ;LCD4b_EXSTO.c: 12:     PORTEbits.RE0 = 0;
  1223  0043A6  9084               	bcf	132,0,c	;volatile
  1224  0043A8                     
  1225                           ;LCD4b_EXSTO.c: 13:     PORTEbits.RE1 = 0;
  1226  0043A8  9284               	bcf	132,1,c	;volatile
  1227  0043AA                     
  1228                           ;LCD4b_EXSTO.c: 14:     PORTEbits.RE2 = 0;
  1229  0043AA  9484               	bcf	132,2,c	;volatile
  1230  0043AC                     
  1231                           ;LCD4b_EXSTO.c: 16:     _delay((unsigned long)((15)*(8000000/4000.0)));
  1232  0043AC  0E27               	movlw	39
  1233  0043AE  6E36               	movwf	??_lcd_init^0,c
  1234  0043B0  0EF5               	movlw	245
  1235  0043B2                     u8957:
  1236  0043B2  2EE8               	decfsz	wreg,f,c
  1237  0043B4  D7FE               	bra	u8957
  1238  0043B6  2E36               	decfsz	??_lcd_init^0,f,c
  1239  0043B8  D7FC               	bra	u8957
  1240  0043BA  F000               	nop	
  1241  0043BC                     
  1242                           ;LCD4b_EXSTO.c: 18:     for(i=0;i<=2;i++)
  1243  0043BC  0E00               	movlw	0
  1244  0043BE  6E37               	movwf	lcd_init@i^0,c
  1245  0043C0                     l6546:
  1246                           
  1247                           ;LCD4b_EXSTO.c: 19:     {;LCD4b_EXSTO.c: 20:         lcd_cmd(0x30);
  1248  0043C0  0E30               	movlw	48
  1249  0043C2  ECFC  F01D         	call	_lcd_cmd
  1250  0043C6                     
  1251                           ;LCD4b_EXSTO.c: 21:         _delay((unsigned long)((5)*(8000000/4000.0)));
  1252  0043C6  0E0D               	movlw	13
  1253  0043C8  6E36               	movwf	??_lcd_init^0,c
  1254  0043CA  0EFC               	movlw	252
  1255  0043CC                     u8967:
  1256  0043CC  2EE8               	decfsz	wreg,f,c
  1257  0043CE  D7FE               	bra	u8967
  1258  0043D0  2E36               	decfsz	??_lcd_init^0,f,c
  1259  0043D2  D7FC               	bra	u8967
  1260  0043D4                     
  1261                           ;LCD4b_EXSTO.c: 22:     }
  1262  0043D4  2A37               	incf	lcd_init@i^0,f,c
  1263  0043D6  0E02               	movlw	2
  1264  0043D8  6437               	cpfsgt	lcd_init@i^0,c
  1265  0043DA  EFF1  F021         	goto	u8941
  1266  0043DE  EFF3  F021         	goto	u8940
  1267  0043E2                     u8941:
  1268  0043E2  EFE0  F021         	goto	l6546
  1269  0043E6                     u8940:
  1270  0043E6                     
  1271                           ;LCD4b_EXSTO.c: 24:     lcd_cmd(0x02);
  1272  0043E6  0E02               	movlw	2
  1273  0043E8  ECFC  F01D         	call	_lcd_cmd
  1274  0043EC                     
  1275                           ;LCD4b_EXSTO.c: 25:     _delay((unsigned long)((40)*(8000000/4000000.0)));
  1276  0043EC  0E1A               	movlw	26
  1277  0043EE                     u8977:
  1278  0043EE  2EE8               	decfsz	wreg,f,c
  1279  0043F0  D7FE               	bra	u8977
  1280  0043F2  D000               	nop2	
  1281  0043F4                     
  1282                           ;LCD4b_EXSTO.c: 26:     lcd_cmd(0x28);
  1283  0043F4  0E28               	movlw	40
  1284  0043F6  ECFC  F01D         	call	_lcd_cmd
  1285                           
  1286                           ;LCD4b_EXSTO.c: 27:     _delay((unsigned long)((40)*(8000000/4000000.0)));
  1287  0043FA  0E1A               	movlw	26
  1288  0043FC                     u8987:
  1289  0043FC  2EE8               	decfsz	wreg,f,c
  1290  0043FE  D7FE               	bra	u8987
  1291  004400  D000               	nop2	
  1292  004402                     
  1293                           ;LCD4b_EXSTO.c: 28:     lcd_cmd(0x01);
  1294  004402  0E01               	movlw	1
  1295  004404  ECFC  F01D         	call	_lcd_cmd
  1296  004408                     
  1297                           ;LCD4b_EXSTO.c: 29:     _delay((unsigned long)((2)*(8000000/4000.0)));
  1298  004408  0E06               	movlw	6
  1299  00440A  6E36               	movwf	??_lcd_init^0,c
  1300  00440C  0E30               	movlw	48
  1301  00440E                     u8997:
  1302  00440E  2EE8               	decfsz	wreg,f,c
  1303  004410  D7FE               	bra	u8997
  1304  004412  2E36               	decfsz	??_lcd_init^0,f,c
  1305  004414  D7FC               	bra	u8997
  1306  004416  D000               	nop2	
  1307                           
  1308                           ;LCD4b_EXSTO.c: 30:     lcd_cmd(0x0C);
  1309  004418  0E0C               	movlw	12
  1310  00441A  ECFC  F01D         	call	_lcd_cmd
  1311  00441E                     
  1312                           ;LCD4b_EXSTO.c: 31:     _delay((unsigned long)((40)*(8000000/4000000.0)));
  1313  00441E  0E1A               	movlw	26
  1314  004420                     u9007:
  1315  004420  2EE8               	decfsz	wreg,f,c
  1316  004422  D7FE               	bra	u9007
  1317  004424  D000               	nop2	
  1318  004426                     
  1319                           ;LCD4b_EXSTO.c: 32:     lcd_cmd(0x06);
  1320  004426  0E06               	movlw	6
  1321  004428  ECFC  F01D         	call	_lcd_cmd
  1322                           
  1323                           ;LCD4b_EXSTO.c: 33:     _delay((unsigned long)((40)*(8000000/4000000.0)));
  1324  00442C  0E1A               	movlw	26
  1325  00442E                     u9017:
  1326  00442E  2EE8               	decfsz	wreg,f,c
  1327  004430  D7FE               	bra	u9017
  1328  004432  D000               	nop2	
  1329  004434  0012               	return		;funcret
  1330  004436                     __end_of_lcd_init:
  1331                           	callstack 0
  1332                           
  1333 ;; *************** function _equation_SENSOR *****************
  1334 ;; Defined at:
  1335 ;;		line 112 in file "Program_Interrupt_Level.c"
  1336 ;; Parameters:    Size  Location     Type
  1337 ;;		None
  1338 ;; Auto vars:     Size  Location     Type
  1339 ;;		None
  1340 ;; Return value:  Size  Location     Type
  1341 ;;                  1    wreg      void 
  1342 ;; Registers used:
  1343 ;;		wreg, status,2, status,0, prodl, prodh, cstack
  1344 ;; Tracked objects:
  1345 ;;		On entry : 0/0
  1346 ;;		On exit  : 0/0
  1347 ;;		Unchanged: 0/0
  1348 ;; Data sizes:     COMRAM   BANK0   BANK1   BANK2   BANK3   BANK4   BANK5
  1349 ;;      Params:         0       0       0       0       0       0       0
  1350 ;;      Locals:         0       0       0       0       0       0       0
  1351 ;;      Temps:          0       0       0       0       0       0       0
  1352 ;;      Totals:         0       0       0       0       0       0       0
  1353 ;;Total ram usage:        0 bytes
  1354 ;; Hardware stack levels used: 1
  1355 ;; Hardware stack levels required when called: 6
  1356 ;; This function calls:
  1357 ;;		___fldiv
  1358 ;;		___flmul
  1359 ;;		___xxtofl
  1360 ;; This function is called by:
  1361 ;;		_main
  1362 ;; This function uses a non-reentrant model
  1363 ;;
  1364                           
  1365                           	psect	text2
  1366  004436                     __ptext2:
  1367                           	callstack 0
  1368  004436                     _equation_SENSOR:
  1369                           	callstack 24
  1370  004436                     
  1371                           ;Program_Interrupt_Level.c: 114:     Voltage_AN0 = 0.0048875 * VdigADC_AN0;
  1372  004436  C04C  F032         	movff	_VdigADC_AN0,___xxtofl@val
  1373  00443A  C04D  F033         	movff	_VdigADC_AN0+1,___xxtofl@val+1
  1374  00443E  6A34               	clrf	(___xxtofl@val+2)^0,c
  1375  004440  6A35               	clrf	(___xxtofl@val+3)^0,c
  1376  004442  0E00               	movlw	0
  1377  004444  EC13  F019         	call	___xxtofl
  1378  004448  C032  F08A         	movff	?___xxtofl,___flmul@b
  1379  00444C  C033  F08B         	movff	?___xxtofl+1,___flmul@b+1
  1380  004450  C034  F08C         	movff	?___xxtofl+2,___flmul@b+2
  1381  004454  C035  F08D         	movff	?___xxtofl+3,___flmul@b+3
  1382  004458  0E52               	movlw	82
  1383  00445A  0100               	movlb	0	; () banked
  1384  00445C  6F8E               	movwf	___flmul@a& (0+255),b
  1385  00445E  0E27               	movlw	39
  1386  004460  6F8F               	movwf	(___flmul@a+1)& (0+255),b
  1387  004462  0EA0               	movlw	160
  1388  004464  6F90               	movwf	(___flmul@a+2)& (0+255),b
  1389  004466  0E3B               	movlw	59
  1390  004468  6F91               	movwf	(___flmul@a+3)& (0+255),b
  1391  00446A  ECC3  F00D         	call	___flmul	;wreg free
  1392  00446E  C08A  F040         	movff	?___flmul,_Voltage_AN0
  1393  004472  C08B  F041         	movff	?___flmul+1,_Voltage_AN0+1
  1394  004476  C08C  F042         	movff	?___flmul+2,_Voltage_AN0+2
  1395  00447A  C08D  F043         	movff	?___flmul+3,_Voltage_AN0+3
  1396  00447E                     
  1397                           ;Program_Interrupt_Level.c: 115:     Level_AN0 = Voltage_AN0 / 0.002;
  1398  00447E  C040  F080         	movff	_Voltage_AN0,___fldiv@b
  1399  004482  C041  F081         	movff	_Voltage_AN0+1,___fldiv@b+1
  1400  004486  C042  F082         	movff	_Voltage_AN0+2,___fldiv@b+2
  1401  00448A  C043  F083         	movff	_Voltage_AN0+3,___fldiv@b+3
  1402  00448E  0E6F               	movlw	111
  1403  004490  0100               	movlb	0	; () banked
  1404  004492  6F84               	movwf	___fldiv@a& (0+255),b
  1405  004494  0E12               	movlw	18
  1406  004496  6F85               	movwf	(___fldiv@a+1)& (0+255),b
  1407  004498  0E03               	movlw	3
  1408  00449A  6F86               	movwf	(___fldiv@a+2)& (0+255),b
  1409  00449C  0E3B               	movlw	59
  1410  00449E  6F87               	movwf	(___fldiv@a+3)& (0+255),b
  1411  0044A0  ECEE  F011         	call	___fldiv	;wreg free
  1412  0044A4  C080  F0F9         	movff	?___fldiv,_Level_AN0
  1413  0044A8  C081  F0FA         	movff	?___fldiv+1,_Level_AN0+1
  1414  0044AC  C082  F0FB         	movff	?___fldiv+2,_Level_AN0+2
  1415  0044B0  C083  F0FC         	movff	?___fldiv+3,_Level_AN0+3
  1416  0044B4  0012               	return		;funcret
  1417  0044B6                     __end_of_equation_SENSOR:
  1418                           	callstack 0
  1419                           
  1420 ;; *************** function ___xxtofl *****************
  1421 ;; Defined at:
  1422 ;;		line 10 in file "C:\Program Files\Microchip\xc8\v2.36\pic\sources\c99\common\xxtofl.c"
  1423 ;; Parameters:    Size  Location     Type
  1424 ;;  sign            1    wreg     unsigned char 
  1425 ;;  val             4   49[COMRAM] long 
  1426 ;; Auto vars:     Size  Location     Type
  1427 ;;  sign            1    4[BANK0 ] unsigned char 
  1428 ;;  arg             4    6[BANK0 ] unsigned long 
  1429 ;;  exp             1    5[BANK0 ] unsigned char 
  1430 ;; Return value:  Size  Location     Type
  1431 ;;                  4   49[COMRAM] unsigned char 
  1432 ;; Registers used:
  1433 ;;		wreg, status,2, status,0
  1434 ;; Tracked objects:
  1435 ;;		On entry : 0/0
  1436 ;;		On exit  : 0/0
  1437 ;;		Unchanged: 0/0
  1438 ;; Data sizes:     COMRAM   BANK0   BANK1   BANK2   BANK3   BANK4   BANK5
  1439 ;;      Params:         4       0       0       0       0       0       0
  1440 ;;      Locals:         0       6       0       0       0       0       0
  1441 ;;      Temps:          0       4       0       0       0       0       0
  1442 ;;      Totals:         4      10       0       0       0       0       0
  1443 ;;Total ram usage:       14 bytes
  1444 ;; Hardware stack levels used: 1
  1445 ;; Hardware stack levels required when called: 5
  1446 ;; This function calls:
  1447 ;;		Nothing
  1448 ;; This function is called by:
  1449 ;;		_equation_SENSOR
  1450 ;; This function uses a non-reentrant model
  1451 ;;
  1452                           
  1453                           	psect	text3
  1454  003226                     __ptext3:
  1455                           	callstack 0
  1456  003226                     ___xxtofl:
  1457                           	callstack 24
  1458                           
  1459                           ;incstack = 0
  1460                           ;___xxtofl@sign stored from wreg
  1461  003226  0100               	movlb	0	; () banked
  1462  003228  6F84               	movwf	___xxtofl@sign& (0+255),b
  1463  00322A  0100               	movlb	0	; () banked
  1464  00322C  5184               	movf	___xxtofl@sign& (0+255),w,b
  1465  00322E  B4D8               	btfsc	status,2,c
  1466  003230  EF1C  F019         	goto	u8621
  1467  003234  EF1E  F019         	goto	u8620
  1468  003238                     u8621:
  1469  003238  EF40  F019         	goto	l821
  1470  00323C                     u8620:
  1471  00323C                     
  1472                           ; BSR set to: 0
  1473  00323C  BE35               	btfsc	(___xxtofl@val+3)^0,7,c
  1474  00323E  EF25  F019         	goto	u8630
  1475  003242  EF23  F019         	goto	u8631
  1476  003246                     u8631:
  1477  003246  EF40  F019         	goto	l821
  1478  00324A                     u8630:
  1479  00324A                     
  1480                           ; BSR set to: 0
  1481  00324A  C032  F080         	movff	___xxtofl@val,??___xxtofl
  1482  00324E  C033  F081         	movff	___xxtofl@val+1,??___xxtofl+1
  1483  003252  C034  F082         	movff	___xxtofl@val+2,??___xxtofl+2
  1484  003256  C035  F083         	movff	___xxtofl@val+3,??___xxtofl+3
  1485  00325A  1F80               	comf	??___xxtofl& (0+255),f,b
  1486  00325C  1F81               	comf	(??___xxtofl+1)& (0+255),f,b
  1487  00325E  1F82               	comf	(??___xxtofl+2)& (0+255),f,b
  1488  003260  1F83               	comf	(??___xxtofl+3)& (0+255),f,b
  1489  003262  2B80               	incf	??___xxtofl& (0+255),f,b
  1490  003264  0E00               	movlw	0
  1491  003266  2381               	addwfc	(??___xxtofl+1)& (0+255),f,b
  1492  003268  2382               	addwfc	(??___xxtofl+2)& (0+255),f,b
  1493  00326A  2383               	addwfc	(??___xxtofl+3)& (0+255),f,b
  1494  00326C  C080  F086         	movff	??___xxtofl,___xxtofl@arg
  1495  003270  C081  F087         	movff	??___xxtofl+1,___xxtofl@arg+1
  1496  003274  C082  F088         	movff	??___xxtofl+2,___xxtofl@arg+2
  1497  003278  C083  F089         	movff	??___xxtofl+3,___xxtofl@arg+3
  1498  00327C  EF48  F019         	goto	l6394
  1499  003280                     l821:
  1500                           
  1501                           ; BSR set to: 0
  1502  003280  C032  F086         	movff	___xxtofl@val,___xxtofl@arg
  1503  003284  C033  F087         	movff	___xxtofl@val+1,___xxtofl@arg+1
  1504  003288  C034  F088         	movff	___xxtofl@val+2,___xxtofl@arg+2
  1505  00328C  C035  F089         	movff	___xxtofl@val+3,___xxtofl@arg+3
  1506  003290                     l6394:
  1507                           
  1508                           ; BSR set to: 0
  1509  003290  5032               	movf	___xxtofl@val^0,w,c
  1510  003292  1033               	iorwf	(___xxtofl@val+1)^0,w,c
  1511  003294  1034               	iorwf	(___xxtofl@val+2)^0,w,c
  1512  003296  1035               	iorwf	(___xxtofl@val+3)^0,w,c
  1513  003298  A4D8               	btfss	status,2,c
  1514  00329A  EF51  F019         	goto	u8641
  1515  00329E  EF53  F019         	goto	u8640
  1516  0032A2                     u8641:
  1517  0032A2  EF5D  F019         	goto	l6400
  1518  0032A6                     u8640:
  1519  0032A6                     
  1520                           ; BSR set to: 0
  1521  0032A6  0E00               	movlw	0
  1522  0032A8  6E32               	movwf	?___xxtofl^0,c
  1523  0032AA  0E00               	movlw	0
  1524  0032AC  6E33               	movwf	(?___xxtofl+1)^0,c
  1525  0032AE  0E00               	movlw	0
  1526  0032B0  6E34               	movwf	(?___xxtofl+2)^0,c
  1527  0032B2  0E00               	movlw	0
  1528  0032B4  6E35               	movwf	(?___xxtofl+3)^0,c
  1529  0032B6  EFEE  F019         	goto	l824
  1530  0032BA                     l6400:
  1531                           
  1532                           ; BSR set to: 0
  1533  0032BA  0E96               	movlw	150
  1534  0032BC  6F85               	movwf	___xxtofl@exp& (0+255),b
  1535  0032BE  EF67  F019         	goto	l6404
  1536  0032C2                     l6402:
  1537                           
  1538                           ; BSR set to: 0
  1539  0032C2  2B85               	incf	___xxtofl@exp& (0+255),f,b
  1540  0032C4  90D8               	bcf	status,0,c
  1541  0032C6  3389               	rrcf	(___xxtofl@arg+3)& (0+255),f,b
  1542  0032C8  3388               	rrcf	(___xxtofl@arg+2)& (0+255),f,b
  1543  0032CA  3387               	rrcf	(___xxtofl@arg+1)& (0+255),f,b
  1544  0032CC  3386               	rrcf	___xxtofl@arg& (0+255),f,b
  1545  0032CE                     l6404:
  1546                           
  1547                           ; BSR set to: 0
  1548  0032CE  0E00               	movlw	0
  1549  0032D0  1586               	andwf	___xxtofl@arg& (0+255),w,b
  1550  0032D2  6F80               	movwf	??___xxtofl& (0+255),b
  1551  0032D4  0E00               	movlw	0
  1552  0032D6  1587               	andwf	(___xxtofl@arg+1)& (0+255),w,b
  1553  0032D8  6F81               	movwf	(??___xxtofl+1)& (0+255),b
  1554  0032DA  0E00               	movlw	0
  1555  0032DC  1588               	andwf	(___xxtofl@arg+2)& (0+255),w,b
  1556  0032DE  6F82               	movwf	(??___xxtofl+2)& (0+255),b
  1557  0032E0  0EFE               	movlw	254
  1558  0032E2  1589               	andwf	(___xxtofl@arg+3)& (0+255),w,b
  1559  0032E4  6F83               	movwf	(??___xxtofl+3)& (0+255),b
  1560  0032E6  5180               	movf	??___xxtofl& (0+255),w,b
  1561  0032E8  1181               	iorwf	(??___xxtofl+1)& (0+255),w,b
  1562  0032EA  1182               	iorwf	(??___xxtofl+2)& (0+255),w,b
  1563  0032EC  1183               	iorwf	(??___xxtofl+3)& (0+255),w,b
  1564  0032EE  A4D8               	btfss	status,2,c
  1565  0032F0  EF7C  F019         	goto	u8651
  1566  0032F4  EF7E  F019         	goto	u8650
  1567  0032F8                     u8651:
  1568  0032F8  EF61  F019         	goto	l6402
  1569  0032FC                     u8650:
  1570  0032FC  EF8C  F019         	goto	l828
  1571  003300                     l6406:
  1572                           
  1573                           ; BSR set to: 0
  1574  003300  2B85               	incf	___xxtofl@exp& (0+255),f,b
  1575  003302                     
  1576                           ; BSR set to: 0
  1577  003302  0E01               	movlw	1
  1578  003304  2786               	addwf	___xxtofl@arg& (0+255),f,b
  1579  003306  0E00               	movlw	0
  1580  003308  2387               	addwfc	(___xxtofl@arg+1)& (0+255),f,b
  1581  00330A  2388               	addwfc	(___xxtofl@arg+2)& (0+255),f,b
  1582  00330C  2389               	addwfc	(___xxtofl@arg+3)& (0+255),f,b
  1583  00330E                     
  1584                           ; BSR set to: 0
  1585  00330E  90D8               	bcf	status,0,c
  1586  003310  3389               	rrcf	(___xxtofl@arg+3)& (0+255),f,b
  1587  003312  3388               	rrcf	(___xxtofl@arg+2)& (0+255),f,b
  1588  003314  3387               	rrcf	(___xxtofl@arg+1)& (0+255),f,b
  1589  003316  3386               	rrcf	___xxtofl@arg& (0+255),f,b
  1590  003318                     l828:
  1591                           
  1592                           ; BSR set to: 0
  1593  003318  0E00               	movlw	0
  1594  00331A  1586               	andwf	___xxtofl@arg& (0+255),w,b
  1595  00331C  6F80               	movwf	??___xxtofl& (0+255),b
  1596  00331E  0E00               	movlw	0
  1597  003320  1587               	andwf	(___xxtofl@arg+1)& (0+255),w,b
  1598  003322  6F81               	movwf	(??___xxtofl+1)& (0+255),b
  1599  003324  0E00               	movlw	0
  1600  003326  1588               	andwf	(___xxtofl@arg+2)& (0+255),w,b
  1601  003328  6F82               	movwf	(??___xxtofl+2)& (0+255),b
  1602  00332A  0EFF               	movlw	255
  1603  00332C  1589               	andwf	(___xxtofl@arg+3)& (0+255),w,b
  1604  00332E  6F83               	movwf	(??___xxtofl+3)& (0+255),b
  1605  003330  5180               	movf	??___xxtofl& (0+255),w,b
  1606  003332  1181               	iorwf	(??___xxtofl+1)& (0+255),w,b
  1607  003334  1182               	iorwf	(??___xxtofl+2)& (0+255),w,b
  1608  003336  1183               	iorwf	(??___xxtofl+3)& (0+255),w,b
  1609  003338  A4D8               	btfss	status,2,c
  1610  00333A  EFA1  F019         	goto	u8661
  1611  00333E  EFA3  F019         	goto	u8660
  1612  003342                     u8661:
  1613  003342  EF80  F019         	goto	l6406
  1614  003346                     u8660:
  1615  003346  EFAB  F019         	goto	l6414
  1616  00334A                     l6412:
  1617                           
  1618                           ; BSR set to: 0
  1619  00334A  0785               	decf	___xxtofl@exp& (0+255),f,b
  1620  00334C  90D8               	bcf	status,0,c
  1621  00334E  3786               	rlcf	___xxtofl@arg& (0+255),f,b
  1622  003350  3787               	rlcf	(___xxtofl@arg+1)& (0+255),f,b
  1623  003352  3788               	rlcf	(___xxtofl@arg+2)& (0+255),f,b
  1624  003354  3789               	rlcf	(___xxtofl@arg+3)& (0+255),f,b
  1625  003356                     l6414:
  1626                           
  1627                           ; BSR set to: 0
  1628  003356  BF88               	btfsc	(___xxtofl@arg+2)& (0+255),7,b
  1629  003358  EFB0  F019         	goto	u8671
  1630  00335C  EFB2  F019         	goto	u8670
  1631  003360                     u8671:
  1632  003360  EFBA  F019         	goto	l835
  1633  003364                     u8670:
  1634  003364                     
  1635                           ; BSR set to: 0
  1636  003364  0E02               	movlw	2
  1637  003366  6185               	cpfslt	___xxtofl@exp& (0+255),b
  1638  003368  EFB8  F019         	goto	u8681
  1639  00336C  EFBA  F019         	goto	u8680
  1640  003370                     u8681:
  1641  003370  EFA5  F019         	goto	l6412
  1642  003374                     u8680:
  1643  003374                     l835:
  1644                           
  1645                           ; BSR set to: 0
  1646  003374  B185               	btfsc	___xxtofl@exp& (0+255),0,b
  1647  003376  EFBF  F019         	goto	u8691
  1648  00337A  EFC1  F019         	goto	u8690
  1649  00337E                     u8691:
  1650  00337E  EFC2  F019         	goto	l6420
  1651  003382                     u8690:
  1652  003382                     
  1653                           ; BSR set to: 0
  1654  003382  9F88               	bcf	(___xxtofl@arg+2)& (0+255),7,b
  1655  003384                     l6420:
  1656                           
  1657                           ; BSR set to: 0
  1658  003384  90D8               	bcf	status,0,c
  1659  003386  3385               	rrcf	___xxtofl@exp& (0+255),f,b
  1660  003388                     
  1661                           ; BSR set to: 0
  1662  003388  C085  F080         	movff	___xxtofl@exp,??___xxtofl
  1663  00338C  6B81               	clrf	(??___xxtofl+1)& (0+255),b
  1664  00338E  6B82               	clrf	(??___xxtofl+2)& (0+255),b
  1665  003390  6B83               	clrf	(??___xxtofl+3)& (0+255),b
  1666  003392  C080  F083         	movff	??___xxtofl,??___xxtofl+3
  1667  003396  6B82               	clrf	(??___xxtofl+2)& (0+255),b
  1668  003398  6B81               	clrf	(??___xxtofl+1)& (0+255),b
  1669  00339A  6B80               	clrf	??___xxtofl& (0+255),b
  1670  00339C  5180               	movf	??___xxtofl& (0+255),w,b
  1671  00339E  1386               	iorwf	___xxtofl@arg& (0+255),f,b
  1672  0033A0  5181               	movf	(??___xxtofl+1)& (0+255),w,b
  1673  0033A2  1387               	iorwf	(___xxtofl@arg+1)& (0+255),f,b
  1674  0033A4  5182               	movf	(??___xxtofl+2)& (0+255),w,b
  1675  0033A6  1388               	iorwf	(___xxtofl@arg+2)& (0+255),f,b
  1676  0033A8  5183               	movf	(??___xxtofl+3)& (0+255),w,b
  1677  0033AA  1389               	iorwf	(___xxtofl@arg+3)& (0+255),f,b
  1678  0033AC                     
  1679                           ; BSR set to: 0
  1680  0033AC  5184               	movf	___xxtofl@sign& (0+255),w,b
  1681  0033AE  B4D8               	btfsc	status,2,c
  1682  0033B0  EFDC  F019         	goto	u8701
  1683  0033B4  EFDE  F019         	goto	u8700
  1684  0033B8                     u8701:
  1685  0033B8  EFE6  F019         	goto	l6430
  1686  0033BC                     u8700:
  1687  0033BC                     
  1688                           ; BSR set to: 0
  1689  0033BC  BE35               	btfsc	(___xxtofl@val+3)^0,7,c
  1690  0033BE  EFE5  F019         	goto	u8710
  1691  0033C2  EFE3  F019         	goto	u8711
  1692  0033C6                     u8711:
  1693  0033C6  EFE6  F019         	goto	l6430
  1694  0033CA                     u8710:
  1695  0033CA                     
  1696                           ; BSR set to: 0
  1697  0033CA  8F89               	bsf	(___xxtofl@arg+3)& (0+255),7,b
  1698  0033CC                     l6430:
  1699                           
  1700                           ; BSR set to: 0
  1701  0033CC  C086  F032         	movff	___xxtofl@arg,?___xxtofl
  1702  0033D0  C087  F033         	movff	___xxtofl@arg+1,?___xxtofl+1
  1703  0033D4  C088  F034         	movff	___xxtofl@arg+2,?___xxtofl+2
  1704  0033D8  C089  F035         	movff	___xxtofl@arg+3,?___xxtofl+3
  1705  0033DC                     l824:
  1706                           
  1707                           ; BSR set to: 0
  1708  0033DC  0012               	return		;funcret
  1709  0033DE                     __end_of___xxtofl:
  1710                           	callstack 0
  1711                           
  1712 ;; *************** function _conv_AN0 *****************
  1713 ;; Defined at:
  1714 ;;		line 103 in file "Program_Interrupt_Level.c"
  1715 ;; Parameters:    Size  Location     Type
  1716 ;;		None
  1717 ;; Auto vars:     Size  Location     Type
  1718 ;;		None
  1719 ;; Return value:  Size  Location     Type
  1720 ;;                  1    wreg      void 
  1721 ;; Registers used:
  1722 ;;		wreg, status,2
  1723 ;; Tracked objects:
  1724 ;;		On entry : 0/0
  1725 ;;		On exit  : 0/0
  1726 ;;		Unchanged: 0/0
  1727 ;; Data sizes:     COMRAM   BANK0   BANK1   BANK2   BANK3   BANK4   BANK5
  1728 ;;      Params:         0       0       0       0       0       0       0
  1729 ;;      Locals:         0       0       0       0       0       0       0
  1730 ;;      Temps:          2       0       0       0       0       0       0
  1731 ;;      Totals:         2       0       0       0       0       0       0
  1732 ;;Total ram usage:        2 bytes
  1733 ;; Hardware stack levels used: 1
  1734 ;; Hardware stack levels required when called: 5
  1735 ;; This function calls:
  1736 ;;		Nothing
  1737 ;; This function is called by:
  1738 ;;		_main
  1739 ;; This function uses a non-reentrant model
  1740 ;;
  1741                           
  1742                           	psect	text4
  1743  0048F8                     __ptext4:
  1744                           	callstack 0
  1745  0048F8                     _conv_AN0:
  1746                           	callstack 25
  1747  0048F8                     
  1748                           ;Program_Interrupt_Level.c: 105:     _delay((unsigned long)((50)*(8000000/4000.0)));
  1749  0048F8  0E82               	movlw	130
  1750  0048FA  6E32               	movwf	??_conv_AN0^0,c
  1751  0048FC  0EDE               	movlw	222
  1752  0048FE                     u9027:
  1753  0048FE  2EE8               	decfsz	wreg,f,c
  1754  004900  D7FE               	bra	u9027
  1755  004902  2E32               	decfsz	??_conv_AN0^0,f,c
  1756  004904  D7FC               	bra	u9027
  1757  004906                     
  1758                           ;Program_Interrupt_Level.c: 106:     ADCON0bits.GO = 1;
  1759  004906  82C2               	bsf	194,1,c	;volatile
  1760  004908                     l60:
  1761  004908  B2C2               	btfsc	194,1,c	;volatile
  1762  00490A  EF89  F024         	goto	u2851
  1763  00490E  EF8B  F024         	goto	u2850
  1764  004912                     u2851:
  1765  004912  EF84  F024         	goto	l60
  1766  004916                     u2850:
  1767  004916                     
  1768                           ;Program_Interrupt_Level.c: 108:     VdigADC_AN0 = ADRESH;
  1769  004916  CFC4 F04C          	movff	4036,_VdigADC_AN0	;volatile
  1770  00491A  6A4D               	clrf	(_VdigADC_AN0+1)^0,c
  1771  00491C                     
  1772                           ;Program_Interrupt_Level.c: 109:     VdigADC_AN0 = (VdigADC_AN0 << 8) + ADRESL;
  1773  00491C  504C               	movf	_VdigADC_AN0^0,w,c
  1774  00491E  6E32               	movwf	??_conv_AN0^0,c
  1775  004920  50C3               	movf	195,w,c	;volatile
  1776  004922  6E4C               	movwf	_VdigADC_AN0^0,c
  1777  004924  C032  F04D         	movff	??_conv_AN0,_VdigADC_AN0+1
  1778  004928  0012               	return		;funcret
  1779  00492A                     __end_of_conv_AN0:
  1780                           	callstack 0
  1781                           
  1782 ;; *************** function _control_LOW *****************
  1783 ;; Defined at:
  1784 ;;		line 195 in file "Program_Interrupt_Level.c"
  1785 ;; Parameters:    Size  Location     Type
  1786 ;;		None
  1787 ;; Auto vars:     Size  Location     Type
  1788 ;;		None
  1789 ;; Return value:  Size  Location     Type
  1790 ;;                  1    wreg      void 
  1791 ;; Registers used:
  1792 ;;		wreg, status,2, status,0, cstack
  1793 ;; Tracked objects:
  1794 ;;		On entry : 0/0
  1795 ;;		On exit  : 0/0
  1796 ;;		Unchanged: 0/0
  1797 ;; Data sizes:     COMRAM   BANK0   BANK1   BANK2   BANK3   BANK4   BANK5
  1798 ;;      Params:         0       0       0       0       0       0       0
  1799 ;;      Locals:         0       0       0       0       0       0       0
  1800 ;;      Temps:          0       0       0       0       0       0       0
  1801 ;;      Totals:         0       0       0       0       0       0       0
  1802 ;;Total ram usage:        0 bytes
  1803 ;; Hardware stack levels used: 1
  1804 ;; Hardware stack levels required when called: 6
  1805 ;; This function calls:
  1806 ;;		___fleq
  1807 ;;		___flge
  1808 ;; This function is called by:
  1809 ;;		_main
  1810 ;; This function uses a non-reentrant model
  1811 ;;
  1812                           
  1813                           	psect	text5
  1814  002DA0                     __ptext5:
  1815                           	callstack 0
  1816  002DA0                     _control_LOW:
  1817                           	callstack 24
  1818  002DA0                     
  1819                           ;Program_Interrupt_Level.c: 197:     if(Level_Loop == 1)
  1820  002DA0  044A               	decf	_Level_Loop^0,w,c
  1821  002DA2  104B               	iorwf	(_Level_Loop+1)^0,w,c
  1822  002DA4  A4D8               	btfss	status,2,c
  1823  002DA6  EFD7  F016         	goto	u8831
  1824  002DAA  EFD9  F016         	goto	u8830
  1825  002DAE                     u8831:
  1826  002DAE  EF07  F018         	goto	l99
  1827  002DB2                     u8830:
  1828  002DB2                     
  1829                           ;Program_Interrupt_Level.c: 198:     {;Program_Interrupt_Level.c: 199:         PORTCbits
      +                          .RC0 = 0;
  1830  002DB2  9082               	bcf	130,0,c	;volatile
  1831                           
  1832                           ;Program_Interrupt_Level.c: 200:         PORTCbits.RC1 = 0;
  1833  002DB4  9282               	bcf	130,1,c	;volatile
  1834                           
  1835                           ;Program_Interrupt_Level.c: 201:         PORTCbits.RC2 = 1;
  1836  002DB6  8482               	bsf	130,2,c	;volatile
  1837  002DB8                     
  1838                           ;Program_Interrupt_Level.c: 202:         if(Level_AN0 == 0)
  1839  002DB8  C0F9  F080         	movff	_Level_AN0,___fleq@ff1
  1840  002DBC  C0FA  F081         	movff	_Level_AN0+1,___fleq@ff1+1
  1841  002DC0  C0FB  F082         	movff	_Level_AN0+2,___fleq@ff1+2
  1842  002DC4  C0FC  F083         	movff	_Level_AN0+3,___fleq@ff1+3
  1843  002DC8  0E00               	movlw	0
  1844  002DCA  0100               	movlb	0	; () banked
  1845  002DCC  6F84               	movwf	___fleq@ff2& (0+255),b
  1846  002DCE  0E00               	movlw	0
  1847  002DD0  6F85               	movwf	(___fleq@ff2+1)& (0+255),b
  1848  002DD2  0E00               	movlw	0
  1849  002DD4  6F86               	movwf	(___fleq@ff2+2)& (0+255),b
  1850  002DD6  0E00               	movlw	0
  1851  002DD8  6F87               	movwf	(___fleq@ff2+3)& (0+255),b
  1852  002DDA  ECD3  F020         	call	___fleq	;wreg free
  1853  002DDE  0100               	movlb	0	; () banked
  1854  002DE0  A0D8               	btfss	status,0,c
  1855  002DE2  EFF5  F016         	goto	u8841
  1856  002DE6  EFF7  F016         	goto	u8840
  1857  002DEA                     u8841:
  1858  002DEA  EF00  F017         	goto	l6492
  1859  002DEE                     u8840:
  1860  002DEE                     
  1861                           ; BSR set to: 0
  1862                           ;Program_Interrupt_Level.c: 203:         {;Program_Interrupt_Level.c: 204:             P
      +                          ORTCbits.RC3 = 1;
  1863  002DEE  8682               	bsf	130,3,c	;volatile
  1864                           
  1865                           ;Program_Interrupt_Level.c: 205:             PORTCbits.RC4 = 0;
  1866  002DF0  9882               	bcf	130,4,c	;volatile
  1867                           
  1868                           ;Program_Interrupt_Level.c: 206:             PORTCbits.RC5 = 0;
  1869  002DF2  9A82               	bcf	130,5,c	;volatile
  1870  002DF4                     
  1871                           ; BSR set to: 0
  1872                           ;Program_Interrupt_Level.c: 207:             Level_Loop = 0;
  1873  002DF4  0E00               	movlw	0
  1874  002DF6  6E4B               	movwf	(_Level_Loop+1)^0,c
  1875  002DF8  0E00               	movlw	0
  1876  002DFA  6E4A               	movwf	_Level_Loop^0,c
  1877                           
  1878                           ;Program_Interrupt_Level.c: 208:         }
  1879  002DFC  EF07  F018         	goto	l99
  1880  002E00                     l6492:
  1881                           
  1882                           ; BSR set to: 0
  1883  002E00  0E00               	movlw	0
  1884  002E02  6FA3               	movwf	___flge@ff1& (0+255),b
  1885  002E04  0E00               	movlw	0
  1886  002E06  6FA4               	movwf	(___flge@ff1+1)& (0+255),b
  1887  002E08  0E00               	movlw	0
  1888  002E0A  6FA5               	movwf	(___flge@ff1+2)& (0+255),b
  1889  002E0C  0E00               	movlw	0
  1890  002E0E  6FA6               	movwf	(___flge@ff1+3)& (0+255),b
  1891  002E10  C0F9  F0A7         	movff	_Level_AN0,___flge@ff2
  1892  002E14  C0FA  F0A8         	movff	_Level_AN0+1,___flge@ff2+1
  1893  002E18  C0FB  F0A9         	movff	_Level_AN0+2,___flge@ff2+2
  1894  002E1C  C0FC  F0AA         	movff	_Level_AN0+3,___flge@ff2+3
  1895  002E20  ECFA  F01B         	call	___flge	;wreg free
  1896  002E24  0100               	movlb	0	; () banked
  1897  002E26  B0D8               	btfsc	status,0,c
  1898  002E28  EF18  F017         	goto	u8851
  1899  002E2C  EF1A  F017         	goto	u8850
  1900  002E30                     u8851:
  1901  002E30  EF39  F017         	goto	l6498
  1902  002E34                     u8850:
  1903  002E34                     
  1904                           ; BSR set to: 0
  1905  002E34  0E00               	movlw	0
  1906  002E36  6FA3               	movwf	___flge@ff1& (0+255),b
  1907  002E38  0E40               	movlw	64
  1908  002E3A  6FA4               	movwf	(___flge@ff1+1)& (0+255),b
  1909  002E3C  0E1C               	movlw	28
  1910  002E3E  6FA5               	movwf	(___flge@ff1+2)& (0+255),b
  1911  002E40  0E44               	movlw	68
  1912  002E42  6FA6               	movwf	(___flge@ff1+3)& (0+255),b
  1913  002E44  C0F9  F0A7         	movff	_Level_AN0,___flge@ff2
  1914  002E48  C0FA  F0A8         	movff	_Level_AN0+1,___flge@ff2+1
  1915  002E4C  C0FB  F0A9         	movff	_Level_AN0+2,___flge@ff2+2
  1916  002E50  C0FC  F0AA         	movff	_Level_AN0+3,___flge@ff2+3
  1917  002E54  ECFA  F01B         	call	___flge	;wreg free
  1918  002E58  0100               	movlb	0	; () banked
  1919  002E5A  A0D8               	btfss	status,0,c
  1920  002E5C  EF32  F017         	goto	u8861
  1921  002E60  EF34  F017         	goto	u8860
  1922  002E64                     u8861:
  1923  002E64  EF39  F017         	goto	l6498
  1924  002E68                     u8860:
  1925  002E68                     
  1926                           ; BSR set to: 0
  1927                           ;Program_Interrupt_Level.c: 210:         {;Program_Interrupt_Level.c: 211:             P
      +                          ORTCbits.RC3 = 1;
  1928  002E68  8682               	bsf	130,3,c	;volatile
  1929                           
  1930                           ;Program_Interrupt_Level.c: 212:             PORTCbits.RC4 = 0;
  1931  002E6A  9882               	bcf	130,4,c	;volatile
  1932                           
  1933                           ;Program_Interrupt_Level.c: 213:             PORTCbits.RC5 = 0;
  1934  002E6C  9A82               	bcf	130,5,c	;volatile
  1935                           
  1936                           ;Program_Interrupt_Level.c: 214:         }
  1937  002E6E  EF07  F018         	goto	l99
  1938  002E72                     l6498:
  1939                           
  1940                           ; BSR set to: 0
  1941  002E72  0E00               	movlw	0
  1942  002E74  6FA3               	movwf	___flge@ff1& (0+255),b
  1943  002E76  0E40               	movlw	64
  1944  002E78  6FA4               	movwf	(___flge@ff1+1)& (0+255),b
  1945  002E7A  0E1C               	movlw	28
  1946  002E7C  6FA5               	movwf	(___flge@ff1+2)& (0+255),b
  1947  002E7E  0E44               	movlw	68
  1948  002E80  6FA6               	movwf	(___flge@ff1+3)& (0+255),b
  1949  002E82  C0F9  F0A7         	movff	_Level_AN0,___flge@ff2
  1950  002E86  C0FA  F0A8         	movff	_Level_AN0+1,___flge@ff2+1
  1951  002E8A  C0FB  F0A9         	movff	_Level_AN0+2,___flge@ff2+2
  1952  002E8E  C0FC  F0AA         	movff	_Level_AN0+3,___flge@ff2+3
  1953  002E92  ECFA  F01B         	call	___flge	;wreg free
  1954  002E96  0100               	movlb	0	; () banked
  1955  002E98  B0D8               	btfsc	status,0,c
  1956  002E9A  EF51  F017         	goto	u8871
  1957  002E9E  EF53  F017         	goto	u8870
  1958  002EA2                     u8871:
  1959  002EA2  EF72  F017         	goto	l6504
  1960  002EA6                     u8870:
  1961  002EA6                     
  1962                           ; BSR set to: 0
  1963  002EA6  0E00               	movlw	0
  1964  002EA8  6FA3               	movwf	___flge@ff1& (0+255),b
  1965  002EAA  0E40               	movlw	64
  1966  002EAC  6FA4               	movwf	(___flge@ff1+1)& (0+255),b
  1967  002EAE  0E9C               	movlw	156
  1968  002EB0  6FA5               	movwf	(___flge@ff1+2)& (0+255),b
  1969  002EB2  0E44               	movlw	68
  1970  002EB4  6FA6               	movwf	(___flge@ff1+3)& (0+255),b
  1971  002EB6  C0F9  F0A7         	movff	_Level_AN0,___flge@ff2
  1972  002EBA  C0FA  F0A8         	movff	_Level_AN0+1,___flge@ff2+1
  1973  002EBE  C0FB  F0A9         	movff	_Level_AN0+2,___flge@ff2+2
  1974  002EC2  C0FC  F0AA         	movff	_Level_AN0+3,___flge@ff2+3
  1975  002EC6  ECFA  F01B         	call	___flge	;wreg free
  1976  002ECA  0100               	movlb	0	; () banked
  1977  002ECC  A0D8               	btfss	status,0,c
  1978  002ECE  EF6B  F017         	goto	u8881
  1979  002ED2  EF6D  F017         	goto	u8880
  1980  002ED6                     u8881:
  1981  002ED6  EF72  F017         	goto	l6504
  1982  002EDA                     u8880:
  1983  002EDA                     
  1984                           ; BSR set to: 0
  1985                           ;Program_Interrupt_Level.c: 216:         {;Program_Interrupt_Level.c: 217:             P
      +                          ORTCbits.RC3 = 1;
  1986  002EDA  8682               	bsf	130,3,c	;volatile
  1987                           
  1988                           ;Program_Interrupt_Level.c: 218:             PORTCbits.RC4 = 1;
  1989  002EDC  8882               	bsf	130,4,c	;volatile
  1990                           
  1991                           ;Program_Interrupt_Level.c: 219:             PORTCbits.RC5 = 0;
  1992  002EDE  9A82               	bcf	130,5,c	;volatile
  1993                           
  1994                           ;Program_Interrupt_Level.c: 220:         }
  1995  002EE0  EF07  F018         	goto	l99
  1996  002EE4                     l6504:
  1997                           
  1998                           ; BSR set to: 0
  1999  002EE4  0E00               	movlw	0
  2000  002EE6  6FA3               	movwf	___flge@ff1& (0+255),b
  2001  002EE8  0E40               	movlw	64
  2002  002EEA  6FA4               	movwf	(___flge@ff1+1)& (0+255),b
  2003  002EEC  0E9C               	movlw	156
  2004  002EEE  6FA5               	movwf	(___flge@ff1+2)& (0+255),b
  2005  002EF0  0E44               	movlw	68
  2006  002EF2  6FA6               	movwf	(___flge@ff1+3)& (0+255),b
  2007  002EF4  C0F9  F0A7         	movff	_Level_AN0,___flge@ff2
  2008  002EF8  C0FA  F0A8         	movff	_Level_AN0+1,___flge@ff2+1
  2009  002EFC  C0FB  F0A9         	movff	_Level_AN0+2,___flge@ff2+2
  2010  002F00  C0FC  F0AA         	movff	_Level_AN0+3,___flge@ff2+3
  2011  002F04  ECFA  F01B         	call	___flge	;wreg free
  2012  002F08  0100               	movlb	0	; () banked
  2013  002F0A  B0D8               	btfsc	status,0,c
  2014  002F0C  EF8A  F017         	goto	u8891
  2015  002F10  EF8C  F017         	goto	u8890
  2016  002F14                     u8891:
  2017  002F14  EFAB  F017         	goto	l6510
  2018  002F18                     u8890:
  2019  002F18                     
  2020                           ; BSR set to: 0
  2021  002F18  0E00               	movlw	0
  2022  002F1A  6FA3               	movwf	___flge@ff1& (0+255),b
  2023  002F1C  0E60               	movlw	96
  2024  002F1E  6FA4               	movwf	(___flge@ff1+1)& (0+255),b
  2025  002F20  0EEA               	movlw	234
  2026  002F22  6FA5               	movwf	(___flge@ff1+2)& (0+255),b
  2027  002F24  0E44               	movlw	68
  2028  002F26  6FA6               	movwf	(___flge@ff1+3)& (0+255),b
  2029  002F28  C0F9  F0A7         	movff	_Level_AN0,___flge@ff2
  2030  002F2C  C0FA  F0A8         	movff	_Level_AN0+1,___flge@ff2+1
  2031  002F30  C0FB  F0A9         	movff	_Level_AN0+2,___flge@ff2+2
  2032  002F34  C0FC  F0AA         	movff	_Level_AN0+3,___flge@ff2+3
  2033  002F38  ECFA  F01B         	call	___flge	;wreg free
  2034  002F3C  0100               	movlb	0	; () banked
  2035  002F3E  A0D8               	btfss	status,0,c
  2036  002F40  EFA4  F017         	goto	u8901
  2037  002F44  EFA6  F017         	goto	u8900
  2038  002F48                     u8901:
  2039  002F48  EFAB  F017         	goto	l6510
  2040  002F4C                     u8900:
  2041  002F4C                     
  2042                           ; BSR set to: 0
  2043                           ;Program_Interrupt_Level.c: 222:         {;Program_Interrupt_Level.c: 223:             P
      +                          ORTCbits.RC3 = 0;
  2044  002F4C  9682               	bcf	130,3,c	;volatile
  2045                           
  2046                           ;Program_Interrupt_Level.c: 224:             PORTCbits.RC4 = 1;
  2047  002F4E  8882               	bsf	130,4,c	;volatile
  2048                           
  2049                           ;Program_Interrupt_Level.c: 225:             PORTCbits.RC5 = 0;
  2050  002F50  9A82               	bcf	130,5,c	;volatile
  2051                           
  2052                           ;Program_Interrupt_Level.c: 226:         }
  2053  002F52  EF07  F018         	goto	l99
  2054  002F56                     l6510:
  2055                           
  2056                           ; BSR set to: 0
  2057  002F56  0E00               	movlw	0
  2058  002F58  6FA3               	movwf	___flge@ff1& (0+255),b
  2059  002F5A  0E60               	movlw	96
  2060  002F5C  6FA4               	movwf	(___flge@ff1+1)& (0+255),b
  2061  002F5E  0EEA               	movlw	234
  2062  002F60  6FA5               	movwf	(___flge@ff1+2)& (0+255),b
  2063  002F62  0E44               	movlw	68
  2064  002F64  6FA6               	movwf	(___flge@ff1+3)& (0+255),b
  2065  002F66  C0F9  F0A7         	movff	_Level_AN0,___flge@ff2
  2066  002F6A  C0FA  F0A8         	movff	_Level_AN0+1,___flge@ff2+1
  2067  002F6E  C0FB  F0A9         	movff	_Level_AN0+2,___flge@ff2+2
  2068  002F72  C0FC  F0AA         	movff	_Level_AN0+3,___flge@ff2+3
  2069  002F76  ECFA  F01B         	call	___flge	;wreg free
  2070  002F7A  0100               	movlb	0	; () banked
  2071  002F7C  B0D8               	btfsc	status,0,c
  2072  002F7E  EFC3  F017         	goto	u8911
  2073  002F82  EFC5  F017         	goto	u8910
  2074  002F86                     u8911:
  2075  002F86  EFE8  F017         	goto	l6518
  2076  002F8A                     u8910:
  2077  002F8A                     
  2078                           ; BSR set to: 0
  2079  002F8A  C0F9  F0A3         	movff	_Level_AN0,___flge@ff1
  2080  002F8E  C0FA  F0A4         	movff	_Level_AN0+1,___flge@ff1+1
  2081  002F92  C0FB  F0A5         	movff	_Level_AN0+2,___flge@ff1+2
  2082  002F96  C0FC  F0A6         	movff	_Level_AN0+3,___flge@ff1+3
  2083  002F9A  0E00               	movlw	0
  2084  002F9C  6FA7               	movwf	___flge@ff2& (0+255),b
  2085  002F9E  0E40               	movlw	64
  2086  002FA0  6FA8               	movwf	(___flge@ff2+1)& (0+255),b
  2087  002FA2  0E1C               	movlw	28
  2088  002FA4  6FA9               	movwf	(___flge@ff2+2)& (0+255),b
  2089  002FA6  0E45               	movlw	69
  2090  002FA8  6FAA               	movwf	(___flge@ff2+3)& (0+255),b
  2091  002FAA  ECFA  F01B         	call	___flge	;wreg free
  2092  002FAE  0100               	movlb	0	; () banked
  2093  002FB0  B0D8               	btfsc	status,0,c
  2094  002FB2  EFDD  F017         	goto	u8921
  2095  002FB6  EFDF  F017         	goto	u8920
  2096  002FBA                     u8921:
  2097  002FBA  EFE8  F017         	goto	l6518
  2098  002FBE                     u8920:
  2099  002FBE                     
  2100                           ; BSR set to: 0
  2101                           ;Program_Interrupt_Level.c: 228:         {;Program_Interrupt_Level.c: 229:             P
      +                          ORTCbits.RC3 = 0;
  2102  002FBE  9682               	bcf	130,3,c	;volatile
  2103                           
  2104                           ;Program_Interrupt_Level.c: 230:             PORTCbits.RC4 = 1;
  2105  002FC0  8882               	bsf	130,4,c	;volatile
  2106                           
  2107                           ;Program_Interrupt_Level.c: 231:             PORTCbits.RC5 = 1;
  2108  002FC2  8A82               	bsf	130,5,c	;volatile
  2109  002FC4                     l6516:
  2110                           
  2111                           ; BSR set to: 0
  2112                           ;Program_Interrupt_Level.c: 232:             Level_Loop = 1;
  2113  002FC4  0E00               	movlw	0
  2114  002FC6  6E4B               	movwf	(_Level_Loop+1)^0,c
  2115  002FC8  0E01               	movlw	1
  2116  002FCA  6E4A               	movwf	_Level_Loop^0,c
  2117                           
  2118                           ;Program_Interrupt_Level.c: 233:         }
  2119  002FCC  EF07  F018         	goto	l99
  2120  002FD0                     l6518:
  2121                           
  2122                           ; BSR set to: 0
  2123  002FD0  C0F9  F080         	movff	_Level_AN0,___fleq@ff1
  2124  002FD4  C0FA  F081         	movff	_Level_AN0+1,___fleq@ff1+1
  2125  002FD8  C0FB  F082         	movff	_Level_AN0+2,___fleq@ff1+2
  2126  002FDC  C0FC  F083         	movff	_Level_AN0+3,___fleq@ff1+3
  2127  002FE0  0E00               	movlw	0
  2128  002FE2  6F84               	movwf	___fleq@ff2& (0+255),b
  2129  002FE4  0E40               	movlw	64
  2130  002FE6  6F85               	movwf	(___fleq@ff2+1)& (0+255),b
  2131  002FE8  0E1C               	movlw	28
  2132  002FEA  6F86               	movwf	(___fleq@ff2+2)& (0+255),b
  2133  002FEC  0E45               	movlw	69
  2134  002FEE  6F87               	movwf	(___fleq@ff2+3)& (0+255),b
  2135  002FF0  ECD3  F020         	call	___fleq	;wreg free
  2136  002FF4  0100               	movlb	0	; () banked
  2137  002FF6  A0D8               	btfss	status,0,c
  2138  002FF8  EF00  F018         	goto	u8931
  2139  002FFC  EF02  F018         	goto	u8930
  2140  003000                     u8931:
  2141  003000  EF07  F018         	goto	l93
  2142  003004                     u8930:
  2143  003004                     
  2144                           ; BSR set to: 0
  2145                           ;Program_Interrupt_Level.c: 235:         {;Program_Interrupt_Level.c: 236:             P
      +                          ORTCbits.RC3 = 0;
  2146  003004  9682               	bcf	130,3,c	;volatile
  2147                           
  2148                           ;Program_Interrupt_Level.c: 237:             PORTCbits.RC4 = 0;
  2149  003006  9882               	bcf	130,4,c	;volatile
  2150                           
  2151                           ;Program_Interrupt_Level.c: 238:             PORTCbits.RC5 = 1;
  2152  003008  8A82               	bsf	130,5,c	;volatile
  2153  00300A  EFE2  F017         	goto	l6516
  2154  00300E                     l93:
  2155  00300E                     l99:
  2156  00300E  0012               	return		;funcret
  2157  003010                     __end_of_control_LOW:
  2158                           	callstack 0
  2159                           
  2160 ;; *************** function _control_HIGH *****************
  2161 ;; Defined at:
  2162 ;;		line 132 in file "Program_Interrupt_Level.c"
  2163 ;; Parameters:    Size  Location     Type
  2164 ;;		None
  2165 ;; Auto vars:     Size  Location     Type
  2166 ;;		None
  2167 ;; Return value:  Size  Location     Type
  2168 ;;                  1    wreg      void 
  2169 ;; Registers used:
  2170 ;;		wreg, status,2, status,0, cstack
  2171 ;; Tracked objects:
  2172 ;;		On entry : 0/0
  2173 ;;		On exit  : 0/0
  2174 ;;		Unchanged: 0/0
  2175 ;; Data sizes:     COMRAM   BANK0   BANK1   BANK2   BANK3   BANK4   BANK5
  2176 ;;      Params:         0       0       0       0       0       0       0
  2177 ;;      Locals:         0       0       0       0       0       0       0
  2178 ;;      Temps:          0       0       0       0       0       0       0
  2179 ;;      Totals:         0       0       0       0       0       0       0
  2180 ;;Total ram usage:        0 bytes
  2181 ;; Hardware stack levels used: 1
  2182 ;; Hardware stack levels required when called: 6
  2183 ;; This function calls:
  2184 ;;		___fleq
  2185 ;;		___flge
  2186 ;; This function is called by:
  2187 ;;		_main
  2188 ;; This function uses a non-reentrant model
  2189 ;;
  2190                           
  2191                           	psect	text6
  2192  002B12                     __ptext6:
  2193                           	callstack 0
  2194  002B12                     _control_HIGH:
  2195                           	callstack 24
  2196  002B12                     
  2197                           ;Program_Interrupt_Level.c: 134:     if(Level_Loop == 0)
  2198  002B12  504A               	movf	_Level_Loop^0,w,c
  2199  002B14  104B               	iorwf	(_Level_Loop+1)^0,w,c
  2200  002B16  A4D8               	btfss	status,2,c
  2201  002B18  EF90  F015         	goto	u8721
  2202  002B1C  EF92  F015         	goto	u8720
  2203  002B20                     u8721:
  2204  002B20  EFCF  F016         	goto	l84
  2205  002B24                     u8720:
  2206  002B24                     
  2207                           ;Program_Interrupt_Level.c: 135:     {;Program_Interrupt_Level.c: 136:         if(Level_
      +                          AN0 == 0)
  2208  002B24  C0F9  F080         	movff	_Level_AN0,___fleq@ff1
  2209  002B28  C0FA  F081         	movff	_Level_AN0+1,___fleq@ff1+1
  2210  002B2C  C0FB  F082         	movff	_Level_AN0+2,___fleq@ff1+2
  2211  002B30  C0FC  F083         	movff	_Level_AN0+3,___fleq@ff1+3
  2212  002B34  0E00               	movlw	0
  2213  002B36  0100               	movlb	0	; () banked
  2214  002B38  6F84               	movwf	___fleq@ff2& (0+255),b
  2215  002B3A  0E00               	movlw	0
  2216  002B3C  6F85               	movwf	(___fleq@ff2+1)& (0+255),b
  2217  002B3E  0E00               	movlw	0
  2218  002B40  6F86               	movwf	(___fleq@ff2+2)& (0+255),b
  2219  002B42  0E00               	movlw	0
  2220  002B44  6F87               	movwf	(___fleq@ff2+3)& (0+255),b
  2221  002B46  ECD3  F020         	call	___fleq	;wreg free
  2222  002B4A  0100               	movlb	0	; () banked
  2223  002B4C  A0D8               	btfss	status,0,c
  2224  002B4E  EFAB  F015         	goto	u8731
  2225  002B52  EFAD  F015         	goto	u8730
  2226  002B56                     u8731:
  2227  002B56  EFB9  F015         	goto	l6452
  2228  002B5A                     u8730:
  2229  002B5A                     
  2230                           ; BSR set to: 0
  2231                           ;Program_Interrupt_Level.c: 137:         {;Program_Interrupt_Level.c: 138:             P
      +                          ORTCbits.RC0 = 1;
  2232  002B5A  8082               	bsf	130,0,c	;volatile
  2233                           
  2234                           ;Program_Interrupt_Level.c: 139:             PORTCbits.RC1 = 1;
  2235  002B5C  8282               	bsf	130,1,c	;volatile
  2236                           
  2237                           ;Program_Interrupt_Level.c: 140:             PORTCbits.RC2 = 0;
  2238  002B5E  9482               	bcf	130,2,c	;volatile
  2239                           
  2240                           ;Program_Interrupt_Level.c: 141:             PORTCbits.RC3 = 1;
  2241  002B60  8682               	bsf	130,3,c	;volatile
  2242                           
  2243                           ;Program_Interrupt_Level.c: 142:             PORTCbits.RC4 = 0;
  2244  002B62  9882               	bcf	130,4,c	;volatile
  2245                           
  2246                           ;Program_Interrupt_Level.c: 143:             PORTCbits.RC5 = 0;
  2247  002B64  9A82               	bcf	130,5,c	;volatile
  2248  002B66                     
  2249                           ; BSR set to: 0
  2250                           ;Program_Interrupt_Level.c: 144:             Level_Loop = 0;
  2251  002B66  0E00               	movlw	0
  2252  002B68  6E4B               	movwf	(_Level_Loop+1)^0,c
  2253  002B6A  0E00               	movlw	0
  2254  002B6C  6E4A               	movwf	_Level_Loop^0,c
  2255                           
  2256                           ;Program_Interrupt_Level.c: 145:         }
  2257  002B6E  EFCF  F016         	goto	l84
  2258  002B72                     l6452:
  2259                           
  2260                           ; BSR set to: 0
  2261  002B72  0E00               	movlw	0
  2262  002B74  6FA3               	movwf	___flge@ff1& (0+255),b
  2263  002B76  0E00               	movlw	0
  2264  002B78  6FA4               	movwf	(___flge@ff1+1)& (0+255),b
  2265  002B7A  0E00               	movlw	0
  2266  002B7C  6FA5               	movwf	(___flge@ff1+2)& (0+255),b
  2267  002B7E  0E00               	movlw	0
  2268  002B80  6FA6               	movwf	(___flge@ff1+3)& (0+255),b
  2269  002B82  C0F9  F0A7         	movff	_Level_AN0,___flge@ff2
  2270  002B86  C0FA  F0A8         	movff	_Level_AN0+1,___flge@ff2+1
  2271  002B8A  C0FB  F0A9         	movff	_Level_AN0+2,___flge@ff2+2
  2272  002B8E  C0FC  F0AA         	movff	_Level_AN0+3,___flge@ff2+3
  2273  002B92  ECFA  F01B         	call	___flge	;wreg free
  2274  002B96  0100               	movlb	0	; () banked
  2275  002B98  B0D8               	btfsc	status,0,c
  2276  002B9A  EFD1  F015         	goto	u8741
  2277  002B9E  EFD3  F015         	goto	u8740
  2278  002BA2                     u8741:
  2279  002BA2  EFF5  F015         	goto	l6458
  2280  002BA6                     u8740:
  2281  002BA6                     
  2282                           ; BSR set to: 0
  2283  002BA6  0E00               	movlw	0
  2284  002BA8  6FA3               	movwf	___flge@ff1& (0+255),b
  2285  002BAA  0E40               	movlw	64
  2286  002BAC  6FA4               	movwf	(___flge@ff1+1)& (0+255),b
  2287  002BAE  0E1C               	movlw	28
  2288  002BB0  6FA5               	movwf	(___flge@ff1+2)& (0+255),b
  2289  002BB2  0E44               	movlw	68
  2290  002BB4  6FA6               	movwf	(___flge@ff1+3)& (0+255),b
  2291  002BB6  C0F9  F0A7         	movff	_Level_AN0,___flge@ff2
  2292  002BBA  C0FA  F0A8         	movff	_Level_AN0+1,___flge@ff2+1
  2293  002BBE  C0FB  F0A9         	movff	_Level_AN0+2,___flge@ff2+2
  2294  002BC2  C0FC  F0AA         	movff	_Level_AN0+3,___flge@ff2+3
  2295  002BC6  ECFA  F01B         	call	___flge	;wreg free
  2296  002BCA  0100               	movlb	0	; () banked
  2297  002BCC  A0D8               	btfss	status,0,c
  2298  002BCE  EFEB  F015         	goto	u8751
  2299  002BD2  EFED  F015         	goto	u8750
  2300  002BD6                     u8751:
  2301  002BD6  EFF5  F015         	goto	l6458
  2302  002BDA                     u8750:
  2303  002BDA                     
  2304                           ; BSR set to: 0
  2305                           ;Program_Interrupt_Level.c: 147:         {;Program_Interrupt_Level.c: 148:             P
      +                          ORTCbits.RC0 = 1;
  2306  002BDA  8082               	bsf	130,0,c	;volatile
  2307                           
  2308                           ;Program_Interrupt_Level.c: 149:             PORTCbits.RC1 = 1;
  2309  002BDC  8282               	bsf	130,1,c	;volatile
  2310                           
  2311                           ;Program_Interrupt_Level.c: 150:             PORTCbits.RC2 = 0;
  2312  002BDE  9482               	bcf	130,2,c	;volatile
  2313                           
  2314                           ;Program_Interrupt_Level.c: 151:             PORTCbits.RC3 = 1;
  2315  002BE0  8682               	bsf	130,3,c	;volatile
  2316                           
  2317                           ;Program_Interrupt_Level.c: 152:             PORTCbits.RC4 = 0;
  2318  002BE2  9882               	bcf	130,4,c	;volatile
  2319                           
  2320                           ;Program_Interrupt_Level.c: 153:             PORTCbits.RC5 = 0;
  2321  002BE4  9A82               	bcf	130,5,c	;volatile
  2322                           
  2323                           ;Program_Interrupt_Level.c: 154:         }
  2324  002BE6  EFCF  F016         	goto	l84
  2325  002BEA                     l6458:
  2326                           
  2327                           ; BSR set to: 0
  2328  002BEA  0E00               	movlw	0
  2329  002BEC  6FA3               	movwf	___flge@ff1& (0+255),b
  2330  002BEE  0E40               	movlw	64
  2331  002BF0  6FA4               	movwf	(___flge@ff1+1)& (0+255),b
  2332  002BF2  0E1C               	movlw	28
  2333  002BF4  6FA5               	movwf	(___flge@ff1+2)& (0+255),b
  2334  002BF6  0E44               	movlw	68
  2335  002BF8  6FA6               	movwf	(___flge@ff1+3)& (0+255),b
  2336  002BFA  C0F9  F0A7         	movff	_Level_AN0,___flge@ff2
  2337  002BFE  C0FA  F0A8         	movff	_Level_AN0+1,___flge@ff2+1
  2338  002C02  C0FB  F0A9         	movff	_Level_AN0+2,___flge@ff2+2
  2339  002C06  C0FC  F0AA         	movff	_Level_AN0+3,___flge@ff2+3
  2340  002C0A  ECFA  F01B         	call	___flge	;wreg free
  2341  002C0E  0100               	movlb	0	; () banked
  2342  002C10  B0D8               	btfsc	status,0,c
  2343  002C12  EF0D  F016         	goto	u8761
  2344  002C16  EF0F  F016         	goto	u8760
  2345  002C1A                     u8761:
  2346  002C1A  EF31  F016         	goto	l6464
  2347  002C1E                     u8760:
  2348  002C1E                     
  2349                           ; BSR set to: 0
  2350  002C1E  0E00               	movlw	0
  2351  002C20  6FA3               	movwf	___flge@ff1& (0+255),b
  2352  002C22  0E40               	movlw	64
  2353  002C24  6FA4               	movwf	(___flge@ff1+1)& (0+255),b
  2354  002C26  0E9C               	movlw	156
  2355  002C28  6FA5               	movwf	(___flge@ff1+2)& (0+255),b
  2356  002C2A  0E44               	movlw	68
  2357  002C2C  6FA6               	movwf	(___flge@ff1+3)& (0+255),b
  2358  002C2E  C0F9  F0A7         	movff	_Level_AN0,___flge@ff2
  2359  002C32  C0FA  F0A8         	movff	_Level_AN0+1,___flge@ff2+1
  2360  002C36  C0FB  F0A9         	movff	_Level_AN0+2,___flge@ff2+2
  2361  002C3A  C0FC  F0AA         	movff	_Level_AN0+3,___flge@ff2+3
  2362  002C3E  ECFA  F01B         	call	___flge	;wreg free
  2363  002C42  0100               	movlb	0	; () banked
  2364  002C44  A0D8               	btfss	status,0,c
  2365  002C46  EF27  F016         	goto	u8771
  2366  002C4A  EF29  F016         	goto	u8770
  2367  002C4E                     u8771:
  2368  002C4E  EF31  F016         	goto	l6464
  2369  002C52                     u8770:
  2370  002C52                     
  2371                           ; BSR set to: 0
  2372                           ;Program_Interrupt_Level.c: 156:         {;Program_Interrupt_Level.c: 157:             P
      +                          ORTCbits.RC0 = 1;
  2373  002C52  8082               	bsf	130,0,c	;volatile
  2374                           
  2375                           ;Program_Interrupt_Level.c: 158:             PORTCbits.RC1 = 1;
  2376  002C54  8282               	bsf	130,1,c	;volatile
  2377                           
  2378                           ;Program_Interrupt_Level.c: 159:             PORTCbits.RC2 = 0;
  2379  002C56  9482               	bcf	130,2,c	;volatile
  2380                           
  2381                           ;Program_Interrupt_Level.c: 160:             PORTCbits.RC3 = 1;
  2382  002C58  8682               	bsf	130,3,c	;volatile
  2383                           
  2384                           ;Program_Interrupt_Level.c: 161:             PORTCbits.RC4 = 1;
  2385  002C5A  8882               	bsf	130,4,c	;volatile
  2386                           
  2387                           ;Program_Interrupt_Level.c: 162:             PORTCbits.RC5 = 0;
  2388  002C5C  9A82               	bcf	130,5,c	;volatile
  2389                           
  2390                           ;Program_Interrupt_Level.c: 163:         }
  2391  002C5E  EFCF  F016         	goto	l84
  2392  002C62                     l6464:
  2393                           
  2394                           ; BSR set to: 0
  2395  002C62  0E00               	movlw	0
  2396  002C64  6FA3               	movwf	___flge@ff1& (0+255),b
  2397  002C66  0E40               	movlw	64
  2398  002C68  6FA4               	movwf	(___flge@ff1+1)& (0+255),b
  2399  002C6A  0E9C               	movlw	156
  2400  002C6C  6FA5               	movwf	(___flge@ff1+2)& (0+255),b
  2401  002C6E  0E44               	movlw	68
  2402  002C70  6FA6               	movwf	(___flge@ff1+3)& (0+255),b
  2403  002C72  C0F9  F0A7         	movff	_Level_AN0,___flge@ff2
  2404  002C76  C0FA  F0A8         	movff	_Level_AN0+1,___flge@ff2+1
  2405  002C7A  C0FB  F0A9         	movff	_Level_AN0+2,___flge@ff2+2
  2406  002C7E  C0FC  F0AA         	movff	_Level_AN0+3,___flge@ff2+3
  2407  002C82  ECFA  F01B         	call	___flge	;wreg free
  2408  002C86  0100               	movlb	0	; () banked
  2409  002C88  B0D8               	btfsc	status,0,c
  2410  002C8A  EF49  F016         	goto	u8781
  2411  002C8E  EF4B  F016         	goto	u8780
  2412  002C92                     u8781:
  2413  002C92  EF6D  F016         	goto	l6470
  2414  002C96                     u8780:
  2415  002C96                     
  2416                           ; BSR set to: 0
  2417  002C96  0E00               	movlw	0
  2418  002C98  6FA3               	movwf	___flge@ff1& (0+255),b
  2419  002C9A  0E60               	movlw	96
  2420  002C9C  6FA4               	movwf	(___flge@ff1+1)& (0+255),b
  2421  002C9E  0EEA               	movlw	234
  2422  002CA0  6FA5               	movwf	(___flge@ff1+2)& (0+255),b
  2423  002CA2  0E44               	movlw	68
  2424  002CA4  6FA6               	movwf	(___flge@ff1+3)& (0+255),b
  2425  002CA6  C0F9  F0A7         	movff	_Level_AN0,___flge@ff2
  2426  002CAA  C0FA  F0A8         	movff	_Level_AN0+1,___flge@ff2+1
  2427  002CAE  C0FB  F0A9         	movff	_Level_AN0+2,___flge@ff2+2
  2428  002CB2  C0FC  F0AA         	movff	_Level_AN0+3,___flge@ff2+3
  2429  002CB6  ECFA  F01B         	call	___flge	;wreg free
  2430  002CBA  0100               	movlb	0	; () banked
  2431  002CBC  A0D8               	btfss	status,0,c
  2432  002CBE  EF63  F016         	goto	u8791
  2433  002CC2  EF65  F016         	goto	u8790
  2434  002CC6                     u8791:
  2435  002CC6  EF6D  F016         	goto	l6470
  2436  002CCA                     u8790:
  2437  002CCA                     
  2438                           ; BSR set to: 0
  2439                           ;Program_Interrupt_Level.c: 165:         {;Program_Interrupt_Level.c: 166:             P
      +                          ORTCbits.RC0 = 1;
  2440  002CCA  8082               	bsf	130,0,c	;volatile
  2441                           
  2442                           ;Program_Interrupt_Level.c: 167:             PORTCbits.RC1 = 1;
  2443  002CCC  8282               	bsf	130,1,c	;volatile
  2444                           
  2445                           ;Program_Interrupt_Level.c: 168:             PORTCbits.RC2 = 1;
  2446  002CCE  8482               	bsf	130,2,c	;volatile
  2447                           
  2448                           ;Program_Interrupt_Level.c: 169:             PORTCbits.RC3 = 0;
  2449  002CD0  9682               	bcf	130,3,c	;volatile
  2450                           
  2451                           ;Program_Interrupt_Level.c: 170:             PORTCbits.RC4 = 1;
  2452  002CD2  8882               	bsf	130,4,c	;volatile
  2453                           
  2454                           ;Program_Interrupt_Level.c: 171:             PORTCbits.RC5 = 1;
  2455  002CD4  8A82               	bsf	130,5,c	;volatile
  2456                           
  2457                           ;Program_Interrupt_Level.c: 172:         }
  2458  002CD6  EFCF  F016         	goto	l84
  2459  002CDA                     l6470:
  2460                           
  2461                           ; BSR set to: 0
  2462  002CDA  0E00               	movlw	0
  2463  002CDC  6FA3               	movwf	___flge@ff1& (0+255),b
  2464  002CDE  0E60               	movlw	96
  2465  002CE0  6FA4               	movwf	(___flge@ff1+1)& (0+255),b
  2466  002CE2  0EEA               	movlw	234
  2467  002CE4  6FA5               	movwf	(___flge@ff1+2)& (0+255),b
  2468  002CE6  0E44               	movlw	68
  2469  002CE8  6FA6               	movwf	(___flge@ff1+3)& (0+255),b
  2470  002CEA  C0F9  F0A7         	movff	_Level_AN0,___flge@ff2
  2471  002CEE  C0FA  F0A8         	movff	_Level_AN0+1,___flge@ff2+1
  2472  002CF2  C0FB  F0A9         	movff	_Level_AN0+2,___flge@ff2+2
  2473  002CF6  C0FC  F0AA         	movff	_Level_AN0+3,___flge@ff2+3
  2474  002CFA  ECFA  F01B         	call	___flge	;wreg free
  2475  002CFE  0100               	movlb	0	; () banked
  2476  002D00  B0D8               	btfsc	status,0,c
  2477  002D02  EF85  F016         	goto	u8801
  2478  002D06  EF87  F016         	goto	u8800
  2479  002D0A                     u8801:
  2480  002D0A  EFA9  F016         	goto	l6476
  2481  002D0E                     u8800:
  2482  002D0E                     
  2483                           ; BSR set to: 0
  2484  002D0E  C0F9  F0A3         	movff	_Level_AN0,___flge@ff1
  2485  002D12  C0FA  F0A4         	movff	_Level_AN0+1,___flge@ff1+1
  2486  002D16  C0FB  F0A5         	movff	_Level_AN0+2,___flge@ff1+2
  2487  002D1A  C0FC  F0A6         	movff	_Level_AN0+3,___flge@ff1+3
  2488  002D1E  0E00               	movlw	0
  2489  002D20  6FA7               	movwf	___flge@ff2& (0+255),b
  2490  002D22  0E40               	movlw	64
  2491  002D24  6FA8               	movwf	(___flge@ff2+1)& (0+255),b
  2492  002D26  0E1C               	movlw	28
  2493  002D28  6FA9               	movwf	(___flge@ff2+2)& (0+255),b
  2494  002D2A  0E45               	movlw	69
  2495  002D2C  6FAA               	movwf	(___flge@ff2+3)& (0+255),b
  2496  002D2E  ECFA  F01B         	call	___flge	;wreg free
  2497  002D32  0100               	movlb	0	; () banked
  2498  002D34  B0D8               	btfsc	status,0,c
  2499  002D36  EF9F  F016         	goto	u8811
  2500  002D3A  EFA1  F016         	goto	u8810
  2501  002D3E                     u8811:
  2502  002D3E  EFA9  F016         	goto	l6476
  2503  002D42                     u8810:
  2504  002D42                     
  2505                           ; BSR set to: 0
  2506                           ;Program_Interrupt_Level.c: 174:         {;Program_Interrupt_Level.c: 175:             P
      +                          ORTCbits.RC0 = 0;
  2507  002D42  9082               	bcf	130,0,c	;volatile
  2508                           
  2509                           ;Program_Interrupt_Level.c: 176:             PORTCbits.RC1 = 0;
  2510  002D44  9282               	bcf	130,1,c	;volatile
  2511                           
  2512                           ;Program_Interrupt_Level.c: 177:             PORTCbits.RC2 = 1;
  2513  002D46  8482               	bsf	130,2,c	;volatile
  2514                           
  2515                           ;Program_Interrupt_Level.c: 178:             PORTCbits.RC3 = 0;
  2516  002D48  9682               	bcf	130,3,c	;volatile
  2517                           
  2518                           ;Program_Interrupt_Level.c: 179:             PORTCbits.RC4 = 0;
  2519  002D4A  9882               	bcf	130,4,c	;volatile
  2520                           
  2521                           ;Program_Interrupt_Level.c: 180:             PORTCbits.RC5 = 1;
  2522  002D4C  8A82               	bsf	130,5,c	;volatile
  2523                           
  2524                           ;Program_Interrupt_Level.c: 181:         }
  2525  002D4E  EFCF  F016         	goto	l84
  2526  002D52                     l6476:
  2527                           
  2528                           ; BSR set to: 0
  2529  002D52  C0F9  F080         	movff	_Level_AN0,___fleq@ff1
  2530  002D56  C0FA  F081         	movff	_Level_AN0+1,___fleq@ff1+1
  2531  002D5A  C0FB  F082         	movff	_Level_AN0+2,___fleq@ff1+2
  2532  002D5E  C0FC  F083         	movff	_Level_AN0+3,___fleq@ff1+3
  2533  002D62  0E00               	movlw	0
  2534  002D64  6F84               	movwf	___fleq@ff2& (0+255),b
  2535  002D66  0E40               	movlw	64
  2536  002D68  6F85               	movwf	(___fleq@ff2+1)& (0+255),b
  2537  002D6A  0E1C               	movlw	28
  2538  002D6C  6F86               	movwf	(___fleq@ff2+2)& (0+255),b
  2539  002D6E  0E45               	movlw	69
  2540  002D70  6F87               	movwf	(___fleq@ff2+3)& (0+255),b
  2541  002D72  ECD3  F020         	call	___fleq	;wreg free
  2542  002D76  0100               	movlb	0	; () banked
  2543  002D78  A0D8               	btfss	status,0,c
  2544  002D7A  EFC1  F016         	goto	u8821
  2545  002D7E  EFC3  F016         	goto	u8820
  2546  002D82                     u8821:
  2547  002D82  EFCF  F016         	goto	l78
  2548  002D86                     u8820:
  2549  002D86                     
  2550                           ; BSR set to: 0
  2551                           ;Program_Interrupt_Level.c: 183:         {;Program_Interrupt_Level.c: 184:             P
      +                          ORTCbits.RC0 = 0;
  2552  002D86  9082               	bcf	130,0,c	;volatile
  2553                           
  2554                           ;Program_Interrupt_Level.c: 185:             PORTCbits.RC1 = 0;
  2555  002D88  9282               	bcf	130,1,c	;volatile
  2556                           
  2557                           ;Program_Interrupt_Level.c: 186:             PORTCbits.RC2 = 1;
  2558  002D8A  8482               	bsf	130,2,c	;volatile
  2559                           
  2560                           ;Program_Interrupt_Level.c: 187:             PORTCbits.RC3 = 0;
  2561  002D8C  9682               	bcf	130,3,c	;volatile
  2562                           
  2563                           ;Program_Interrupt_Level.c: 188:             PORTCbits.RC4 = 0;
  2564  002D8E  9882               	bcf	130,4,c	;volatile
  2565                           
  2566                           ;Program_Interrupt_Level.c: 189:             PORTCbits.RC5 = 1;
  2567  002D90  8A82               	bsf	130,5,c	;volatile
  2568  002D92                     
  2569                           ; BSR set to: 0
  2570                           ;Program_Interrupt_Level.c: 190:             Level_Loop = 1;
  2571  002D92  0E00               	movlw	0
  2572  002D94  6E4B               	movwf	(_Level_Loop+1)^0,c
  2573  002D96  0E01               	movlw	1
  2574  002D98  6E4A               	movwf	_Level_Loop^0,c
  2575  002D9A  EFCF  F016         	goto	l84
  2576  002D9E                     l78:
  2577  002D9E                     l84:
  2578  002D9E  0012               	return		;funcret
  2579  002DA0                     __end_of_control_HIGH:
  2580                           	callstack 0
  2581                           
  2582 ;; *************** function _config_Interrupt *****************
  2583 ;; Defined at:
  2584 ;;		line 244 in file "Program_Interrupt_Level.c"
  2585 ;; Parameters:    Size  Location     Type
  2586 ;;		None
  2587 ;; Auto vars:     Size  Location     Type
  2588 ;;		None
  2589 ;; Return value:  Size  Location     Type
  2590 ;;                  1    wreg      void 
  2591 ;; Registers used:
  2592 ;;		wreg, status,2
  2593 ;; Tracked objects:
  2594 ;;		On entry : 0/0
  2595 ;;		On exit  : 0/0
  2596 ;;		Unchanged: 0/0
  2597 ;; Data sizes:     COMRAM   BANK0   BANK1   BANK2   BANK3   BANK4   BANK5
  2598 ;;      Params:         0       0       0       0       0       0       0
  2599 ;;      Locals:         0       0       0       0       0       0       0
  2600 ;;      Temps:          0       0       0       0       0       0       0
  2601 ;;      Totals:         0       0       0       0       0       0       0
  2602 ;;Total ram usage:        0 bytes
  2603 ;; Hardware stack levels used: 1
  2604 ;; Hardware stack levels required when called: 5
  2605 ;; This function calls:
  2606 ;;		Nothing
  2607 ;; This function is called by:
  2608 ;;		_main
  2609 ;; This function uses a non-reentrant model
  2610 ;;
  2611                           
  2612                           	psect	text7
  2613  004A3C                     __ptext7:
  2614                           	callstack 0
  2615  004A3C                     _config_Interrupt:
  2616                           	callstack 25
  2617  004A3C                     
  2618                           ;Program_Interrupt_Level.c: 246:     INTCON = 0X90;
  2619  004A3C  0E90               	movlw	144
  2620  004A3E  6EF2               	movwf	242,c	;volatile
  2621                           
  2622                           ;Program_Interrupt_Level.c: 247:     INTCON2 = 0XC0;
  2623  004A40  0EC0               	movlw	192
  2624  004A42  6EF1               	movwf	241,c	;volatile
  2625  004A44  0012               	return		;funcret
  2626  004A46                     __end_of_config_Interrupt:
  2627                           	callstack 0
  2628                           
  2629 ;; *************** function _config_IO *****************
  2630 ;; Defined at:
  2631 ;;		line 90 in file "Program_Interrupt_Level.c"
  2632 ;; Parameters:    Size  Location     Type
  2633 ;;		None
  2634 ;; Auto vars:     Size  Location     Type
  2635 ;;		None
  2636 ;; Return value:  Size  Location     Type
  2637 ;;                  1    wreg      void 
  2638 ;; Registers used:
  2639 ;;		wreg, status,2
  2640 ;; Tracked objects:
  2641 ;;		On entry : 0/0
  2642 ;;		On exit  : 0/0
  2643 ;;		Unchanged: 0/0
  2644 ;; Data sizes:     COMRAM   BANK0   BANK1   BANK2   BANK3   BANK4   BANK5
  2645 ;;      Params:         0       0       0       0       0       0       0
  2646 ;;      Locals:         0       0       0       0       0       0       0
  2647 ;;      Temps:          0       0       0       0       0       0       0
  2648 ;;      Totals:         0       0       0       0       0       0       0
  2649 ;;Total ram usage:        0 bytes
  2650 ;; Hardware stack levels used: 1
  2651 ;; Hardware stack levels required when called: 5
  2652 ;; This function calls:
  2653 ;;		Nothing
  2654 ;; This function is called by:
  2655 ;;		_main
  2656 ;; This function uses a non-reentrant model
  2657 ;;
  2658                           
  2659                           	psect	text8
  2660  004A46                     __ptext8:
  2661                           	callstack 0
  2662  004A46                     _config_IO:
  2663                           	callstack 25
  2664  004A46                     
  2665                           ;Program_Interrupt_Level.c: 92:     TRISB = 0X01;
  2666  004A46  0E01               	movlw	1
  2667  004A48  6E93               	movwf	147,c	;volatile
  2668                           
  2669                           ;Program_Interrupt_Level.c: 93:     TRISC = 0X00;
  2670  004A4A  0E00               	movlw	0
  2671  004A4C  6E94               	movwf	148,c	;volatile
  2672  004A4E  0012               	return		;funcret
  2673  004A50                     __end_of_config_IO:
  2674                           	callstack 0
  2675                           
  2676 ;; *************** function _config_FOSC *****************
  2677 ;; Defined at:
  2678 ;;		line 84 in file "Program_Interrupt_Level.c"
  2679 ;; Parameters:    Size  Location     Type
  2680 ;;		None
  2681 ;; Auto vars:     Size  Location     Type
  2682 ;;		None
  2683 ;; Return value:  Size  Location     Type
  2684 ;;                  1    wreg      void 
  2685 ;; Registers used:
  2686 ;;		wreg, status,2
  2687 ;; Tracked objects:
  2688 ;;		On entry : 0/0
  2689 ;;		On exit  : 0/0
  2690 ;;		Unchanged: 0/0
  2691 ;; Data sizes:     COMRAM   BANK0   BANK1   BANK2   BANK3   BANK4   BANK5
  2692 ;;      Params:         0       0       0       0       0       0       0
  2693 ;;      Locals:         0       0       0       0       0       0       0
  2694 ;;      Temps:          0       0       0       0       0       0       0
  2695 ;;      Totals:         0       0       0       0       0       0       0
  2696 ;;Total ram usage:        0 bytes
  2697 ;; Hardware stack levels used: 1
  2698 ;; Hardware stack levels required when called: 5
  2699 ;; This function calls:
  2700 ;;		Nothing
  2701 ;; This function is called by:
  2702 ;;		_main
  2703 ;; This function uses a non-reentrant model
  2704 ;;
  2705                           
  2706                           	psect	text9
  2707  004A50                     __ptext9:
  2708                           	callstack 0
  2709  004A50                     _config_FOSC:
  2710                           	callstack 25
  2711  004A50                     
  2712                           ;Program_Interrupt_Level.c: 86:     OSCCON = 0X00;
  2713  004A50  0E00               	movlw	0
  2714  004A52  6ED3               	movwf	211,c	;volatile
  2715                           
  2716                           ;Program_Interrupt_Level.c: 87:     OSCTUNE = 0X00;
  2717  004A54  0E00               	movlw	0
  2718  004A56  6E9B               	movwf	155,c	;volatile
  2719  004A58  0012               	return		;funcret
  2720  004A5A                     __end_of_config_FOSC:
  2721                           	callstack 0
  2722                           
  2723 ;; *************** function _config_ADC *****************
  2724 ;; Defined at:
  2725 ;;		line 96 in file "Program_Interrupt_Level.c"
  2726 ;; Parameters:    Size  Location     Type
  2727 ;;		None
  2728 ;; Auto vars:     Size  Location     Type
  2729 ;;		None
  2730 ;; Return value:  Size  Location     Type
  2731 ;;                  1    wreg      void 
  2732 ;; Registers used:
  2733 ;;		wreg, status,2
  2734 ;; Tracked objects:
  2735 ;;		On entry : 0/0
  2736 ;;		On exit  : 0/0
  2737 ;;		Unchanged: 0/0
  2738 ;; Data sizes:     COMRAM   BANK0   BANK1   BANK2   BANK3   BANK4   BANK5
  2739 ;;      Params:         0       0       0       0       0       0       0
  2740 ;;      Locals:         0       0       0       0       0       0       0
  2741 ;;      Temps:          0       0       0       0       0       0       0
  2742 ;;      Totals:         0       0       0       0       0       0       0
  2743 ;;Total ram usage:        0 bytes
  2744 ;; Hardware stack levels used: 1
  2745 ;; Hardware stack levels required when called: 5
  2746 ;; This function calls:
  2747 ;;		Nothing
  2748 ;; This function is called by:
  2749 ;;		_main
  2750 ;; This function uses a non-reentrant model
  2751 ;;
  2752                           
  2753                           	psect	text10
  2754  004A2E                     __ptext10:
  2755                           	callstack 0
  2756  004A2E                     _config_ADC:
  2757                           	callstack 25
  2758  004A2E                     
  2759                           ;Program_Interrupt_Level.c: 98:     ADCON0 = 0X01;
  2760  004A2E  0E01               	movlw	1
  2761  004A30  6EC2               	movwf	194,c	;volatile
  2762                           
  2763                           ;Program_Interrupt_Level.c: 99:     ADCON1 = 0X0E;
  2764  004A32  0E0E               	movlw	14
  2765  004A34  6EC1               	movwf	193,c	;volatile
  2766                           
  2767                           ;Program_Interrupt_Level.c: 100:     ADCON2 = 0X80;
  2768  004A36  0E80               	movlw	128
  2769  004A38  6EC0               	movwf	192,c	;volatile
  2770  004A3A  0012               	return		;funcret
  2771  004A3C                     __end_of_config_ADC:
  2772                           	callstack 0
  2773                           
  2774 ;; *************** function _Lcd_Print *****************
  2775 ;; Defined at:
  2776 ;;		line 118 in file "Program_Interrupt_Level.c"
  2777 ;; Parameters:    Size  Location     Type
  2778 ;;		None
  2779 ;; Auto vars:     Size  Location     Type
  2780 ;;		None
  2781 ;; Return value:  Size  Location     Type
  2782 ;;                  1    wreg      void 
  2783 ;; Registers used:
  2784 ;;		wreg, fsr1l, fsr1h, fsr2l, fsr2h, status,2, status,0, tblptrl, tblptrh, tblptru, prodl, prodh, cstack
  2785 ;; Tracked objects:
  2786 ;;		On entry : 0/0
  2787 ;;		On exit  : 0/0
  2788 ;;		Unchanged: 0/0
  2789 ;; Data sizes:     COMRAM   BANK0   BANK1   BANK2   BANK3   BANK4   BANK5
  2790 ;;      Params:         0       0       0       0       0       0       0
  2791 ;;      Locals:         0       0       0       0       0       0       0
  2792 ;;      Temps:          0       0       0       0       0       0       0
  2793 ;;      Totals:         0       0       0       0       0       0       0
  2794 ;;Total ram usage:        0 bytes
  2795 ;; Hardware stack levels used: 1
  2796 ;; Hardware stack levels required when called: 13
  2797 ;; This function calls:
  2798 ;;		_lcd_write
  2799 ;;		_sprintf
  2800 ;; This function is called by:
  2801 ;;		_main
  2802 ;; This function uses a non-reentrant model
  2803 ;;
  2804                           
  2805                           	psect	text11
  2806  004532                     __ptext11:
  2807                           	callstack 0
  2808  004532                     _Lcd_Print:
  2809                           	callstack 17
  2810  004532                     
  2811                           ;Program_Interrupt_Level.c: 120:     sprintf(BufferVoltage,
  2812  004532  0E70               	movlw	low _BufferVoltage
  2813  004534  0101               	movlb	1	; () banked
  2814  004536  6F9E               	movwf	sprintf@s& (0+255),b
  2815  004538  0E01               	movlw	high _BufferVoltage
  2816  00453A  6F9F               	movwf	(sprintf@s+1)& (0+255),b
  2817  00453C  0E43               	movlw	low STR_1
  2818  00453E  6FA0               	movwf	sprintf@fmt& (0+255),b
  2819  004540  0E06               	movlw	high STR_1
  2820  004542  6FA1               	movwf	(sprintf@fmt+1)& (0+255),b
  2821  004544  C040  F1A2         	movff	_Voltage_AN0,?_sprintf+4
  2822  004548  C041  F1A3         	movff	_Voltage_AN0+1,?_sprintf+5
  2823  00454C  C042  F1A4         	movff	_Voltage_AN0+2,?_sprintf+6
  2824  004550  C043  F1A5         	movff	_Voltage_AN0+3,?_sprintf+7
  2825  004554  EC5E  F023         	call	_sprintf	;wreg free
  2826                           
  2827                           ;Program_Interrupt_Level.c: 124:     sprintf(BufferLevel,
  2828  004558  0E50               	movlw	low _BufferLevel
  2829  00455A  0101               	movlb	1	; () banked
  2830  00455C  6F9E               	movwf	sprintf@s& (0+255),b
  2831  00455E  0E01               	movlw	high _BufferLevel
  2832  004560  6F9F               	movwf	(sprintf@s+1)& (0+255),b
  2833  004562  0E33               	movlw	low STR_2
  2834  004564  6FA0               	movwf	sprintf@fmt& (0+255),b
  2835  004566  0E06               	movlw	high STR_2
  2836  004568  6FA1               	movwf	(sprintf@fmt+1)& (0+255),b
  2837  00456A  C0F9  F1A2         	movff	_Level_AN0,?_sprintf+4
  2838  00456E  C0FA  F1A3         	movff	_Level_AN0+1,?_sprintf+5
  2839  004572  C0FB  F1A4         	movff	_Level_AN0+2,?_sprintf+6
  2840  004576  C0FC  F1A5         	movff	_Level_AN0+3,?_sprintf+7
  2841  00457A  EC5E  F023         	call	_sprintf	;wreg free
  2842  00457E                     
  2843                           ;Program_Interrupt_Level.c: 128:     lcd_write(1,1,BufferLevel);
  2844  00457E  0E01               	movlw	1
  2845  004580  0100               	movlb	0	; () banked
  2846  004582  6F80               	movwf	lcd_write@col& (0+255),b
  2847  004584  0E50               	movlw	low _BufferLevel
  2848  004586  6F81               	movwf	lcd_write@str& (0+255),b
  2849  004588  0E01               	movlw	high _BufferLevel
  2850  00458A  6F82               	movwf	(lcd_write@str+1)& (0+255),b
  2851  00458C  0E01               	movlw	1
  2852  00458E  EC29  F021         	call	_lcd_write
  2853  004592                     
  2854                           ;Program_Interrupt_Level.c: 129:     lcd_write(2,1,BufferVoltage);
  2855  004592  0E01               	movlw	1
  2856  004594  0100               	movlb	0	; () banked
  2857  004596  6F80               	movwf	lcd_write@col& (0+255),b
  2858  004598  0E70               	movlw	low _BufferVoltage
  2859  00459A  6F81               	movwf	lcd_write@str& (0+255),b
  2860  00459C  0E01               	movlw	high _BufferVoltage
  2861  00459E  6F82               	movwf	(lcd_write@str+1)& (0+255),b
  2862  0045A0  0E02               	movlw	2
  2863  0045A2  EC29  F021         	call	_lcd_write
  2864  0045A6  0012               	return		;funcret
  2865  0045A8                     __end_of_Lcd_Print:
  2866                           	callstack 0
  2867                           
  2868 ;; *************** function _sprintf *****************
  2869 ;; Defined at:
  2870 ;;		line 9 in file "C:\Program Files\Microchip\xc8\v2.36\pic\sources\c99\common\nf_sprintf.c"
  2871 ;; Parameters:    Size  Location     Type
  2872 ;;  s               2   14[BANK1 ] PTR unsigned char 
  2873 ;;		 -> BufferLevel(32), BufferVoltage(32), 
  2874 ;;  fmt             2   16[BANK1 ] PTR const unsigned char 
  2875 ;;		 -> STR_2(16), STR_1(16), 
  2876 ;; Auto vars:     Size  Location     Type
  2877 ;;  f              11   24[BANK1 ] struct _IO_FILE
  2878 ;;  ap              2   22[BANK1 ] PTR void [1]
  2879 ;;		 -> ?_sprintf(2), 
  2880 ;;  ret             2    0        int 
  2881 ;; Return value:  Size  Location     Type
  2882 ;;                  2   14[BANK1 ] int 
  2883 ;; Registers used:
  2884 ;;		wreg, fsr1l, fsr1h, fsr2l, fsr2h, status,2, status,0, tblptrl, tblptrh, tblptru, prodl, prodh, cstack
  2885 ;; Tracked objects:
  2886 ;;		On entry : 0/0
  2887 ;;		On exit  : 0/0
  2888 ;;		Unchanged: 0/0
  2889 ;; Data sizes:     COMRAM   BANK0   BANK1   BANK2   BANK3   BANK4   BANK5
  2890 ;;      Params:         0       0       8       0       0       0       0
  2891 ;;      Locals:         0       0      13       0       0       0       0
  2892 ;;      Temps:          0       0       0       0       0       0       0
  2893 ;;      Totals:         0       0      21       0       0       0       0
  2894 ;;Total ram usage:       21 bytes
  2895 ;; Hardware stack levels used: 1
  2896 ;; Hardware stack levels required when called: 12
  2897 ;; This function calls:
  2898 ;;		_vfprintf
  2899 ;; This function is called by:
  2900 ;;		_Lcd_Print
  2901 ;; This function uses a non-reentrant model
  2902 ;;
  2903                           
  2904                           	psect	text12
  2905  0046BC                     __ptext12:
  2906                           	callstack 0
  2907  0046BC                     _sprintf:
  2908                           	callstack 17
  2909  0046BC  0EA2               	movlw	low (?_sprintf+4)
  2910  0046BE  0101               	movlb	1	; () banked
  2911  0046C0  6FA6               	movwf	sprintf@ap& (0+255),b
  2912  0046C2  0E01               	movlw	high (?_sprintf+4)
  2913  0046C4  6FA7               	movwf	(sprintf@ap+1)& (0+255),b
  2914  0046C6  C19E  F1A8         	movff	sprintf@s,sprintf@f
  2915  0046CA  C19F  F1A9         	movff	sprintf@s+1,sprintf@f+1
  2916  0046CE                     
  2917                           ; BSR set to: 1
  2918  0046CE  0E00               	movlw	0
  2919  0046D0  6FAC               	movwf	(sprintf@f+4)& (0+255),b
  2920  0046D2  0E00               	movlw	0
  2921  0046D4  6FAB               	movwf	(sprintf@f+3)& (0+255),b
  2922  0046D6                     
  2923                           ; BSR set to: 1
  2924  0046D6  0E00               	movlw	0
  2925  0046D8  6FB2               	movwf	(sprintf@f+10)& (0+255),b
  2926  0046DA  0E00               	movlw	0
  2927  0046DC  6FB1               	movwf	(sprintf@f+9)& (0+255),b
  2928  0046DE                     
  2929                           ; BSR set to: 1
  2930  0046DE  0EA8               	movlw	low sprintf@f
  2931  0046E0  6F98               	movwf	vfprintf@fp& (0+255),b
  2932  0046E2  0E01               	movlw	high sprintf@f
  2933  0046E4  6F99               	movwf	(vfprintf@fp+1)& (0+255),b
  2934  0046E6  C1A0  F19A         	movff	sprintf@fmt,vfprintf@fmt
  2935  0046EA  C1A1  F19B         	movff	sprintf@fmt+1,vfprintf@fmt+1
  2936  0046EE  0EA6               	movlw	low sprintf@ap
  2937  0046F0  6F9C               	movwf	vfprintf@ap& (0+255),b
  2938  0046F2  0E01               	movlw	high sprintf@ap
  2939  0046F4  6F9D               	movwf	(vfprintf@ap+1)& (0+255),b
  2940  0046F6  ECD4  F022         	call	_vfprintf	;wreg free
  2941  0046FA  0101               	movlb	1	; () banked
  2942  0046FC  51AB               	movf	(sprintf@f+3)& (0+255),w,b
  2943  0046FE  259E               	addwf	sprintf@s& (0+255),w,b
  2944  004700  6ED9               	movwf	fsr2l,c
  2945  004702  51AC               	movf	(sprintf@f+4)& (0+255),w,b
  2946  004704  219F               	addwfc	(sprintf@s+1)& (0+255),w,b
  2947  004706  6EDA               	movwf	fsr2h,c
  2948  004708  0E00               	movlw	0
  2949  00470A  6EDF               	movwf	indf2,c
  2950  00470C                     
  2951                           ; BSR set to: 1
  2952  00470C  0012               	return		;funcret
  2953  00470E                     __end_of_sprintf:
  2954                           	callstack 0
  2955                           
  2956 ;; *************** function _vfprintf *****************
  2957 ;; Defined at:
  2958 ;;		line 1390 in file "C:\Program Files\Microchip\xc8\v2.36\pic\sources\c99\common\doprnt.c"
  2959 ;; Parameters:    Size  Location     Type
  2960 ;;  fp              2    8[BANK1 ] PTR struct _IO_FILE
  2961 ;;		 -> sprintf@f(11), 
  2962 ;;  fmt             2   10[BANK1 ] PTR const unsigned char 
  2963 ;;		 -> STR_2(16), STR_1(16), 
  2964 ;;  ap              2   12[BANK1 ] PTR PTR void 
  2965 ;;		 -> sprintf@ap(2), 
  2966 ;; Auto vars:     Size  Location     Type
  2967 ;;  cfmt            2  119[BANK0 ] PTR unsigned char 
  2968 ;;		 -> STR_2(16), STR_1(16), 
  2969 ;; Return value:  Size  Location     Type
  2970 ;;                  2    8[BANK1 ] int 
  2971 ;; Registers used:
  2972 ;;		wreg, fsr1l, fsr1h, fsr2l, fsr2h, status,2, status,0, tblptrl, tblptrh, tblptru, prodl, prodh, cstack
  2973 ;; Tracked objects:
  2974 ;;		On entry : 0/0
  2975 ;;		On exit  : 0/0
  2976 ;;		Unchanged: 0/0
  2977 ;; Data sizes:     COMRAM   BANK0   BANK1   BANK2   BANK3   BANK4   BANK5
  2978 ;;      Params:         0       0       6       0       0       0       0
  2979 ;;      Locals:         0       2       0       0       0       0       0
  2980 ;;      Temps:          0       0       0       0       0       0       0
  2981 ;;      Totals:         0       2       6       0       0       0       0
  2982 ;;Total ram usage:        8 bytes
  2983 ;; Hardware stack levels used: 1
  2984 ;; Hardware stack levels required when called: 11
  2985 ;; This function calls:
  2986 ;;		_vfpfcnvrt
  2987 ;; This function is called by:
  2988 ;;		_sprintf
  2989 ;; This function uses a non-reentrant model
  2990 ;;
  2991                           
  2992                           	psect	text13
  2993  0045A8                     __ptext13:
  2994                           	callstack 0
  2995  0045A8                     _vfprintf:
  2996                           	callstack 17
  2997  0045A8                     
  2998                           ;C:\Program Files\Microchip\xc8\v2.36\pic\sources\c99\common\doprnt.c: 1390: int vfprint
      +                          f(FILE *fp, const char *fmt, va_list ap);C:\Program Files\Microchip\xc8\v2.36\pic\source
      +                          s\c99\common\doprnt.c: 1391: {;C:\Program Files\Microchip\xc8\v2.36\pic\sources\c99\comm
      +                          on\doprnt.c: 1393:     char *cfmt;;C:\Program Files\Microchip\xc8\v2.36\pic\sources\c99\
      +                          common\doprnt.c: 1395:     cfmt = (char *)fmt;
  2999  0045A8  C19A  F0F7         	movff	vfprintf@fmt,vfprintf@cfmt
  3000  0045AC  C19B  F0F8         	movff	vfprintf@fmt+1,vfprintf@cfmt+1
  3001  0045B0                     
  3002                           ;C:\Program Files\Microchip\xc8\v2.36\pic\sources\c99\common\doprnt.c: 1396:     nout = 
      +                          0;
  3003  0045B0  0E00               	movlw	0
  3004  0045B2  6E45               	movwf	(_nout+1)^0,c
  3005  0045B4  0E00               	movlw	0
  3006  0045B6  6E44               	movwf	_nout^0,c
  3007                           
  3008                           ;C:\Program Files\Microchip\xc8\v2.36\pic\sources\c99\common\doprnt.c: 1397:     while (
      +                          *cfmt) {
  3009  0045B8  EFF2  F022         	goto	l6358
  3010  0045BC                     l6356:
  3011                           
  3012                           ;C:\Program Files\Microchip\xc8\v2.36\pic\sources\c99\common\doprnt.c: 1398:         nou
      +                          t += vfpfcnvrt(fp, &cfmt, ap);
  3013  0045BC  C198  F0ED         	movff	vfprintf@fp,vfpfcnvrt@fp
  3014  0045C0  C199  F0EE         	movff	vfprintf@fp+1,vfpfcnvrt@fp+1
  3015  0045C4  0EF7               	movlw	low vfprintf@cfmt
  3016  0045C6  0100               	movlb	0	; () banked
  3017  0045C8  6FEF               	movwf	vfpfcnvrt@fmt& (0+255),b
  3018  0045CA  0E00               	movlw	high vfprintf@cfmt
  3019  0045CC  6FF0               	movwf	(vfpfcnvrt@fmt+1)& (0+255),b
  3020  0045CE  C19C  F0F1         	movff	vfprintf@ap,vfpfcnvrt@ap
  3021  0045D2  C19D  F0F2         	movff	vfprintf@ap+1,vfpfcnvrt@ap+1
  3022  0045D6  ECA1  F00B         	call	_vfpfcnvrt	;wreg free
  3023  0045DA  0100               	movlb	0	; () banked
  3024  0045DC  51ED               	movf	?_vfpfcnvrt& (0+255),w,b
  3025  0045DE  2644               	addwf	_nout^0,f,c
  3026  0045E0  51EE               	movf	(?_vfpfcnvrt+1)& (0+255),w,b
  3027  0045E2  2245               	addwfc	(_nout+1)^0,f,c
  3028  0045E4                     l6358:
  3029                           
  3030                           ;C:\Program Files\Microchip\xc8\v2.36\pic\sources\c99\common\doprnt.c: 1397:     while (
      +                          *cfmt) {
  3031  0045E4  C0F7  FFF6         	movff	vfprintf@cfmt,tblptrl
  3032  0045E8  C0F8  FFF7         	movff	vfprintf@cfmt+1,tblptrh
  3033  0045EC                     	if	0	;tblptru may be non-zero
  3034  0045EC                     	endif
  3035  0045EC                     	if	0	;tblptru may be non-zero
  3036  0045EC                     	endif
  3037  0045EC  0008               	tblrd		*
  3038  0045EE  50F5               	movf	tablat,w,c
  3039  0045F0  0900               	iorlw	0
  3040  0045F2  A4D8               	btfss	status,2,c
  3041  0045F4  EFFE  F022         	goto	u8561
  3042  0045F8  EF00  F023         	goto	u8560
  3043  0045FC                     u8561:
  3044  0045FC  EFDE  F022         	goto	l6356
  3045  004600                     u8560:
  3046  004600                     
  3047                           ;C:\Program Files\Microchip\xc8\v2.36\pic\sources\c99\common\doprnt.c: 1400:     return 
      +                          nout;
  3048  004600  C044  F198         	movff	_nout,?_vfprintf
  3049  004604  C045  F199         	movff	_nout+1,?_vfprintf+1
  3050  004608  0012               	return		;funcret
  3051  00460A                     __end_of_vfprintf:
  3052                           	callstack 0
  3053                           
  3054 ;; *************** function _vfpfcnvrt *****************
  3055 ;; Defined at:
  3056 ;;		line 692 in file "C:\Program Files\Microchip\xc8\v2.36\pic\sources\c99\common\doprnt.c"
  3057 ;; Parameters:    Size  Location     Type
  3058 ;;  fp              2  109[BANK0 ] PTR struct _IO_FILE
  3059 ;;		 -> sprintf@f(11), 
  3060 ;;  fmt             2  111[BANK0 ] PTR PTR unsigned char 
  3061 ;;		 -> vfprintf@cfmt(2), 
  3062 ;;  ap              2  113[BANK0 ] PTR PTR void 
  3063 ;;		 -> sprintf@ap(2), 
  3064 ;; Auto vars:     Size  Location     Type
  3065 ;;  llu             8    0        unsigned long long 
  3066 ;;  ll              8    0        long long 
  3067 ;;  f               4    0[BANK1 ] long long 
  3068 ;;  ct              3    4[BANK1 ] unsigned char [3]
  3069 ;;  vp              3    0        PTR void 
  3070 ;;  cp              3    0        PTR unsigned char 
  3071 ;;  i               2    0        int 
  3072 ;;  done            2    0        int 
  3073 ;;  c               1    7[BANK1 ] unsigned char 
  3074 ;; Return value:  Size  Location     Type
  3075 ;;                  2  109[BANK0 ] int 
  3076 ;; Registers used:
  3077 ;;		wreg, fsr1l, fsr1h, fsr2l, fsr2h, status,2, status,0, tblptrl, tblptrh, tblptru, prodl, prodh, cstack
  3078 ;; Tracked objects:
  3079 ;;		On entry : 0/0
  3080 ;;		On exit  : 0/0
  3081 ;;		Unchanged: 0/0
  3082 ;; Data sizes:     COMRAM   BANK0   BANK1   BANK2   BANK3   BANK4   BANK5
  3083 ;;      Params:         0       6       0       0       0       0       0
  3084 ;;      Locals:         0       0       8       0       0       0       0
  3085 ;;      Temps:          0       4       0       0       0       0       0
  3086 ;;      Totals:         0      10       8       0       0       0       0
  3087 ;;Total ram usage:       18 bytes
  3088 ;; Hardware stack levels used: 1
  3089 ;; Hardware stack levels required when called: 10
  3090 ;; This function calls:
  3091 ;;		_atoi
  3092 ;;		_efgtoa
  3093 ;;		_fputc
  3094 ;;		_isdigit
  3095 ;;		_isupper
  3096 ;;		_strncmp
  3097 ;;		_tolower
  3098 ;; This function is called by:
  3099 ;;		_vfprintf
  3100 ;; This function uses a non-reentrant model
  3101 ;;
  3102                           
  3103                           	psect	text14
  3104  001742                     __ptext14:
  3105                           	callstack 0
  3106  001742                     _vfpfcnvrt:
  3107                           	callstack 17
  3108  001742                     
  3109                           ;C:\Program Files\Microchip\xc8\v2.36\pic\sources\c99\common\doprnt.c: 692: static int v
      +                          fpfcnvrt(FILE *fp, char *fmt[], va_list ap);C:\Program Files\Microchip\xc8\v2.36\pic\sou
      +                          rces\c99\common\doprnt.c: 693: {;C:\Program Files\Microchip\xc8\v2.36\pic\sources\c99\co
      +                          mmon\doprnt.c: 694:     char c, *cp, ct[3];;C:\Program Files\Microchip\xc8\v2.36\pic\sou
      +                          rces\c99\common\doprnt.c: 695:     int done, i;;C:\Program Files\Microchip\xc8\v2.36\pic
      +                          \sources\c99\common\doprnt.c: 696:     long long ll;;C:\Program Files\Microchip\xc8\v2.3
      +                          6\pic\sources\c99\common\doprnt.c: 697:     unsigned long long llu;
  3110  001742  C0EF  FFD9         	movff	vfpfcnvrt@fmt,fsr2l
  3111  001746  C0F0  FFDA         	movff	vfpfcnvrt@fmt+1,fsr2h
  3112  00174A  CFDE FFF6          	movff	postinc2,tblptrl
  3113  00174E  CFDD FFF7          	movff	postdec2,tblptrh
  3114  001752                     	if	0	;tblptru may be non-zero
  3115  001752                     	endif
  3116  001752                     	if	0	;tblptru may be non-zero
  3117  001752                     	endif
  3118  001752  0008               	tblrd		*
  3119  001754  50F5               	movf	tablat,w,c
  3120  001756  0A25               	xorlw	37
  3121  001758  A4D8               	btfss	status,2,c
  3122  00175A  EFB1  F00B         	goto	u8451
  3123  00175E  EFB3  F00B         	goto	u8450
  3124  001762                     u8451:
  3125  001762  EFA7  F00D         	goto	l6336
  3126  001766                     u8450:
  3127  001766                     
  3128                           ;C:\Program Files\Microchip\xc8\v2.36\pic\sources\c99\common\doprnt.c: 703:         ++*f
      +                          mt;
  3129  001766  C0EF  FFD9         	movff	vfpfcnvrt@fmt,fsr2l
  3130  00176A  C0F0  FFDA         	movff	vfpfcnvrt@fmt+1,fsr2h
  3131  00176E  2ADE               	incf	postinc2,f,c
  3132  001770  0E00               	movlw	0
  3133  001772  22DD               	addwfc	postdec2,f,c
  3134  001774                     
  3135                           ;C:\Program Files\Microchip\xc8\v2.36\pic\sources\c99\common\doprnt.c: 705:         flag
      +                          s = width = 0;
  3136  001774  0E00               	movlw	0
  3137  001776  6E47               	movwf	(_width+1)^0,c
  3138  001778  0E00               	movlw	0
  3139  00177A  6E46               	movwf	_width^0,c
  3140  00177C  C046  F048         	movff	_width,_flags
  3141  001780  C047  F049         	movff	_width+1,_flags+1
  3142  001784                     
  3143                           ;C:\Program Files\Microchip\xc8\v2.36\pic\sources\c99\common\doprnt.c: 706:         prec
      +                           = -1;
  3144  001784  0100               	movlb	0	; () banked
  3145  001786  69FD               	setf	_prec& (0+255),b
  3146  001788  69FE               	setf	(_prec+1)& (0+255),b
  3147  00178A                     
  3148                           ; BSR set to: 0
  3149                           ;C:\Program Files\Microchip\xc8\v2.36\pic\sources\c99\common\doprnt.c: 762:         if (
      +                          (*fmt)[0] == '.') {
  3150  00178A  C0EF  FFD9         	movff	vfpfcnvrt@fmt,fsr2l
  3151  00178E  C0F0  FFDA         	movff	vfpfcnvrt@fmt+1,fsr2h
  3152  001792  CFDE FFF6          	movff	postinc2,tblptrl
  3153  001796  CFDD FFF7          	movff	postdec2,tblptrh
  3154  00179A                     	if	0	;tblptru may be non-zero
  3155  00179A                     	endif
  3156  00179A                     	if	0	;tblptru may be non-zero
  3157  00179A                     	endif
  3158  00179A  0008               	tblrd		*
  3159  00179C  50F5               	movf	tablat,w,c
  3160  00179E  0A2E               	xorlw	46
  3161  0017A0  A4D8               	btfss	status,2,c
  3162  0017A2  EFD5  F00B         	goto	u8461
  3163  0017A6  EFD7  F00B         	goto	u8460
  3164  0017AA                     u8461:
  3165  0017AA  EF48  F00C         	goto	l6282
  3166  0017AE                     u8460:
  3167  0017AE                     
  3168                           ; BSR set to: 0
  3169                           ;C:\Program Files\Microchip\xc8\v2.36\pic\sources\c99\common\doprnt.c: 763:             
      +                          prec = 0;
  3170  0017AE  0E00               	movlw	0
  3171  0017B0  6FFE               	movwf	(_prec+1)& (0+255),b
  3172  0017B2  0E00               	movlw	0
  3173  0017B4  6FFD               	movwf	_prec& (0+255),b
  3174  0017B6                     
  3175                           ; BSR set to: 0
  3176                           ;C:\Program Files\Microchip\xc8\v2.36\pic\sources\c99\common\doprnt.c: 764:             
      +                          ++*fmt;
  3177  0017B6  C0EF  FFD9         	movff	vfpfcnvrt@fmt,fsr2l
  3178  0017BA  C0F0  FFDA         	movff	vfpfcnvrt@fmt+1,fsr2h
  3179  0017BE  2ADE               	incf	postinc2,f,c
  3180  0017C0  0E00               	movlw	0
  3181  0017C2  22DD               	addwfc	postdec2,f,c
  3182  0017C4                     
  3183                           ; BSR set to: 0
  3184                           ;C:\Program Files\Microchip\xc8\v2.36\pic\sources\c99\common\doprnt.c: 765:             
      +                          if ((*fmt)[0] == '*') {
  3185  0017C4  C0EF  FFD9         	movff	vfpfcnvrt@fmt,fsr2l
  3186  0017C8  C0F0  FFDA         	movff	vfpfcnvrt@fmt+1,fsr2h
  3187  0017CC  CFDE FFF6          	movff	postinc2,tblptrl
  3188  0017D0  CFDD FFF7          	movff	postdec2,tblptrh
  3189  0017D4                     	if	0	;tblptru may be non-zero
  3190  0017D4                     	endif
  3191  0017D4                     	if	0	;tblptru may be non-zero
  3192  0017D4                     	endif
  3193  0017D4  0008               	tblrd		*
  3194  0017D6  50F5               	movf	tablat,w,c
  3195  0017D8  0A2A               	xorlw	42
  3196  0017DA  A4D8               	btfss	status,2,c
  3197  0017DC  EFF2  F00B         	goto	u8471
  3198  0017E0  EFF4  F00B         	goto	u8470
  3199  0017E4                     u8471:
  3200  0017E4  EF11  F00C         	goto	l6274
  3201  0017E8                     u8470:
  3202  0017E8                     
  3203                           ; BSR set to: 0
  3204                           ;C:\Program Files\Microchip\xc8\v2.36\pic\sources\c99\common\doprnt.c: 766:             
      +                              ++*fmt;
  3205  0017E8  C0EF  FFD9         	movff	vfpfcnvrt@fmt,fsr2l
  3206  0017EC  C0F0  FFDA         	movff	vfpfcnvrt@fmt+1,fsr2h
  3207  0017F0  2ADE               	incf	postinc2,f,c
  3208  0017F2  0E00               	movlw	0
  3209  0017F4  22DD               	addwfc	postdec2,f,c
  3210                           
  3211                           ;C:\Program Files\Microchip\xc8\v2.36\pic\sources\c99\common\doprnt.c: 767:             
      +                              prec = (*(int *)__va_arg(*(int **)ap, (int)0));
  3212  0017F6  C0F1  FFD9         	movff	vfpfcnvrt@ap,fsr2l
  3213  0017FA  C0F2  FFDA         	movff	vfpfcnvrt@ap+1,fsr2h
  3214  0017FE  CFDF F0F3          	movff	indf2,??_vfpfcnvrt
  3215  001802  0E02               	movlw	2
  3216  001804  26DE               	addwf	postinc2,f,c
  3217  001806  CFDF F0F4          	movff	indf2,??_vfpfcnvrt+1
  3218  00180A  0E00               	movlw	0
  3219  00180C  22DD               	addwfc	postdec2,f,c
  3220  00180E  C0F3  FFD9         	movff	??_vfpfcnvrt,fsr2l
  3221  001812  C0F4  FFDA         	movff	??_vfpfcnvrt+1,fsr2h
  3222  001816  CFDE F0FD          	movff	postinc2,_prec
  3223  00181A  CFDD F0FE          	movff	postdec2,_prec+1
  3224                           
  3225                           ;C:\Program Files\Microchip\xc8\v2.36\pic\sources\c99\common\doprnt.c: 768:             
      +                          } else {
  3226  00181E  EF48  F00C         	goto	l6282
  3227  001822                     l6274:
  3228                           
  3229                           ; BSR set to: 0
  3230                           ;C:\Program Files\Microchip\xc8\v2.36\pic\sources\c99\common\doprnt.c: 769:             
      +                              prec = atoi(*fmt);
  3231  001822  C0EF  FFD9         	movff	vfpfcnvrt@fmt,fsr2l
  3232  001826  C0F0  FFDA         	movff	vfpfcnvrt@fmt+1,fsr2h
  3233  00182A  CFDE F081          	movff	postinc2,atoi@s
  3234  00182E  CFDD F082          	movff	postdec2,atoi@s+1
  3235  001832  ECC9  F01A         	call	_atoi	;wreg free
  3236  001836  C081  F0FD         	movff	?_atoi,_prec
  3237  00183A  C082  F0FE         	movff	?_atoi+1,_prec+1
  3238                           
  3239                           ;C:\Program Files\Microchip\xc8\v2.36\pic\sources\c99\common\doprnt.c: 770:             
      +                              while ((0 && isdigit((*fmt)[0]), ((unsigned)((*fmt)[0])-'0') < 10)) {
  3240  00183E  EF28  F00C         	goto	l6280
  3241  001842                     l6276:
  3242                           
  3243                           ; BSR set to: 0
  3244                           ;C:\Program Files\Microchip\xc8\v2.36\pic\sources\c99\common\doprnt.c: 771:             
      +                                  ++*fmt;
  3245  001842  C0EF  FFD9         	movff	vfpfcnvrt@fmt,fsr2l
  3246  001846  C0F0  FFDA         	movff	vfpfcnvrt@fmt+1,fsr2h
  3247  00184A  2ADE               	incf	postinc2,f,c
  3248  00184C  0E00               	movlw	0
  3249  00184E  22DD               	addwfc	postdec2,f,c
  3250  001850                     l6280:
  3251  001850  0ED0               	movlw	208
  3252  001852  0100               	movlb	0	; () banked
  3253  001854  6FF3               	movwf	??_vfpfcnvrt& (0+255),b
  3254  001856  0EFF               	movlw	255
  3255  001858  6FF4               	movwf	(??_vfpfcnvrt+1)& (0+255),b
  3256  00185A  C0EF  FFD9         	movff	vfpfcnvrt@fmt,fsr2l
  3257  00185E  C0F0  FFDA         	movff	vfpfcnvrt@fmt+1,fsr2h
  3258  001862  CFDE FFF6          	movff	postinc2,tblptrl
  3259  001866  CFDD FFF7          	movff	postdec2,tblptrh
  3260  00186A                     	if	0	;tblptru may be non-zero
  3261  00186A                     	endif
  3262  00186A                     	if	0	;tblptru may be non-zero
  3263  00186A                     	endif
  3264  00186A  0008               	tblrd		*
  3265  00186C  50F5               	movf	tablat,w,c
  3266  00186E  6FF5               	movwf	(??_vfpfcnvrt+2)& (0+255),b
  3267  001870  6BF6               	clrf	(??_vfpfcnvrt+3)& (0+255),b
  3268  001872  51F3               	movf	??_vfpfcnvrt& (0+255),w,b
  3269  001874  27F5               	addwf	(??_vfpfcnvrt+2)& (0+255),f,b
  3270  001876  51F4               	movf	(??_vfpfcnvrt+1)& (0+255),w,b
  3271  001878  23F6               	addwfc	(??_vfpfcnvrt+3)& (0+255),f,b
  3272  00187A  51F6               	movf	(??_vfpfcnvrt+3)& (0+255),w,b
  3273  00187C  E109               	bnz	u8480
  3274  00187E  0E0A               	movlw	10
  3275  001880  5DF5               	subwf	(??_vfpfcnvrt+2)& (0+255),w,b
  3276  001882  A0D8               	btfss	status,0,c
  3277  001884  EF46  F00C         	goto	u8481
  3278  001888  EF48  F00C         	goto	u8480
  3279  00188C                     u8481:
  3280  00188C  EF21  F00C         	goto	l6276
  3281  001890                     u8480:
  3282  001890                     l6282:
  3283                           
  3284                           ; BSR set to: 0
  3285                           ;C:\Program Files\Microchip\xc8\v2.36\pic\sources\c99\common\doprnt.c: 779:         ct[0
      +                          ] = (char)tolower((int)(*fmt)[0]);
  3286  001890  C0EF  FFD9         	movff	vfpfcnvrt@fmt,fsr2l
  3287  001894  C0F0  FFDA         	movff	vfpfcnvrt@fmt+1,fsr2h
  3288  001898  CFDE FFF6          	movff	postinc2,tblptrl
  3289  00189C  CFDD FFF7          	movff	postdec2,tblptrh
  3290  0018A0                     	if	0	;tblptru may be non-zero
  3291  0018A0                     	endif
  3292  0018A0                     	if	0	;tblptru may be non-zero
  3293  0018A0                     	endif
  3294  0018A0  0008               	tblrd		*
  3295  0018A2  50F5               	movf	tablat,w,c
  3296  0018A4  6F80               	movwf	tolower@c& (0+255),b
  3297  0018A6  6B81               	clrf	(tolower@c+1)& (0+255),b
  3298  0018A8  EC87  F023         	call	_tolower	;wreg free
  3299  0018AC  0100               	movlb	0	; () banked
  3300  0018AE  5180               	movf	?_tolower& (0+255),w,b
  3301  0018B0  0101               	movlb	1	; () banked
  3302  0018B2  6F94               	movwf	vfpfcnvrt@ct& (0+255),b
  3303  0018B4                     
  3304                           ; BSR set to: 1
  3305                           ;C:\Program Files\Microchip\xc8\v2.36\pic\sources\c99\common\doprnt.c: 780:         if (
      +                          ct[0]) {
  3306  0018B4  5194               	movf	vfpfcnvrt@ct& (0+255),w,b
  3307  0018B6  B4D8               	btfsc	status,2,c
  3308  0018B8  EF60  F00C         	goto	u8491
  3309  0018BC  EF62  F00C         	goto	u8490
  3310  0018C0                     u8491:
  3311  0018C0  EFA0  F00C         	goto	l6292
  3312  0018C4                     u8490:
  3313  0018C4                     
  3314                           ; BSR set to: 1
  3315                           ;C:\Program Files\Microchip\xc8\v2.36\pic\sources\c99\common\doprnt.c: 781:             
      +                          ct[1] = (char)tolower((int)(*fmt)[1]);
  3316  0018C4  C0EF  FFD9         	movff	vfpfcnvrt@fmt,fsr2l
  3317  0018C8  C0F0  FFDA         	movff	vfpfcnvrt@fmt+1,fsr2h
  3318  0018CC  CFDE F0F3          	movff	postinc2,??_vfpfcnvrt
  3319  0018D0  CFDD F0F4          	movff	postdec2,??_vfpfcnvrt+1
  3320  0018D4  0E01               	movlw	1
  3321  0018D6  0100               	movlb	0	; () banked
  3322  0018D8  27F3               	addwf	??_vfpfcnvrt& (0+255),f,b
  3323  0018DA  0E00               	movlw	0
  3324  0018DC  23F4               	addwfc	(??_vfpfcnvrt+1)& (0+255),f,b
  3325  0018DE  C0F3  FFF6         	movff	??_vfpfcnvrt,tblptrl
  3326  0018E2  C0F4  FFF7         	movff	??_vfpfcnvrt+1,tblptrh
  3327  0018E6                     	if	0	;tblptru may be non-zero
  3328  0018E6                     	endif
  3329  0018E6                     	if	0	;tblptru may be non-zero
  3330  0018E6                     	endif
  3331  0018E6  0008               	tblrd		*
  3332  0018E8  50F5               	movf	tablat,w,c
  3333  0018EA  6F80               	movwf	tolower@c& (0+255),b
  3334  0018EC  6B81               	clrf	(tolower@c+1)& (0+255),b
  3335  0018EE  EC87  F023         	call	_tolower	;wreg free
  3336  0018F2  0100               	movlb	0	; () banked
  3337  0018F4  5180               	movf	?_tolower& (0+255),w,b
  3338  0018F6  0101               	movlb	1	; () banked
  3339  0018F8  6F95               	movwf	(vfpfcnvrt@ct+1)& (0+255),b
  3340  0018FA                     
  3341                           ; BSR set to: 1
  3342                           ;C:\Program Files\Microchip\xc8\v2.36\pic\sources\c99\common\doprnt.c: 782:             
      +                          if (ct[1]) {
  3343  0018FA  5195               	movf	(vfpfcnvrt@ct+1)& (0+255),w,b
  3344  0018FC  B4D8               	btfsc	status,2,c
  3345  0018FE  EF83  F00C         	goto	u8501
  3346  001902  EF85  F00C         	goto	u8500
  3347  001906                     u8501:
  3348  001906  EFA0  F00C         	goto	l6292
  3349  00190A                     u8500:
  3350  00190A                     
  3351                           ; BSR set to: 1
  3352                           ;C:\Program Files\Microchip\xc8\v2.36\pic\sources\c99\common\doprnt.c: 783:             
      +                              ct[2] = (char)tolower((int)(*fmt)[2]);
  3353  00190A  C0EF  FFD9         	movff	vfpfcnvrt@fmt,fsr2l
  3354  00190E  C0F0  FFDA         	movff	vfpfcnvrt@fmt+1,fsr2h
  3355  001912  CFDE F0F3          	movff	postinc2,??_vfpfcnvrt
  3356  001916  CFDD F0F4          	movff	postdec2,??_vfpfcnvrt+1
  3357  00191A  0E02               	movlw	2
  3358  00191C  0100               	movlb	0	; () banked
  3359  00191E  27F3               	addwf	??_vfpfcnvrt& (0+255),f,b
  3360  001920  0E00               	movlw	0
  3361  001922  23F4               	addwfc	(??_vfpfcnvrt+1)& (0+255),f,b
  3362  001924  C0F3  FFF6         	movff	??_vfpfcnvrt,tblptrl
  3363  001928  C0F4  FFF7         	movff	??_vfpfcnvrt+1,tblptrh
  3364  00192C                     	if	0	;tblptru may be non-zero
  3365  00192C                     	endif
  3366  00192C                     	if	0	;tblptru may be non-zero
  3367  00192C                     	endif
  3368  00192C  0008               	tblrd		*
  3369  00192E  50F5               	movf	tablat,w,c
  3370  001930  6F80               	movwf	tolower@c& (0+255),b
  3371  001932  6B81               	clrf	(tolower@c+1)& (0+255),b
  3372  001934  EC87  F023         	call	_tolower	;wreg free
  3373  001938  0100               	movlb	0	; () banked
  3374  00193A  5180               	movf	?_tolower& (0+255),w,b
  3375  00193C  0101               	movlb	1	; () banked
  3376  00193E  6F96               	movwf	(vfpfcnvrt@ct+2)& (0+255),b
  3377  001940                     l6292:
  3378                           
  3379                           ; BSR set to: 1
  3380                           ;C:\Program Files\Microchip\xc8\v2.36\pic\sources\c99\common\doprnt.c: 942:         if (
      +                          ct[0] == 'f') {
  3381  001940  0E66               	movlw	102
  3382  001942  1994               	xorwf	vfpfcnvrt@ct& (0+255),w,b
  3383  001944  A4D8               	btfss	status,2,c
  3384  001946  EFA7  F00C         	goto	u8511
  3385  00194A  EFA9  F00C         	goto	u8510
  3386  00194E                     u8511:
  3387  00194E  EFE9  F00C         	goto	l6304
  3388  001952                     u8510:
  3389  001952                     
  3390                           ; BSR set to: 1
  3391                           ;C:\Program Files\Microchip\xc8\v2.36\pic\sources\c99\common\doprnt.c: 944:             
      +                          c = (*fmt)[0];
  3392  001952  C0EF  FFD9         	movff	vfpfcnvrt@fmt,fsr2l
  3393  001956  C0F0  FFDA         	movff	vfpfcnvrt@fmt+1,fsr2h
  3394  00195A  CFDE FFF6          	movff	postinc2,tblptrl
  3395  00195E  CFDD FFF7          	movff	postdec2,tblptrh
  3396  001962                     	if	0	;tblptru may be non-zero
  3397  001962                     	endif
  3398  001962                     	if	0	;tblptru may be non-zero
  3399  001962                     	endif
  3400  001962  0008               	tblrd		*
  3401  001964  CFF5 F197          	movff	tablat,vfpfcnvrt@c
  3402  001968                     
  3403                           ; BSR set to: 1
  3404                           ;C:\Program Files\Microchip\xc8\v2.36\pic\sources\c99\common\doprnt.c: 945:             
      +                          ++*fmt;
  3405  001968  C0EF  FFD9         	movff	vfpfcnvrt@fmt,fsr2l
  3406  00196C  C0F0  FFDA         	movff	vfpfcnvrt@fmt+1,fsr2h
  3407  001970  2ADE               	incf	postinc2,f,c
  3408  001972  0E00               	movlw	0
  3409  001974  22DD               	addwfc	postdec2,f,c
  3410  001976                     
  3411                           ; BSR set to: 1
  3412                           ;C:\Program Files\Microchip\xc8\v2.36\pic\sources\c99\common\doprnt.c: 946:             
      +                          f = (long double)(*(double *)__va_arg(*(double **)ap, (double)0));
  3413  001976  C0F1  FFD9         	movff	vfpfcnvrt@ap,fsr2l
  3414  00197A  C0F2  FFDA         	movff	vfpfcnvrt@ap+1,fsr2h
  3415  00197E  CFDF F0F3          	movff	indf2,??_vfpfcnvrt
  3416  001982  0E04               	movlw	4
  3417  001984  26DE               	addwf	postinc2,f,c
  3418  001986  CFDF F0F4          	movff	indf2,??_vfpfcnvrt+1
  3419  00198A  0E00               	movlw	0
  3420  00198C  22DD               	addwfc	postdec2,f,c
  3421  00198E  C0F3  FFD9         	movff	??_vfpfcnvrt,fsr2l
  3422  001992  C0F4  FFDA         	movff	??_vfpfcnvrt+1,fsr2h
  3423  001996  CFDE F190          	movff	postinc2,vfpfcnvrt@f
  3424  00199A  CFDE F191          	movff	postinc2,vfpfcnvrt@f+1
  3425  00199E  CFDE F192          	movff	postinc2,vfpfcnvrt@f+2
  3426  0019A2  CFDE F193          	movff	postinc2,vfpfcnvrt@f+3
  3427  0019A6                     l6300:
  3428                           
  3429                           ;C:\Program Files\Microchip\xc8\v2.36\pic\sources\c99\common\doprnt.c: 948:             
      +                          return efgtoa(fp, f, c);
  3430  0019A6  C0ED  F0AF         	movff	vfpfcnvrt@fp,efgtoa@fp
  3431  0019AA  C0EE  F0B0         	movff	vfpfcnvrt@fp+1,efgtoa@fp+1
  3432  0019AE  C190  F0B1         	movff	vfpfcnvrt@f,efgtoa@f
  3433  0019B2  C191  F0B2         	movff	vfpfcnvrt@f+1,efgtoa@f+1
  3434  0019B6  C192  F0B3         	movff	vfpfcnvrt@f+2,efgtoa@f+2
  3435  0019BA  C193  F0B4         	movff	vfpfcnvrt@f+3,efgtoa@f+3
  3436  0019BE  C197  F0B5         	movff	vfpfcnvrt@c,efgtoa@c
  3437  0019C2  EC34  F003         	call	_efgtoa	;wreg free
  3438  0019C6  C0AF  F0ED         	movff	?_efgtoa,?_vfpfcnvrt
  3439  0019CA  C0B0  F0EE         	movff	?_efgtoa+1,?_vfpfcnvrt+1
  3440  0019CE  EFC2  F00D         	goto	l992
  3441  0019D2                     l6304:
  3442                           
  3443                           ; BSR set to: 1
  3444                           ;C:\Program Files\Microchip\xc8\v2.36\pic\sources\c99\common\doprnt.c: 950:         if (
      +                          !strncmp(ct, "lf", ((sizeof("lf")/sizeof("lf"[0]))-1))) {
  3445  0019D2  0E94               	movlw	low vfpfcnvrt@ct
  3446  0019D4  6E32               	movwf	strncmp@_l^0,c
  3447  0019D6  0E01               	movlw	high vfpfcnvrt@ct
  3448  0019D8  6E33               	movwf	(strncmp@_l+1)^0,c
  3449  0019DA  0E63               	movlw	low STR_15
  3450  0019DC  6E34               	movwf	strncmp@_r^0,c
  3451  0019DE  0E06               	movlw	high STR_15
  3452  0019E0  6E35               	movwf	(strncmp@_r+1)^0,c
  3453  0019E2  0E00               	movlw	0
  3454  0019E4  6E37               	movwf	(strncmp@n+1)^0,c
  3455  0019E6  0E02               	movlw	2
  3456  0019E8  6E36               	movwf	strncmp@n^0,c
  3457  0019EA  ECE0  F01E         	call	_strncmp	;wreg free
  3458  0019EE  5032               	movf	?_strncmp^0,w,c
  3459  0019F0  1033               	iorwf	(?_strncmp+1)^0,w,c
  3460  0019F2  A4D8               	btfss	status,2,c
  3461  0019F4  EFFE  F00C         	goto	u8521
  3462  0019F8  EF00  F00D         	goto	u8520
  3463  0019FC                     u8521:
  3464  0019FC  EF6F  F00D         	goto	l6320
  3465  001A00                     u8520:
  3466  001A00                     
  3467                           ;C:\Program Files\Microchip\xc8\v2.36\pic\sources\c99\common\doprnt.c: 952:             
      +                          c = (*fmt)[1];
  3468  001A00  C0EF  FFD9         	movff	vfpfcnvrt@fmt,fsr2l
  3469  001A04  C0F0  FFDA         	movff	vfpfcnvrt@fmt+1,fsr2h
  3470  001A08  CFDE F0F3          	movff	postinc2,??_vfpfcnvrt
  3471  001A0C  CFDD F0F4          	movff	postdec2,??_vfpfcnvrt+1
  3472  001A10  0E01               	movlw	1
  3473  001A12  0100               	movlb	0	; () banked
  3474  001A14  27F3               	addwf	??_vfpfcnvrt& (0+255),f,b
  3475  001A16  0E00               	movlw	0
  3476  001A18  23F4               	addwfc	(??_vfpfcnvrt+1)& (0+255),f,b
  3477  001A1A  C0F3  FFF6         	movff	??_vfpfcnvrt,tblptrl
  3478  001A1E  C0F4  FFF7         	movff	??_vfpfcnvrt+1,tblptrh
  3479  001A22                     	if	0	;tblptru may be non-zero
  3480  001A22                     	endif
  3481  001A22                     	if	0	;tblptru may be non-zero
  3482  001A22                     	endif
  3483  001A22  0008               	tblrd		*
  3484  001A24  CFF5 F197          	movff	tablat,vfpfcnvrt@c
  3485  001A28                     
  3486                           ; BSR set to: 0
  3487  001A28  0EBF               	movlw	191
  3488  001A2A  6FF3               	movwf	??_vfpfcnvrt& (0+255),b
  3489  001A2C  0EFF               	movlw	255
  3490  001A2E  6FF4               	movwf	(??_vfpfcnvrt+1)& (0+255),b
  3491  001A30  C0EF  FFD9         	movff	vfpfcnvrt@fmt,fsr2l
  3492  001A34  C0F0  FFDA         	movff	vfpfcnvrt@fmt+1,fsr2h
  3493  001A38  CFDE FFF6          	movff	postinc2,tblptrl
  3494  001A3C  CFDD FFF7          	movff	postdec2,tblptrh
  3495  001A40                     	if	0	;tblptru may be non-zero
  3496  001A40                     	endif
  3497  001A40                     	if	0	;tblptru may be non-zero
  3498  001A40                     	endif
  3499  001A40  0008               	tblrd		*
  3500  001A42  50F5               	movf	tablat,w,c
  3501  001A44  6FF5               	movwf	(??_vfpfcnvrt+2)& (0+255),b
  3502  001A46  6BF6               	clrf	(??_vfpfcnvrt+3)& (0+255),b
  3503  001A48  51F3               	movf	??_vfpfcnvrt& (0+255),w,b
  3504  001A4A  27F5               	addwf	(??_vfpfcnvrt+2)& (0+255),f,b
  3505  001A4C  51F4               	movf	(??_vfpfcnvrt+1)& (0+255),w,b
  3506  001A4E  23F6               	addwfc	(??_vfpfcnvrt+3)& (0+255),f,b
  3507  001A50  51F6               	movf	(??_vfpfcnvrt+3)& (0+255),w,b
  3508  001A52  E107               	bnz	u8531
  3509  001A54  0E1A               	movlw	26
  3510  001A56  5DF5               	subwf	(??_vfpfcnvrt+2)& (0+255),w,b
  3511  001A58  B0D8               	btfsc	status,0,c
  3512  001A5A  EF31  F00D         	goto	u8531
  3513  001A5E  EF33  F00D         	goto	u8530
  3514  001A62                     u8531:
  3515  001A62  EF4D  F00D         	goto	l6314
  3516  001A66                     u8530:
  3517  001A66                     
  3518                           ; BSR set to: 0
  3519                           ;C:\Program Files\Microchip\xc8\v2.36\pic\sources\c99\common\doprnt.c: 954:             
      +                              f = (*(long double *)__va_arg(*(long double **)ap, (long double)0));
  3520  001A66  C0F1  FFD9         	movff	vfpfcnvrt@ap,fsr2l
  3521  001A6A  C0F2  FFDA         	movff	vfpfcnvrt@ap+1,fsr2h
  3522  001A6E  CFDF F0F3          	movff	indf2,??_vfpfcnvrt
  3523  001A72  0E04               	movlw	4
  3524  001A74  26DE               	addwf	postinc2,f,c
  3525  001A76  CFDF F0F4          	movff	indf2,??_vfpfcnvrt+1
  3526  001A7A  0E00               	movlw	0
  3527  001A7C  22DD               	addwfc	postdec2,f,c
  3528  001A7E  C0F3  FFD9         	movff	??_vfpfcnvrt,fsr2l
  3529  001A82  C0F4  FFDA         	movff	??_vfpfcnvrt+1,fsr2h
  3530  001A86  CFDE F190          	movff	postinc2,vfpfcnvrt@f
  3531  001A8A  CFDE F191          	movff	postinc2,vfpfcnvrt@f+1
  3532  001A8E  CFDE F192          	movff	postinc2,vfpfcnvrt@f+2
  3533  001A92  CFDE F193          	movff	postinc2,vfpfcnvrt@f+3
  3534                           
  3535                           ;C:\Program Files\Microchip\xc8\v2.36\pic\sources\c99\common\doprnt.c: 955:             
      +                          } else {
  3536  001A96  EF65  F00D         	goto	l997
  3537  001A9A                     l6314:
  3538                           
  3539                           ; BSR set to: 0
  3540                           ;C:\Program Files\Microchip\xc8\v2.36\pic\sources\c99\common\doprnt.c: 956:             
      +                              f = (long double)(*(double *)__va_arg(*(double **)ap, (double)0));
  3541  001A9A  C0F1  FFD9         	movff	vfpfcnvrt@ap,fsr2l
  3542  001A9E  C0F2  FFDA         	movff	vfpfcnvrt@ap+1,fsr2h
  3543  001AA2  CFDF F0F3          	movff	indf2,??_vfpfcnvrt
  3544  001AA6  0E04               	movlw	4
  3545  001AA8  26DE               	addwf	postinc2,f,c
  3546  001AAA  CFDF F0F4          	movff	indf2,??_vfpfcnvrt+1
  3547  001AAE  0E00               	movlw	0
  3548  001AB0  22DD               	addwfc	postdec2,f,c
  3549  001AB2  C0F3  FFD9         	movff	??_vfpfcnvrt,fsr2l
  3550  001AB6  C0F4  FFDA         	movff	??_vfpfcnvrt+1,fsr2h
  3551  001ABA  CFDE F190          	movff	postinc2,vfpfcnvrt@f
  3552  001ABE  CFDE F191          	movff	postinc2,vfpfcnvrt@f+1
  3553  001AC2  CFDE F192          	movff	postinc2,vfpfcnvrt@f+2
  3554  001AC6  CFDE F193          	movff	postinc2,vfpfcnvrt@f+3
  3555  001ACA                     l997:
  3556                           
  3557                           ; BSR set to: 0
  3558                           ;C:\Program Files\Microchip\xc8\v2.36\pic\sources\c99\common\doprnt.c: 958:             
      +                          *fmt += ((sizeof("lf")/sizeof("lf"[0]))-1);
  3559  001ACA  0E02               	movlw	2
  3560  001ACC  C0EF  FFD9         	movff	vfpfcnvrt@fmt,fsr2l
  3561  001AD0  C0F0  FFDA         	movff	vfpfcnvrt@fmt+1,fsr2h
  3562  001AD4  26DE               	addwf	postinc2,f,c
  3563  001AD6  0E00               	movlw	0
  3564  001AD8  22DD               	addwfc	postdec2,f,c
  3565  001ADA  EFD3  F00C         	goto	l6300
  3566  001ADE                     l6320:
  3567                           
  3568                           ;C:\Program Files\Microchip\xc8\v2.36\pic\sources\c99\common\doprnt.c: 1372:         if 
      +                          ((*fmt)[0] == '%') {
  3569  001ADE  C0EF  FFD9         	movff	vfpfcnvrt@fmt,fsr2l
  3570  001AE2  C0F0  FFDA         	movff	vfpfcnvrt@fmt+1,fsr2h
  3571  001AE6  CFDE FFF6          	movff	postinc2,tblptrl
  3572  001AEA  CFDD FFF7          	movff	postdec2,tblptrh
  3573  001AEE                     	if	0	;tblptru may be non-zero
  3574  001AEE                     	endif
  3575  001AEE                     	if	0	;tblptru may be non-zero
  3576  001AEE                     	endif
  3577  001AEE  0008               	tblrd		*
  3578  001AF0  50F5               	movf	tablat,w,c
  3579  001AF2  0A25               	xorlw	37
  3580  001AF4  A4D8               	btfss	status,2,c
  3581  001AF6  EF7F  F00D         	goto	u8541
  3582  001AFA  EF81  F00D         	goto	u8540
  3583  001AFE                     u8541:
  3584  001AFE  EF99  F00D         	goto	l6330
  3585  001B02                     u8540:
  3586  001B02                     
  3587                           ;C:\Program Files\Microchip\xc8\v2.36\pic\sources\c99\common\doprnt.c: 1373:            
      +                           ++*fmt;
  3588  001B02  C0EF  FFD9         	movff	vfpfcnvrt@fmt,fsr2l
  3589  001B06  C0F0  FFDA         	movff	vfpfcnvrt@fmt+1,fsr2h
  3590  001B0A  2ADE               	incf	postinc2,f,c
  3591  001B0C  0E00               	movlw	0
  3592  001B0E  22DD               	addwfc	postdec2,f,c
  3593  001B10                     
  3594                           ;C:\Program Files\Microchip\xc8\v2.36\pic\sources\c99\common\doprnt.c: 1374:            
      +                           fputc((int)'%', fp);
  3595  001B10  0E00               	movlw	0
  3596  001B12  6E33               	movwf	(fputc@c+1)^0,c
  3597  001B14  0E25               	movlw	37
  3598  001B16  6E32               	movwf	fputc@c^0,c
  3599  001B18  C0ED  F034         	movff	vfpfcnvrt@fp,fputc@fp
  3600  001B1C  C0EE  F035         	movff	vfpfcnvrt@fp+1,fputc@fp+1
  3601  001B20  EC4D  F01F         	call	_fputc	;wreg free
  3602  001B24                     l6326:
  3603                           
  3604                           ;C:\Program Files\Microchip\xc8\v2.36\pic\sources\c99\common\doprnt.c: 1375:            
      +                           return 1;
  3605  001B24  0E00               	movlw	0
  3606  001B26  0100               	movlb	0	; () banked
  3607  001B28  6FEE               	movwf	(?_vfpfcnvrt+1)& (0+255),b
  3608  001B2A  0E01               	movlw	1
  3609  001B2C  6FED               	movwf	?_vfpfcnvrt& (0+255),b
  3610  001B2E  EFC2  F00D         	goto	l992
  3611  001B32                     l6330:
  3612                           
  3613                           ;C:\Program Files\Microchip\xc8\v2.36\pic\sources\c99\common\doprnt.c: 1379:         ++*
      +                          fmt;
  3614  001B32  C0EF  FFD9         	movff	vfpfcnvrt@fmt,fsr2l
  3615  001B36  C0F0  FFDA         	movff	vfpfcnvrt@fmt+1,fsr2h
  3616  001B3A  2ADE               	incf	postinc2,f,c
  3617  001B3C  0E00               	movlw	0
  3618  001B3E  22DD               	addwfc	postdec2,f,c
  3619  001B40                     
  3620                           ;C:\Program Files\Microchip\xc8\v2.36\pic\sources\c99\common\doprnt.c: 1380:         ret
      +                          urn 0;
  3621  001B40  0E00               	movlw	0
  3622  001B42  0100               	movlb	0	; () banked
  3623  001B44  6FEE               	movwf	(?_vfpfcnvrt+1)& (0+255),b
  3624  001B46  0E00               	movlw	0
  3625  001B48  6FED               	movwf	?_vfpfcnvrt& (0+255),b
  3626  001B4A  EFC2  F00D         	goto	l992
  3627  001B4E                     l6336:
  3628                           
  3629                           ;C:\Program Files\Microchip\xc8\v2.36\pic\sources\c99\common\doprnt.c: 1384:     fputc((
      +                          int)(*fmt)[0], fp);
  3630  001B4E  C0EF  FFD9         	movff	vfpfcnvrt@fmt,fsr2l
  3631  001B52  C0F0  FFDA         	movff	vfpfcnvrt@fmt+1,fsr2h
  3632  001B56  CFDE FFF6          	movff	postinc2,tblptrl
  3633  001B5A  CFDD FFF7          	movff	postdec2,tblptrh
  3634  001B5E                     	if	0	;tblptru may be non-zero
  3635  001B5E                     	endif
  3636  001B5E                     	if	0	;tblptru may be non-zero
  3637  001B5E                     	endif
  3638  001B5E  0008               	tblrd		*
  3639  001B60  50F5               	movf	tablat,w,c
  3640  001B62  6E32               	movwf	fputc@c^0,c
  3641  001B64  6A33               	clrf	(fputc@c+1)^0,c
  3642  001B66  C0ED  F034         	movff	vfpfcnvrt@fp,fputc@fp
  3643  001B6A  C0EE  F035         	movff	vfpfcnvrt@fp+1,fputc@fp+1
  3644  001B6E  EC4D  F01F         	call	_fputc	;wreg free
  3645  001B72                     
  3646                           ;C:\Program Files\Microchip\xc8\v2.36\pic\sources\c99\common\doprnt.c: 1385:     ++*fmt;
  3647  001B72  C0EF  FFD9         	movff	vfpfcnvrt@fmt,fsr2l
  3648  001B76  C0F0  FFDA         	movff	vfpfcnvrt@fmt+1,fsr2h
  3649  001B7A  2ADE               	incf	postinc2,f,c
  3650  001B7C  0E00               	movlw	0
  3651  001B7E  22DD               	addwfc	postdec2,f,c
  3652  001B80  EF92  F00D         	goto	l6326
  3653  001B84                     l992:
  3654  001B84  0012               	return		;funcret
  3655  001B86                     __end_of_vfpfcnvrt:
  3656                           	callstack 0
  3657                           
  3658 ;; *************** function _strncmp *****************
  3659 ;; Defined at:
  3660 ;;		line 3 in file "C:\Program Files\Microchip\xc8\v2.36\pic\sources\c99\common\strncmp.c"
  3661 ;; Parameters:    Size  Location     Type
  3662 ;;  _l              2   49[COMRAM] PTR const unsigned char 
  3663 ;;		 -> vfpfcnvrt@ct(3), 
  3664 ;;  _r              2   51[COMRAM] PTR const unsigned char 
  3665 ;;		 -> STR_17(3), 
  3666 ;;  n               2   53[COMRAM] unsigned int 
  3667 ;; Auto vars:     Size  Location     Type
  3668 ;;  r               2    3[BANK0 ] PTR const unsigned char 
  3669 ;;		 -> STR_17(3), 
  3670 ;;  l               2    1[BANK0 ] PTR const unsigned char 
  3671 ;;		 -> vfpfcnvrt@ct(3), 
  3672 ;; Return value:  Size  Location     Type
  3673 ;;                  2   49[COMRAM] int 
  3674 ;; Registers used:
  3675 ;;		wreg, fsr2l, fsr2h, status,2, status,0, tblptrl, tblptrh, tblptru
  3676 ;; Tracked objects:
  3677 ;;		On entry : 0/0
  3678 ;;		On exit  : 0/0
  3679 ;;		Unchanged: 0/0
  3680 ;; Data sizes:     COMRAM   BANK0   BANK1   BANK2   BANK3   BANK4   BANK5
  3681 ;;      Params:         6       0       0       0       0       0       0
  3682 ;;      Locals:         0       4       0       0       0       0       0
  3683 ;;      Temps:          0       1       0       0       0       0       0
  3684 ;;      Totals:         6       5       0       0       0       0       0
  3685 ;;Total ram usage:       11 bytes
  3686 ;; Hardware stack levels used: 1
  3687 ;; Hardware stack levels required when called: 5
  3688 ;; This function calls:
  3689 ;;		Nothing
  3690 ;; This function is called by:
  3691 ;;		_vfpfcnvrt
  3692 ;; This function uses a non-reentrant model
  3693 ;;
  3694                           
  3695                           	psect	text15
  3696  003DC0                     __ptext15:
  3697                           	callstack 0
  3698  003DC0                     _strncmp:
  3699                           	callstack 21
  3700  003DC0  C032  F081         	movff	strncmp@_l,strncmp@l
  3701  003DC4  C033  F082         	movff	strncmp@_l+1,strncmp@l+1
  3702  003DC8  C034  F083         	movff	strncmp@_r,strncmp@r
  3703  003DCC  C035  F084         	movff	strncmp@_r+1,strncmp@r+1
  3704  003DD0  0636               	decf	strncmp@n^0,f,c
  3705  003DD2  A0D8               	btfss	status,0,c
  3706  003DD4  0637               	decf	(strncmp@n+1)^0,f,c
  3707  003DD6  2836               	incf	strncmp@n^0,w,c
  3708  003DD8  E106               	bnz	u8401
  3709  003DDA  2837               	incf	(strncmp@n+1)^0,w,c
  3710  003DDC  A4D8               	btfss	status,2,c
  3711  003DDE  EFF3  F01E         	goto	u8401
  3712  003DE2  EFF5  F01E         	goto	u8400
  3713  003DE6                     u8401:
  3714  003DE6  EF02  F01F         	goto	l6224
  3715  003DEA                     u8400:
  3716  003DEA  0E00               	movlw	0
  3717  003DEC  6E33               	movwf	(?_strncmp+1)^0,c
  3718  003DEE  0E00               	movlw	0
  3719  003DF0  6E32               	movwf	?_strncmp^0,c
  3720  003DF2  EF4C  F01F         	goto	l1112
  3721  003DF6                     l6222:
  3722                           
  3723                           ; BSR set to: 0
  3724  003DF6  4B81               	infsnz	strncmp@l& (0+255),f,b
  3725  003DF8  2B82               	incf	(strncmp@l+1)& (0+255),f,b
  3726  003DFA  4B83               	infsnz	strncmp@r& (0+255),f,b
  3727  003DFC  2B84               	incf	(strncmp@r+1)& (0+255),f,b
  3728  003DFE  0636               	decf	strncmp@n^0,f,c
  3729  003E00  A0D8               	btfss	status,0,c
  3730  003E02  0637               	decf	(strncmp@n+1)^0,f,c
  3731  003E04                     l6224:
  3732  003E04  C081  FFD9         	movff	strncmp@l,fsr2l
  3733  003E08  C082  FFDA         	movff	strncmp@l+1,fsr2h
  3734  003E0C  50DF               	movf	indf2,w,c
  3735  003E0E  B4D8               	btfsc	status,2,c
  3736  003E10  EF0C  F01F         	goto	u8411
  3737  003E14  EF0E  F01F         	goto	u8410
  3738  003E18                     u8411:
  3739  003E18  EF3A  F01F         	goto	l6232
  3740  003E1C                     u8410:
  3741  003E1C  C083  FFF6         	movff	strncmp@r,tblptrl
  3742  003E20  C084  FFF7         	movff	strncmp@r+1,tblptrh
  3743  003E24                     	if	0	;tblptru may be non-zero
  3744  003E24                     	endif
  3745  003E24                     	if	0	;tblptru may be non-zero
  3746  003E24                     	endif
  3747  003E24  0008               	tblrd		*
  3748  003E26  50F5               	movf	tablat,w,c
  3749  003E28  0900               	iorlw	0
  3750  003E2A  B4D8               	btfsc	status,2,c
  3751  003E2C  EF1A  F01F         	goto	u8421
  3752  003E30  EF1C  F01F         	goto	u8420
  3753  003E34                     u8421:
  3754  003E34  EF3A  F01F         	goto	l6232
  3755  003E38                     u8420:
  3756  003E38  5036               	movf	strncmp@n^0,w,c
  3757  003E3A  1037               	iorwf	(strncmp@n+1)^0,w,c
  3758  003E3C  B4D8               	btfsc	status,2,c
  3759  003E3E  EF23  F01F         	goto	u8431
  3760  003E42  EF25  F01F         	goto	u8430
  3761  003E46                     u8431:
  3762  003E46  EF3A  F01F         	goto	l6232
  3763  003E4A                     u8430:
  3764  003E4A  C081  FFD9         	movff	strncmp@l,fsr2l
  3765  003E4E  C082  FFDA         	movff	strncmp@l+1,fsr2h
  3766  003E52  50DF               	movf	indf2,w,c
  3767  003E54  0100               	movlb	0	; () banked
  3768  003E56  6F80               	movwf	??_strncmp& (0+255),b
  3769  003E58  C083  FFF6         	movff	strncmp@r,tblptrl
  3770  003E5C  C084  FFF7         	movff	strncmp@r+1,tblptrh
  3771  003E60                     	if	0	;tblptru may be non-zero
  3772  003E60                     	endif
  3773  003E60                     	if	0	;tblptru may be non-zero
  3774  003E60                     	endif
  3775  003E60  0008               	tblrd		*
  3776  003E62  50F5               	movf	tablat,w,c
  3777  003E64  1980               	xorwf	??_strncmp& (0+255),w,b
  3778  003E66  B4D8               	btfsc	status,2,c
  3779  003E68  EF38  F01F         	goto	u8441
  3780  003E6C  EF3A  F01F         	goto	u8440
  3781  003E70                     u8441:
  3782  003E70  EFFB  F01E         	goto	l6222
  3783  003E74                     u8440:
  3784  003E74                     l6232:
  3785  003E74  C081  FFD9         	movff	strncmp@l,fsr2l
  3786  003E78  C082  FFDA         	movff	strncmp@l+1,fsr2h
  3787  003E7C  50DF               	movf	indf2,w,c
  3788  003E7E  0100               	movlb	0	; () banked
  3789  003E80  6F80               	movwf	??_strncmp& (0+255),b
  3790  003E82  C083  FFF6         	movff	strncmp@r,tblptrl
  3791  003E86  C084  FFF7         	movff	strncmp@r+1,tblptrh
  3792  003E8A                     	if	0	;tblptru may be non-zero
  3793  003E8A                     	endif
  3794  003E8A                     	if	0	;tblptru may be non-zero
  3795  003E8A                     	endif
  3796  003E8A  0008               	tblrd		*
  3797  003E8C  50F5               	movf	tablat,w,c
  3798  003E8E  5D80               	subwf	??_strncmp& (0+255),w,b
  3799  003E90  6E32               	movwf	?_strncmp^0,c
  3800  003E92  6A33               	clrf	(?_strncmp+1)^0,c
  3801  003E94  A0D8               	btfss	status,0,c
  3802  003E96  0633               	decf	(?_strncmp+1)^0,f,c
  3803  003E98                     l1112:
  3804  003E98  0012               	return		;funcret
  3805  003E9A                     __end_of_strncmp:
  3806                           	callstack 0
  3807                           
  3808 ;; *************** function _efgtoa *****************
  3809 ;; Defined at:
  3810 ;;		line 332 in file "C:\Program Files\Microchip\xc8\v2.36\pic\sources\c99\common\doprnt.c"
  3811 ;; Parameters:    Size  Location     Type
  3812 ;;  fp              2   47[BANK0 ] PTR struct _IO_FILE
  3813 ;;		 -> sprintf@f(11), 
  3814 ;;  f               4   49[BANK0 ] PTR struct _IO_FILE
  3815 ;;  c               1   53[BANK0 ] unsigned char 
  3816 ;; Auto vars:     Size  Location     Type
  3817 ;;  u               4  105[BANK0 ] unsigned char 
  3818 ;;  g               4   97[BANK0 ] unsigned char 
  3819 ;;  l               4   91[BANK0 ] unsigned char 
  3820 ;;  h               4   87[BANK0 ] unsigned char 
  3821 ;;  ou              4   73[BANK0 ] unsigned char 
  3822 ;;  n               2  103[BANK0 ] int 
  3823 ;;  e               2  101[BANK0 ] int 
  3824 ;;  i               2   95[BANK0 ] int 
  3825 ;;  w               2   83[BANK0 ] int 
  3826 ;;  p               2   81[BANK0 ] int 
  3827 ;;  sign            2   79[BANK0 ] int 
  3828 ;;  d               2   77[BANK0 ] int 
  3829 ;;  m               2   71[BANK0 ] int 
  3830 ;;  ne              2   69[BANK0 ] int 
  3831 ;;  pp              2   67[BANK0 ] int 
  3832 ;;  t               2   65[BANK0 ] int 
  3833 ;;  mode            1   86[BANK0 ] unsigned char 
  3834 ;;  nmode           1   85[BANK0 ] unsigned char 
  3835 ;; Return value:  Size  Location     Type
  3836 ;;                  2   47[BANK0 ] int 
  3837 ;; Registers used:
  3838 ;;		wreg, fsr1l, fsr1h, fsr2l, fsr2h, status,2, status,0, tblptrl, tblptrh, tblptru, prodl, prodh, cstack
  3839 ;; Tracked objects:
  3840 ;;		On entry : 0/0
  3841 ;;		On exit  : 0/0
  3842 ;;		Unchanged: 0/0
  3843 ;; Data sizes:     COMRAM   BANK0   BANK1   BANK2   BANK3   BANK4   BANK5
  3844 ;;      Params:         0       7       0       0       0       0       0
  3845 ;;      Locals:         0      50       0       0       0       0       0
  3846 ;;      Temps:          0       5       0       0       0       0       0
  3847 ;;      Totals:         0      62       0       0       0       0       0
  3848 ;;Total ram usage:       62 bytes
  3849 ;; Hardware stack levels used: 1
  3850 ;; Hardware stack levels required when called: 9
  3851 ;; This function calls:
  3852 ;;		___awdiv
  3853 ;;		___awmod
  3854 ;;		___fladd
  3855 ;;		___fldiv
  3856 ;;		___fleq
  3857 ;;		___flge
  3858 ;;		___flmul
  3859 ;;		___flneg
  3860 ;;		___flsub
  3861 ;;		___fltol
  3862 ;;		___fpclassifyf
  3863 ;;		_floorf
  3864 ;;		_isupper
  3865 ;;		_pad
  3866 ;;		_strcpy
  3867 ;;		_tolower
  3868 ;; This function is called by:
  3869 ;;		_vfpfcnvrt
  3870 ;; This function uses a non-reentrant model
  3871 ;;
  3872                           
  3873                           	psect	text16
  3874  000668                     __ptext16:
  3875                           	callstack 0
  3876  000668                     _efgtoa:
  3877                           	callstack 17
  3878  000668                     
  3879                           ;C:\Program Files\Microchip\xc8\v2.36\pic\sources\c99\common\doprnt.c: 332: static int e
      +                          fgtoa(FILE *fp, long double f, char c);C:\Program Files\Microchip\xc8\v2.36\pic\sources\
      +                          c99\common\doprnt.c: 333: {;C:\Program Files\Microchip\xc8\v2.36\pic\sources\c99\common\
      +                          doprnt.c: 334:     char mode, nmode;;C:\Program Files\Microchip\xc8\v2.36\pic\sources\c9
      +                          9\common\doprnt.c: 335:     int d, e, i, m, n, ne, p, pp, sign, t, w;;C:\Program Files\M
      +                          icrochip\xc8\v2.36\pic\sources\c99\common\doprnt.c: 336:     long double g, h, l, ou, u;
  3880  000668  0E00               	movlw	0
  3881  00066A  0100               	movlb	0	; () banked
  3882  00066C  6FD0               	movwf	(efgtoa@sign+1)& (0+255),b
  3883  00066E  0E00               	movlw	0
  3884  000670  6FCF               	movwf	efgtoa@sign& (0+255),b
  3885  000672                     
  3886                           ; BSR set to: 0
  3887                           ;C:\Program Files\Microchip\xc8\v2.36\pic\sources\c99\common\doprnt.c: 340:     g = f;
  3888  000672  C0B1  F0E1         	movff	efgtoa@f,efgtoa@g
  3889  000676  C0B2  F0E2         	movff	efgtoa@f+1,efgtoa@g+1
  3890  00067A  C0B3  F0E3         	movff	efgtoa@f+2,efgtoa@g+2
  3891  00067E  C0B4  F0E4         	movff	efgtoa@f+3,efgtoa@g+3
  3892  000682                     
  3893                           ; BSR set to: 0
  3894                           ;C:\Program Files\Microchip\xc8\v2.36\pic\sources\c99\common\doprnt.c: 341:     if (g < 
      +                          0.0) {
  3895  000682  BFE4               	btfsc	(efgtoa@g+3)& (0+255),7,b
  3896  000684  EF48  F003         	goto	u7880
  3897  000688  EF46  F003         	goto	u7881
  3898  00068C                     u7881:
  3899  00068C  EF5E  F003         	goto	l5888
  3900  000690                     u7880:
  3901  000690                     
  3902                           ; BSR set to: 0
  3903                           ;C:\Program Files\Microchip\xc8\v2.36\pic\sources\c99\common\doprnt.c: 342:         sign
      +                           = 1;
  3904  000690  0E00               	movlw	0
  3905  000692  6FD0               	movwf	(efgtoa@sign+1)& (0+255),b
  3906  000694  0E01               	movlw	1
  3907  000696  6FCF               	movwf	efgtoa@sign& (0+255),b
  3908  000698                     
  3909                           ; BSR set to: 0
  3910                           ;C:\Program Files\Microchip\xc8\v2.36\pic\sources\c99\common\doprnt.c: 343:         g = 
      +                          -g;
  3911  000698  C0E1  F032         	movff	efgtoa@g,___flneg@f1
  3912  00069C  C0E2  F033         	movff	efgtoa@g+1,___flneg@f1+1
  3913  0006A0  C0E3  F034         	movff	efgtoa@g+2,___flneg@f1+2
  3914  0006A4  C0E4  F035         	movff	efgtoa@g+3,___flneg@f1+3
  3915  0006A8  EC0F  F024         	call	___flneg	;wreg free
  3916  0006AC  C032  F0E1         	movff	?___flneg,efgtoa@g
  3917  0006B0  C033  F0E2         	movff	?___flneg+1,efgtoa@g+1
  3918  0006B4  C034  F0E3         	movff	?___flneg+2,efgtoa@g+2
  3919  0006B8  C035  F0E4         	movff	?___flneg+3,efgtoa@g+3
  3920  0006BC                     l5888:
  3921                           
  3922                           ;C:\Program Files\Microchip\xc8\v2.36\pic\sources\c99\common\doprnt.c: 347:     n = 0;
  3923  0006BC  0E00               	movlw	0
  3924  0006BE  0100               	movlb	0	; () banked
  3925  0006C0  6FE8               	movwf	(efgtoa@n+1)& (0+255),b
  3926  0006C2  0E00               	movlw	0
  3927  0006C4  6FE7               	movwf	efgtoa@n& (0+255),b
  3928  0006C6                     
  3929                           ; BSR set to: 0
  3930                           ;C:\Program Files\Microchip\xc8\v2.36\pic\sources\c99\common\doprnt.c: 348:     w = widt
      +                          h;
  3931  0006C6  C046  F0D3         	movff	_width,efgtoa@w
  3932  0006CA  C047  F0D4         	movff	_width+1,efgtoa@w+1
  3933  0006CE                     
  3934                           ; BSR set to: 0
  3935                           ;C:\Program Files\Microchip\xc8\v2.36\pic\sources\c99\common\doprnt.c: 349:     if (sign
      +                           || (flags & (1 << 2))) {
  3936  0006CE  51CF               	movf	efgtoa@sign& (0+255),w,b
  3937  0006D0  11D0               	iorwf	(efgtoa@sign+1)& (0+255),w,b
  3938  0006D2  A4D8               	btfss	status,2,c
  3939  0006D4  EF6E  F003         	goto	u7891
  3940  0006D8  EF70  F003         	goto	u7890
  3941  0006DC                     u7891:
  3942  0006DC  EF77  F003         	goto	l5896
  3943  0006E0                     u7890:
  3944  0006E0                     
  3945                           ; BSR set to: 0
  3946  0006E0  A448               	btfss	_flags^0,2,c
  3947  0006E2  EF75  F003         	goto	u7901
  3948  0006E6  EF77  F003         	goto	u7900
  3949  0006EA                     u7901:
  3950  0006EA  EF91  F003         	goto	l5908
  3951  0006EE                     u7900:
  3952  0006EE                     l5896:
  3953                           
  3954                           ; BSR set to: 0
  3955                           ;C:\Program Files\Microchip\xc8\v2.36\pic\sources\c99\common\doprnt.c: 350:         dbuf
      +                          [n] = sign ? '-' : '+';
  3956  0006EE  51CF               	movf	efgtoa@sign& (0+255),w,b
  3957  0006F0  11D0               	iorwf	(efgtoa@sign+1)& (0+255),w,b
  3958  0006F2  A4D8               	btfss	status,2,c
  3959  0006F4  EF7E  F003         	goto	u7911
  3960  0006F8  EF80  F003         	goto	u7910
  3961  0006FC                     u7911:
  3962  0006FC  EF86  F003         	goto	l5900
  3963  000700                     u7910:
  3964  000700                     
  3965                           ; BSR set to: 0
  3966  000700  0E00               	movlw	0
  3967  000702  6FBC               	movwf	(_efgtoa$1117+1)& (0+255),b
  3968  000704  0E2B               	movlw	43
  3969  000706  6FBB               	movwf	_efgtoa$1117& (0+255),b
  3970  000708  EF8A  F003         	goto	l5902
  3971  00070C                     l5900:
  3972                           
  3973                           ; BSR set to: 0
  3974  00070C  0E00               	movlw	0
  3975  00070E  6FBC               	movwf	(_efgtoa$1117+1)& (0+255),b
  3976  000710  0E2D               	movlw	45
  3977  000712  6FBB               	movwf	_efgtoa$1117& (0+255),b
  3978  000714                     l5902:
  3979                           
  3980                           ; BSR set to: 0
  3981  000714  C0BB  F100         	movff	_efgtoa$1117,_dbuf
  3982  000718                     
  3983                           ; BSR set to: 0
  3984                           ;C:\Program Files\Microchip\xc8\v2.36\pic\sources\c99\common\doprnt.c: 351:         ++n;
  3985  000718  4BE7               	infsnz	efgtoa@n& (0+255),f,b
  3986  00071A  2BE8               	incf	(efgtoa@n+1)& (0+255),f,b
  3987  00071C                     
  3988                           ; BSR set to: 0
  3989                           ;C:\Program Files\Microchip\xc8\v2.36\pic\sources\c99\common\doprnt.c: 352:         --w;
  3990  00071C  07D3               	decf	efgtoa@w& (0+255),f,b
  3991  00071E  A0D8               	btfss	status,0,c
  3992  000720  07D4               	decf	(efgtoa@w+1)& (0+255),f,b
  3993  000722                     l5908:
  3994                           
  3995                           ; BSR set to: 0
  3996                           ;C:\Program Files\Microchip\xc8\v2.36\pic\sources\c99\common\doprnt.c: 356:     if (( __
      +                          fpclassifyf(g) == 1 )) {
  3997  000722  C0E1  F032         	movff	efgtoa@g,___fpclassifyf@x
  3998  000726  C0E2  F033         	movff	efgtoa@g+1,___fpclassifyf@x+1
  3999  00072A  C0E3  F034         	movff	efgtoa@g+2,___fpclassifyf@x+2
  4000  00072E  C0E4  F035         	movff	efgtoa@g+3,___fpclassifyf@x+3
  4001  000732  ECFF  F01C         	call	___fpclassifyf	;wreg free
  4002  000736  0432               	decf	?___fpclassifyf^0,w,c
  4003  000738  1033               	iorwf	(?___fpclassifyf+1)^0,w,c
  4004  00073A  A4D8               	btfss	status,2,c
  4005  00073C  EFA2  F003         	goto	u7921
  4006  000740  EFA4  F003         	goto	u7920
  4007  000744                     u7921:
  4008  000744  EFEF  F003         	goto	l5926
  4009  000748                     u7920:
  4010  000748  0EBF               	movlw	191
  4011  00074A  0100               	movlb	0	; () banked
  4012  00074C  6FB6               	movwf	??_efgtoa& (0+255),b
  4013  00074E  0EFF               	movlw	255
  4014  000750  6FB7               	movwf	(??_efgtoa+1)& (0+255),b
  4015  000752  51B5               	movf	efgtoa@c& (0+255),w,b
  4016  000754  6FB8               	movwf	(??_efgtoa+2)& (0+255),b
  4017  000756  6BB9               	clrf	(??_efgtoa+3)& (0+255),b
  4018  000758  51B6               	movf	??_efgtoa& (0+255),w,b
  4019  00075A  27B8               	addwf	(??_efgtoa+2)& (0+255),f,b
  4020  00075C  51B7               	movf	(??_efgtoa+1)& (0+255),w,b
  4021  00075E  23B9               	addwfc	(??_efgtoa+3)& (0+255),f,b
  4022  000760  51B9               	movf	(??_efgtoa+3)& (0+255),w,b
  4023  000762  E107               	bnz	u7931
  4024  000764  0E1A               	movlw	26
  4025  000766  5DB8               	subwf	(??_efgtoa+2)& (0+255),w,b
  4026  000768  B0D8               	btfsc	status,0,c
  4027  00076A  EFB9  F003         	goto	u7931
  4028  00076E  EFBB  F003         	goto	u7930
  4029  000772                     u7931:
  4030  000772  EFC9  F003         	goto	l5918
  4031  000776                     u7930:
  4032  000776                     
  4033                           ; BSR set to: 0
  4034                           ;C:\Program Files\Microchip\xc8\v2.36\pic\sources\c99\common\doprnt.c: 358:             
      +                          strcpy(&dbuf[n], "INF");
  4035  000776  0E00               	movlw	low _dbuf
  4036  000778  25E7               	addwf	efgtoa@n& (0+255),w,b
  4037  00077A  6E32               	movwf	strcpy@dest^0,c
  4038  00077C  0E01               	movlw	high _dbuf
  4039  00077E  21E8               	addwfc	(efgtoa@n+1)& (0+255),w,b
  4040  000780  6E33               	movwf	(strcpy@dest+1)^0,c
  4041  000782  0E53               	movlw	low STR_7
  4042  000784  6E34               	movwf	strcpy@src^0,c
  4043  000786  0E06               	movlw	high STR_7
  4044  000788  6E35               	movwf	(strcpy@src+1)^0,c
  4045  00078A  EC05  F023         	call	_strcpy	;wreg free
  4046                           
  4047                           ;C:\Program Files\Microchip\xc8\v2.36\pic\sources\c99\common\doprnt.c: 359:         } el
      +                          se {
  4048  00078E  EFD5  F003         	goto	l5920
  4049  000792                     l5918:
  4050                           
  4051                           ; BSR set to: 0
  4052                           ;C:\Program Files\Microchip\xc8\v2.36\pic\sources\c99\common\doprnt.c: 360:             
      +                          strcpy(&dbuf[n], "inf");
  4053  000792  0E00               	movlw	low _dbuf
  4054  000794  25E7               	addwf	efgtoa@n& (0+255),w,b
  4055  000796  6E32               	movwf	strcpy@dest^0,c
  4056  000798  0E01               	movlw	high _dbuf
  4057  00079A  21E8               	addwfc	(efgtoa@n+1)& (0+255),w,b
  4058  00079C  6E33               	movwf	(strcpy@dest+1)^0,c
  4059  00079E  0E5B               	movlw	low STR_8
  4060  0007A0  6E34               	movwf	strcpy@src^0,c
  4061  0007A2  0E06               	movlw	high STR_8
  4062  0007A4  6E35               	movwf	(strcpy@src+1)^0,c
  4063  0007A6  EC05  F023         	call	_strcpy	;wreg free
  4064  0007AA                     l5920:
  4065                           
  4066                           ;C:\Program Files\Microchip\xc8\v2.36\pic\sources\c99\common\doprnt.c: 362:         w -=
      +                           ((sizeof("inf")/sizeof("inf"[0]))-1);
  4067  0007AA  0100               	movlb	0	; () banked
  4068  0007AC  0EFD               	movlw	253
  4069  0007AE  27D3               	addwf	efgtoa@w& (0+255),f,b
  4070  0007B0  0EFF               	movlw	255
  4071  0007B2  23D4               	addwfc	(efgtoa@w+1)& (0+255),f,b
  4072  0007B4                     l5922:
  4073                           
  4074                           ;C:\Program Files\Microchip\xc8\v2.36\pic\sources\c99\common\doprnt.c: 363:         retu
      +                          rn pad(fp, &dbuf[0], w);
  4075  0007B4  C0AF  F08C         	movff	efgtoa@fp,pad@fp
  4076  0007B8  C0B0  F08D         	movff	efgtoa@fp+1,pad@fp+1
  4077  0007BC  0E00               	movlw	low _dbuf
  4078  0007BE  0100               	movlb	0	; () banked
  4079  0007C0  6F8E               	movwf	pad@buf& (0+255),b
  4080  0007C2  0E01               	movlw	high _dbuf
  4081  0007C4  6F8F               	movwf	(pad@buf+1)& (0+255),b
  4082  0007C6  C0D3  F090         	movff	efgtoa@w,pad@p
  4083  0007CA  C0D4  F091         	movff	efgtoa@w+1,pad@p+1
  4084  0007CE  ECB4  F01F         	call	_pad	;wreg free
  4085  0007D2  C08C  F0AF         	movff	?_pad,?_efgtoa
  4086  0007D6  C08D  F0B0         	movff	?_pad+1,?_efgtoa+1
  4087  0007DA  EF3F  F009         	goto	l906
  4088  0007DE                     l5926:
  4089                           
  4090                           ;C:\Program Files\Microchip\xc8\v2.36\pic\sources\c99\common\doprnt.c: 365:     if (( __
      +                          fpclassifyf(g) == 0 )) {
  4091  0007DE  C0E1  F032         	movff	efgtoa@g,___fpclassifyf@x
  4092  0007E2  C0E2  F033         	movff	efgtoa@g+1,___fpclassifyf@x+1
  4093  0007E6  C0E3  F034         	movff	efgtoa@g+2,___fpclassifyf@x+2
  4094  0007EA  C0E4  F035         	movff	efgtoa@g+3,___fpclassifyf@x+3
  4095  0007EE  ECFF  F01C         	call	___fpclassifyf	;wreg free
  4096  0007F2  5032               	movf	?___fpclassifyf^0,w,c
  4097  0007F4  1033               	iorwf	(?___fpclassifyf+1)^0,w,c
  4098  0007F6  A4D8               	btfss	status,2,c
  4099  0007F8  EF00  F004         	goto	u7941
  4100  0007FC  EF02  F004         	goto	u7940
  4101  000800                     u7941:
  4102  000800  EF35  F004         	goto	l5944
  4103  000804                     u7940:
  4104  000804  0EBF               	movlw	191
  4105  000806  0100               	movlb	0	; () banked
  4106  000808  6FB6               	movwf	??_efgtoa& (0+255),b
  4107  00080A  0EFF               	movlw	255
  4108  00080C  6FB7               	movwf	(??_efgtoa+1)& (0+255),b
  4109  00080E  51B5               	movf	efgtoa@c& (0+255),w,b
  4110  000810  6FB8               	movwf	(??_efgtoa+2)& (0+255),b
  4111  000812  6BB9               	clrf	(??_efgtoa+3)& (0+255),b
  4112  000814  51B6               	movf	??_efgtoa& (0+255),w,b
  4113  000816  27B8               	addwf	(??_efgtoa+2)& (0+255),f,b
  4114  000818  51B7               	movf	(??_efgtoa+1)& (0+255),w,b
  4115  00081A  23B9               	addwfc	(??_efgtoa+3)& (0+255),f,b
  4116  00081C  51B9               	movf	(??_efgtoa+3)& (0+255),w,b
  4117  00081E  E107               	bnz	u7951
  4118  000820  0E1A               	movlw	26
  4119  000822  5DB8               	subwf	(??_efgtoa+2)& (0+255),w,b
  4120  000824  B0D8               	btfsc	status,0,c
  4121  000826  EF17  F004         	goto	u7951
  4122  00082A  EF19  F004         	goto	u7950
  4123  00082E                     u7951:
  4124  00082E  EF27  F004         	goto	l5936
  4125  000832                     u7950:
  4126  000832                     
  4127                           ; BSR set to: 0
  4128                           ;C:\Program Files\Microchip\xc8\v2.36\pic\sources\c99\common\doprnt.c: 367:             
      +                          strcpy(&dbuf[n], "NAN");
  4129  000832  0E00               	movlw	low _dbuf
  4130  000834  25E7               	addwf	efgtoa@n& (0+255),w,b
  4131  000836  6E32               	movwf	strcpy@dest^0,c
  4132  000838  0E01               	movlw	high _dbuf
  4133  00083A  21E8               	addwfc	(efgtoa@n+1)& (0+255),w,b
  4134  00083C  6E33               	movwf	(strcpy@dest+1)^0,c
  4135  00083E  0E57               	movlw	low STR_11
  4136  000840  6E34               	movwf	strcpy@src^0,c
  4137  000842  0E06               	movlw	high STR_11
  4138  000844  6E35               	movwf	(strcpy@src+1)^0,c
  4139  000846  EC05  F023         	call	_strcpy	;wreg free
  4140                           
  4141                           ;C:\Program Files\Microchip\xc8\v2.36\pic\sources\c99\common\doprnt.c: 368:         } el
      +                          se {
  4142  00084A  EFD5  F003         	goto	l5920
  4143  00084E                     l5936:
  4144                           
  4145                           ; BSR set to: 0
  4146                           ;C:\Program Files\Microchip\xc8\v2.36\pic\sources\c99\common\doprnt.c: 369:             
      +                          strcpy(&dbuf[n], "nan");
  4147  00084E  0E00               	movlw	low _dbuf
  4148  000850  25E7               	addwf	efgtoa@n& (0+255),w,b
  4149  000852  6E32               	movwf	strcpy@dest^0,c
  4150  000854  0E01               	movlw	high _dbuf
  4151  000856  21E8               	addwfc	(efgtoa@n+1)& (0+255),w,b
  4152  000858  6E33               	movwf	(strcpy@dest+1)^0,c
  4153  00085A  0E5F               	movlw	low STR_12
  4154  00085C  6E34               	movwf	strcpy@src^0,c
  4155  00085E  0E06               	movlw	high STR_12
  4156  000860  6E35               	movwf	(strcpy@src+1)^0,c
  4157  000862  EC05  F023         	call	_strcpy	;wreg free
  4158  000866  EFD5  F003         	goto	l5920
  4159  00086A                     l5944:
  4160                           
  4161                           ;C:\Program Files\Microchip\xc8\v2.36\pic\sources\c99\common\doprnt.c: 376:     u = 1.0;
  4162  00086A  0E00               	movlw	0
  4163  00086C  0100               	movlb	0	; () banked
  4164  00086E  6FE9               	movwf	efgtoa@u& (0+255),b
  4165  000870  0E00               	movlw	0
  4166  000872  6FEA               	movwf	(efgtoa@u+1)& (0+255),b
  4167  000874  0E80               	movlw	128
  4168  000876  6FEB               	movwf	(efgtoa@u+2)& (0+255),b
  4169  000878  0E3F               	movlw	63
  4170  00087A  6FEC               	movwf	(efgtoa@u+3)& (0+255),b
  4171                           
  4172                           ;C:\Program Files\Microchip\xc8\v2.36\pic\sources\c99\common\doprnt.c: 377:     e = 0;
  4173  00087C  0E00               	movlw	0
  4174  00087E  6FE6               	movwf	(efgtoa@e+1)& (0+255),b
  4175  000880  0E00               	movlw	0
  4176  000882  6FE5               	movwf	efgtoa@e& (0+255),b
  4177  000884                     
  4178                           ; BSR set to: 0
  4179                           ;C:\Program Files\Microchip\xc8\v2.36\pic\sources\c99\common\doprnt.c: 378:     if (!(g 
      +                          == 0.0)) {
  4180  000884  C0E1  F080         	movff	efgtoa@g,___fleq@ff1
  4181  000888  C0E2  F081         	movff	efgtoa@g+1,___fleq@ff1+1
  4182  00088C  C0E3  F082         	movff	efgtoa@g+2,___fleq@ff1+2
  4183  000890  C0E4  F083         	movff	efgtoa@g+3,___fleq@ff1+3
  4184  000894  0E00               	movlw	0
  4185  000896  6F84               	movwf	___fleq@ff2& (0+255),b
  4186  000898  0E00               	movlw	0
  4187  00089A  6F85               	movwf	(___fleq@ff2+1)& (0+255),b
  4188  00089C  0E00               	movlw	0
  4189  00089E  6F86               	movwf	(___fleq@ff2+2)& (0+255),b
  4190  0008A0  0E00               	movlw	0
  4191  0008A2  6F87               	movwf	(___fleq@ff2+3)& (0+255),b
  4192  0008A4  ECD3  F020         	call	___fleq	;wreg free
  4193  0008A8  0100               	movlb	0	; () banked
  4194  0008AA  B0D8               	btfsc	status,0,c
  4195  0008AC  EF5A  F004         	goto	u7961
  4196  0008B0  EF5C  F004         	goto	u7960
  4197  0008B4                     u7961:
  4198  0008B4  EFE1  F004         	goto	l5962
  4199  0008B8                     u7960:
  4200  0008B8  EF7B  F004         	goto	l5954
  4201  0008BC                     l5950:
  4202                           
  4203                           ; BSR set to: 0
  4204                           ;C:\Program Files\Microchip\xc8\v2.36\pic\sources\c99\common\doprnt.c: 380:             
      +                          u = u*10.0;
  4205  0008BC  C0E9  F08A         	movff	efgtoa@u,___flmul@b
  4206  0008C0  C0EA  F08B         	movff	efgtoa@u+1,___flmul@b+1
  4207  0008C4  C0EB  F08C         	movff	efgtoa@u+2,___flmul@b+2
  4208  0008C8  C0EC  F08D         	movff	efgtoa@u+3,___flmul@b+3
  4209  0008CC  0E00               	movlw	0
  4210  0008CE  6F8E               	movwf	___flmul@a& (0+255),b
  4211  0008D0  0E00               	movlw	0
  4212  0008D2  6F8F               	movwf	(___flmul@a+1)& (0+255),b
  4213  0008D4  0E20               	movlw	32
  4214  0008D6  6F90               	movwf	(___flmul@a+2)& (0+255),b
  4215  0008D8  0E41               	movlw	65
  4216  0008DA  6F91               	movwf	(___flmul@a+3)& (0+255),b
  4217  0008DC  ECC3  F00D         	call	___flmul	;wreg free
  4218  0008E0  C08A  F0E9         	movff	?___flmul,efgtoa@u
  4219  0008E4  C08B  F0EA         	movff	?___flmul+1,efgtoa@u+1
  4220  0008E8  C08C  F0EB         	movff	?___flmul+2,efgtoa@u+2
  4221  0008EC  C08D  F0EC         	movff	?___flmul+3,efgtoa@u+3
  4222  0008F0                     
  4223                           ;C:\Program Files\Microchip\xc8\v2.36\pic\sources\c99\common\doprnt.c: 381:             
      +                          ++e;
  4224  0008F0  0100               	movlb	0	; () banked
  4225  0008F2  4BE5               	infsnz	efgtoa@e& (0+255),f,b
  4226  0008F4  2BE6               	incf	(efgtoa@e+1)& (0+255),f,b
  4227  0008F6                     l5954:
  4228                           
  4229                           ; BSR set to: 0
  4230                           ;C:\Program Files\Microchip\xc8\v2.36\pic\sources\c99\common\doprnt.c: 379:         whil
      +                          e (!(g < (u*10.0))) {
  4231  0008F6  C0E1  F0A3         	movff	efgtoa@g,___flge@ff1
  4232  0008FA  C0E2  F0A4         	movff	efgtoa@g+1,___flge@ff1+1
  4233  0008FE  C0E3  F0A5         	movff	efgtoa@g+2,___flge@ff1+2
  4234  000902  C0E4  F0A6         	movff	efgtoa@g+3,___flge@ff1+3
  4235  000906  0E00               	movlw	0
  4236  000908  6F8E               	movwf	___flmul@a& (0+255),b
  4237  00090A  0E00               	movlw	0
  4238  00090C  6F8F               	movwf	(___flmul@a+1)& (0+255),b
  4239  00090E  0E20               	movlw	32
  4240  000910  6F90               	movwf	(___flmul@a+2)& (0+255),b
  4241  000912  0E41               	movlw	65
  4242  000914  6F91               	movwf	(___flmul@a+3)& (0+255),b
  4243  000916  C0E9  F08A         	movff	efgtoa@u,___flmul@b
  4244  00091A  C0EA  F08B         	movff	efgtoa@u+1,___flmul@b+1
  4245  00091E  C0EB  F08C         	movff	efgtoa@u+2,___flmul@b+2
  4246  000922  C0EC  F08D         	movff	efgtoa@u+3,___flmul@b+3
  4247  000926  ECC3  F00D         	call	___flmul	;wreg free
  4248  00092A  C08A  F0A7         	movff	?___flmul,___flge@ff2
  4249  00092E  C08B  F0A8         	movff	?___flmul+1,___flge@ff2+1
  4250  000932  C08C  F0A9         	movff	?___flmul+2,___flge@ff2+2
  4251  000936  C08D  F0AA         	movff	?___flmul+3,___flge@ff2+3
  4252  00093A  ECFA  F01B         	call	___flge	;wreg free
  4253  00093E  0100               	movlb	0	; () banked
  4254  000940  B0D8               	btfsc	status,0,c
  4255  000942  EFA5  F004         	goto	u7971
  4256  000946  EFA7  F004         	goto	u7970
  4257  00094A                     u7971:
  4258  00094A  EF5E  F004         	goto	l5950
  4259  00094E                     u7970:
  4260  00094E  EFC7  F004         	goto	l5960
  4261  000952                     l5956:
  4262                           
  4263                           ; BSR set to: 0
  4264                           ;C:\Program Files\Microchip\xc8\v2.36\pic\sources\c99\common\doprnt.c: 384:             
      +                          u = u/10.0;
  4265  000952  C0E9  F080         	movff	efgtoa@u,___fldiv@b
  4266  000956  C0EA  F081         	movff	efgtoa@u+1,___fldiv@b+1
  4267  00095A  C0EB  F082         	movff	efgtoa@u+2,___fldiv@b+2
  4268  00095E  C0EC  F083         	movff	efgtoa@u+3,___fldiv@b+3
  4269  000962  0E00               	movlw	0
  4270  000964  6F84               	movwf	___fldiv@a& (0+255),b
  4271  000966  0E00               	movlw	0
  4272  000968  6F85               	movwf	(___fldiv@a+1)& (0+255),b
  4273  00096A  0E20               	movlw	32
  4274  00096C  6F86               	movwf	(___fldiv@a+2)& (0+255),b
  4275  00096E  0E41               	movlw	65
  4276  000970  6F87               	movwf	(___fldiv@a+3)& (0+255),b
  4277  000972  ECEE  F011         	call	___fldiv	;wreg free
  4278  000976  C080  F0E9         	movff	?___fldiv,efgtoa@u
  4279  00097A  C081  F0EA         	movff	?___fldiv+1,efgtoa@u+1
  4280  00097E  C082  F0EB         	movff	?___fldiv+2,efgtoa@u+2
  4281  000982  C083  F0EC         	movff	?___fldiv+3,efgtoa@u+3
  4282  000986                     
  4283                           ;C:\Program Files\Microchip\xc8\v2.36\pic\sources\c99\common\doprnt.c: 385:             
      +                          --e;
  4284  000986  0100               	movlb	0	; () banked
  4285  000988  07E5               	decf	efgtoa@e& (0+255),f,b
  4286  00098A  A0D8               	btfss	status,0,c
  4287  00098C  07E6               	decf	(efgtoa@e+1)& (0+255),f,b
  4288  00098E                     l5960:
  4289                           
  4290                           ; BSR set to: 0
  4291                           ;C:\Program Files\Microchip\xc8\v2.36\pic\sources\c99\common\doprnt.c: 383:         whil
      +                          e (g < u) {
  4292  00098E  C0E1  F0A3         	movff	efgtoa@g,___flge@ff1
  4293  000992  C0E2  F0A4         	movff	efgtoa@g+1,___flge@ff1+1
  4294  000996  C0E3  F0A5         	movff	efgtoa@g+2,___flge@ff1+2
  4295  00099A  C0E4  F0A6         	movff	efgtoa@g+3,___flge@ff1+3
  4296  00099E  C0E9  F0A7         	movff	efgtoa@u,___flge@ff2
  4297  0009A2  C0EA  F0A8         	movff	efgtoa@u+1,___flge@ff2+1
  4298  0009A6  C0EB  F0A9         	movff	efgtoa@u+2,___flge@ff2+2
  4299  0009AA  C0EC  F0AA         	movff	efgtoa@u+3,___flge@ff2+3
  4300  0009AE  ECFA  F01B         	call	___flge	;wreg free
  4301  0009B2  0100               	movlb	0	; () banked
  4302  0009B4  A0D8               	btfss	status,0,c
  4303  0009B6  EFDF  F004         	goto	u7981
  4304  0009BA  EFE1  F004         	goto	u7980
  4305  0009BE                     u7981:
  4306  0009BE  EFA9  F004         	goto	l5956
  4307  0009C2                     u7980:
  4308  0009C2                     l5962:
  4309                           
  4310                           ; BSR set to: 0
  4311                           ;C:\Program Files\Microchip\xc8\v2.36\pic\sources\c99\common\doprnt.c: 390:     mode = (
      +                          char)tolower((int)c);
  4312  0009C2  C0B5  F080         	movff	efgtoa@c,tolower@c
  4313  0009C6  6B81               	clrf	(tolower@c+1)& (0+255),b
  4314  0009C8  EC87  F023         	call	_tolower	;wreg free
  4315  0009CC  0100               	movlb	0	; () banked
  4316  0009CE  5180               	movf	?_tolower& (0+255),w,b
  4317  0009D0  6FD6               	movwf	efgtoa@mode& (0+255),b
  4318  0009D2                     
  4319                           ; BSR set to: 0
  4320                           ;C:\Program Files\Microchip\xc8\v2.36\pic\sources\c99\common\doprnt.c: 391:     nmode = 
      +                          mode;
  4321  0009D2  C0D6  F0D5         	movff	efgtoa@mode,efgtoa@nmode
  4322  0009D6                     
  4323                           ; BSR set to: 0
  4324                           ;C:\Program Files\Microchip\xc8\v2.36\pic\sources\c99\common\doprnt.c: 392:     if (mode
      +                           == 'g') {
  4325  0009D6  0E67               	movlw	103
  4326  0009D8  19D6               	xorwf	efgtoa@mode& (0+255),w,b
  4327  0009DA  A4D8               	btfss	status,2,c
  4328  0009DC  EFF2  F004         	goto	u7991
  4329  0009E0  EFF4  F004         	goto	u7990
  4330  0009E4                     u7991:
  4331  0009E4  EF1A  F005         	goto	l5976
  4332  0009E8                     u7990:
  4333  0009E8                     
  4334                           ; BSR set to: 0
  4335                           ;C:\Program Files\Microchip\xc8\v2.36\pic\sources\c99\common\doprnt.c: 393:   if (prec =
      +                          = 0) {
  4336  0009E8  51FD               	movf	_prec& (0+255),w,b
  4337  0009EA  11FE               	iorwf	(_prec+1)& (0+255),w,b
  4338  0009EC  A4D8               	btfss	status,2,c
  4339  0009EE  EFFB  F004         	goto	u8001
  4340  0009F2  EFFD  F004         	goto	u8000
  4341  0009F6                     u8001:
  4342  0009F6  EF01  F005         	goto	l5972
  4343  0009FA                     u8000:
  4344  0009FA                     
  4345                           ; BSR set to: 0
  4346                           ;C:\Program Files\Microchip\xc8\v2.36\pic\sources\c99\common\doprnt.c: 394:    prec = 1;
  4347  0009FA  0E00               	movlw	0
  4348  0009FC  6FFE               	movwf	(_prec+1)& (0+255),b
  4349  0009FE  0E01               	movlw	1
  4350  000A00  6FFD               	movwf	_prec& (0+255),b
  4351  000A02                     l5972:
  4352                           
  4353                           ; BSR set to: 0
  4354                           ;C:\Program Files\Microchip\xc8\v2.36\pic\sources\c99\common\doprnt.c: 396:         p = 
      +                          (0 < prec) ? prec : 6;
  4355  000A02  BFFE               	btfsc	(_prec+1)& (0+255),7,b
  4356  000A04  EF0E  F005         	goto	u8010
  4357  000A08  51FE               	movf	(_prec+1)& (0+255),w,b
  4358  000A0A  E106               	bnz	u8011
  4359  000A0C  05FD               	decf	_prec& (0+255),w,b
  4360  000A0E  B0D8               	btfsc	status,0,c
  4361  000A10  EF0C  F005         	goto	u8011
  4362  000A14  EF0E  F005         	goto	u8010
  4363  000A18                     u8011:
  4364  000A18  EF14  F005         	goto	l922
  4365  000A1C                     u8010:
  4366  000A1C                     l5974:
  4367                           
  4368                           ; BSR set to: 0
  4369  000A1C  0E00               	movlw	0
  4370  000A1E  6FD2               	movwf	(efgtoa@p+1)& (0+255),b
  4371  000A20  0E06               	movlw	6
  4372  000A22  6FD1               	movwf	efgtoa@p& (0+255),b
  4373  000A24  EF23  F005         	goto	l5982
  4374  000A28                     l922:
  4375                           
  4376                           ; BSR set to: 0
  4377  000A28  C0FD  F0D1         	movff	_prec,efgtoa@p
  4378  000A2C  C0FE  F0D2         	movff	_prec+1,efgtoa@p+1
  4379  000A30  EF23  F005         	goto	l5982
  4380  000A34                     l5976:
  4381                           
  4382                           ; BSR set to: 0
  4383                           ;C:\Program Files\Microchip\xc8\v2.36\pic\sources\c99\common\doprnt.c: 398:         p = 
      +                          (prec < 0) ? 6 : prec;
  4384  000A34  BFFE               	btfsc	(_prec+1)& (0+255),7,b
  4385  000A36  EF1F  F005         	goto	u8021
  4386  000A3A  EF21  F005         	goto	u8020
  4387  000A3E                     u8021:
  4388  000A3E  EF0E  F005         	goto	l5974
  4389  000A42                     u8020:
  4390  000A42  EF14  F005         	goto	l922
  4391  000A46                     l5982:
  4392                           
  4393                           ; BSR set to: 0
  4394                           ;C:\Program Files\Microchip\xc8\v2.36\pic\sources\c99\common\doprnt.c: 402:     if (mode
      +                           == 'g') {
  4395  000A46  0E67               	movlw	103
  4396  000A48  19D6               	xorwf	efgtoa@mode& (0+255),w,b
  4397  000A4A  A4D8               	btfss	status,2,c
  4398  000A4C  EF2A  F005         	goto	u8031
  4399  000A50  EF2C  F005         	goto	u8030
  4400  000A54                     u8031:
  4401  000A54  EF5B  F005         	goto	l5992
  4402  000A58                     u8030:
  4403  000A58                     
  4404                           ; BSR set to: 0
  4405                           ;C:\Program Files\Microchip\xc8\v2.36\pic\sources\c99\common\doprnt.c: 403:         if (
      +                          !(e < -4) && !((p - 1) < e)) {
  4406  000A58  AFE6               	btfss	(efgtoa@e+1)& (0+255),7,b
  4407  000A5A  EF3A  F005         	goto	u8040
  4408  000A5E  0EFC               	movlw	252
  4409  000A60  5DE5               	subwf	efgtoa@e& (0+255),w,b
  4410  000A62  0EFF               	movlw	255
  4411  000A64  59E6               	subwfb	(efgtoa@e+1)& (0+255),w,b
  4412  000A66  A0D8               	btfss	status,0,c
  4413  000A68  EF38  F005         	goto	u8041
  4414  000A6C  EF3A  F005         	goto	u8040
  4415  000A70                     u8041:
  4416  000A70  EF59  F005         	goto	l5990
  4417  000A74                     u8040:
  4418  000A74                     
  4419                           ; BSR set to: 0
  4420  000A74  0EFF               	movlw	255
  4421  000A76  6FB6               	movwf	??_efgtoa& (0+255),b
  4422  000A78  0EFF               	movlw	255
  4423  000A7A  6FB7               	movwf	(??_efgtoa+1)& (0+255),b
  4424  000A7C  C0D1  F0B8         	movff	efgtoa@p,??_efgtoa+2
  4425  000A80  C0D2  F0B9         	movff	efgtoa@p+1,??_efgtoa+3
  4426  000A84  51B6               	movf	??_efgtoa& (0+255),w,b
  4427  000A86  27B8               	addwf	(??_efgtoa+2)& (0+255),f,b
  4428  000A88  51B7               	movf	(??_efgtoa+1)& (0+255),w,b
  4429  000A8A  23B9               	addwfc	(??_efgtoa+3)& (0+255),f,b
  4430  000A8C  51E5               	movf	efgtoa@e& (0+255),w,b
  4431  000A8E  5DB8               	subwf	(??_efgtoa+2)& (0+255),w,b
  4432  000A90  51B9               	movf	(??_efgtoa+3)& (0+255),w,b
  4433  000A92  0A80               	xorlw	128
  4434  000A94  6FBA               	movwf	(??_efgtoa+4)& (0+255),b
  4435  000A96  51E6               	movf	(efgtoa@e+1)& (0+255),w,b
  4436  000A98  0A80               	xorlw	128
  4437  000A9A  59BA               	subwfb	(??_efgtoa+4)& (0+255),w,b
  4438  000A9C  A0D8               	btfss	status,0,c
  4439  000A9E  EF53  F005         	goto	u8051
  4440  000AA2  EF55  F005         	goto	u8050
  4441  000AA6                     u8051:
  4442  000AA6  EF59  F005         	goto	l5990
  4443  000AAA                     u8050:
  4444  000AAA                     
  4445                           ; BSR set to: 0
  4446                           ;C:\Program Files\Microchip\xc8\v2.36\pic\sources\c99\common\doprnt.c: 404:             
      +                          nmode = 'f';
  4447  000AAA  0E66               	movlw	102
  4448  000AAC  6FD5               	movwf	efgtoa@nmode& (0+255),b
  4449                           
  4450                           ;C:\Program Files\Microchip\xc8\v2.36\pic\sources\c99\common\doprnt.c: 405:         } el
      +                          se {
  4451  000AAE  EF5B  F005         	goto	l5992
  4452  000AB2                     l5990:
  4453                           
  4454                           ; BSR set to: 0
  4455                           ;C:\Program Files\Microchip\xc8\v2.36\pic\sources\c99\common\doprnt.c: 406:             
      +                          nmode = 'e';
  4456  000AB2  0E65               	movlw	101
  4457  000AB4  6FD5               	movwf	efgtoa@nmode& (0+255),b
  4458  000AB6                     l5992:
  4459                           
  4460                           ; BSR set to: 0
  4461                           ;C:\Program Files\Microchip\xc8\v2.36\pic\sources\c99\common\doprnt.c: 411:     m = p;
  4462  000AB6  C0D1  F0C7         	movff	efgtoa@p,efgtoa@m
  4463  000ABA  C0D2  F0C8         	movff	efgtoa@p+1,efgtoa@m+1
  4464  000ABE                     
  4465                           ; BSR set to: 0
  4466                           ;C:\Program Files\Microchip\xc8\v2.36\pic\sources\c99\common\doprnt.c: 412:     if (!(mo
      +                          de == 'g') || ((nmode == 'f') && (e < 0))) {
  4467  000ABE  0E67               	movlw	103
  4468  000AC0  19D6               	xorwf	efgtoa@mode& (0+255),w,b
  4469  000AC2  A4D8               	btfss	status,2,c
  4470  000AC4  EF66  F005         	goto	u8061
  4471  000AC8  EF68  F005         	goto	u8060
  4472  000ACC                     u8061:
  4473  000ACC  EF78  F005         	goto	l6000
  4474  000AD0                     u8060:
  4475  000AD0                     
  4476                           ; BSR set to: 0
  4477  000AD0  0E66               	movlw	102
  4478  000AD2  19D5               	xorwf	efgtoa@nmode& (0+255),w,b
  4479  000AD4  A4D8               	btfss	status,2,c
  4480  000AD6  EF6F  F005         	goto	u8071
  4481  000ADA  EF71  F005         	goto	u8070
  4482  000ADE                     u8071:
  4483  000ADE  EF7A  F005         	goto	l6002
  4484  000AE2                     u8070:
  4485  000AE2                     
  4486                           ; BSR set to: 0
  4487  000AE2  BFE6               	btfsc	(efgtoa@e+1)& (0+255),7,b
  4488  000AE4  EF78  F005         	goto	u8080
  4489  000AE8  EF76  F005         	goto	u8081
  4490  000AEC                     u8081:
  4491  000AEC  EF7A  F005         	goto	l6002
  4492  000AF0                     u8080:
  4493  000AF0                     l6000:
  4494                           
  4495                           ; BSR set to: 0
  4496                           ;C:\Program Files\Microchip\xc8\v2.36\pic\sources\c99\common\doprnt.c: 413:         ++m;
  4497  000AF0  4BC7               	infsnz	efgtoa@m& (0+255),f,b
  4498  000AF2  2BC8               	incf	(efgtoa@m+1)& (0+255),f,b
  4499  000AF4                     l6002:
  4500                           
  4501                           ; BSR set to: 0
  4502                           ;C:\Program Files\Microchip\xc8\v2.36\pic\sources\c99\common\doprnt.c: 417:     if (nmod
      +                          e == 'f') {
  4503  000AF4  0E66               	movlw	102
  4504  000AF6  19D5               	xorwf	efgtoa@nmode& (0+255),w,b
  4505  000AF8  A4D8               	btfss	status,2,c
  4506  000AFA  EF81  F005         	goto	u8091
  4507  000AFE  EF83  F005         	goto	u8090
  4508  000B02                     u8091:
  4509  000B02  EFA3  F005         	goto	l6012
  4510  000B06                     u8090:
  4511  000B06                     
  4512                           ; BSR set to: 0
  4513                           ;C:\Program Files\Microchip\xc8\v2.36\pic\sources\c99\common\doprnt.c: 418:         if (
      +                          e < 0) {
  4514  000B06  BFE6               	btfsc	(efgtoa@e+1)& (0+255),7,b
  4515  000B08  EF8A  F005         	goto	u8100
  4516  000B0C  EF88  F005         	goto	u8101
  4517  000B10                     u8101:
  4518  000B10  EF96  F005         	goto	l6008
  4519  000B14                     u8100:
  4520  000B14                     
  4521                           ; BSR set to: 0
  4522                           ;C:\Program Files\Microchip\xc8\v2.36\pic\sources\c99\common\doprnt.c: 419:             
      +                          u = 1.0;
  4523  000B14  0E00               	movlw	0
  4524  000B16  6FE9               	movwf	efgtoa@u& (0+255),b
  4525  000B18  0E00               	movlw	0
  4526  000B1A  6FEA               	movwf	(efgtoa@u+1)& (0+255),b
  4527  000B1C  0E80               	movlw	128
  4528  000B1E  6FEB               	movwf	(efgtoa@u+2)& (0+255),b
  4529  000B20  0E3F               	movlw	63
  4530  000B22  6FEC               	movwf	(efgtoa@u+3)& (0+255),b
  4531                           
  4532                           ;C:\Program Files\Microchip\xc8\v2.36\pic\sources\c99\common\doprnt.c: 420:             
      +                          e = 0;
  4533  000B24  0E00               	movlw	0
  4534  000B26  6FE6               	movwf	(efgtoa@e+1)& (0+255),b
  4535  000B28  0E00               	movlw	0
  4536  000B2A  6FE5               	movwf	efgtoa@e& (0+255),b
  4537  000B2C                     l6008:
  4538                           
  4539                           ; BSR set to: 0
  4540                           ;C:\Program Files\Microchip\xc8\v2.36\pic\sources\c99\common\doprnt.c: 422:         if (
      +                          !(mode == 'g')) {
  4541  000B2C  0E67               	movlw	103
  4542  000B2E  19D6               	xorwf	efgtoa@mode& (0+255),w,b
  4543  000B30  B4D8               	btfsc	status,2,c
  4544  000B32  EF9D  F005         	goto	u8111
  4545  000B36  EF9F  F005         	goto	u8110
  4546  000B3A                     u8111:
  4547  000B3A  EFA3  F005         	goto	l6012
  4548  000B3E                     u8110:
  4549  000B3E                     
  4550                           ; BSR set to: 0
  4551                           ;C:\Program Files\Microchip\xc8\v2.36\pic\sources\c99\common\doprnt.c: 423:             
      +                          m += e;
  4552  000B3E  51E5               	movf	efgtoa@e& (0+255),w,b
  4553  000B40  27C7               	addwf	efgtoa@m& (0+255),f,b
  4554  000B42  51E6               	movf	(efgtoa@e+1)& (0+255),w,b
  4555  000B44  23C8               	addwfc	(efgtoa@m+1)& (0+255),f,b
  4556  000B46                     l6012:
  4557                           
  4558                           ; BSR set to: 0
  4559                           ;C:\Program Files\Microchip\xc8\v2.36\pic\sources\c99\common\doprnt.c: 428:     i = 0;
  4560  000B46  0E00               	movlw	0
  4561  000B48  6FE0               	movwf	(efgtoa@i+1)& (0+255),b
  4562  000B4A  0E00               	movlw	0
  4563  000B4C  6FDF               	movwf	efgtoa@i& (0+255),b
  4564  000B4E                     
  4565                           ; BSR set to: 0
  4566                           ;C:\Program Files\Microchip\xc8\v2.36\pic\sources\c99\common\doprnt.c: 429:     h = g;
  4567  000B4E  C0E1  F0D7         	movff	efgtoa@g,efgtoa@h
  4568  000B52  C0E2  F0D8         	movff	efgtoa@g+1,efgtoa@h+1
  4569  000B56  C0E3  F0D9         	movff	efgtoa@g+2,efgtoa@h+2
  4570  000B5A  C0E4  F0DA         	movff	efgtoa@g+3,efgtoa@h+3
  4571  000B5E                     
  4572                           ; BSR set to: 0
  4573                           ;C:\Program Files\Microchip\xc8\v2.36\pic\sources\c99\common\doprnt.c: 430:     ou = u;
  4574  000B5E  C0E9  F0C9         	movff	efgtoa@u,efgtoa@ou
  4575  000B62  C0EA  F0CA         	movff	efgtoa@u+1,efgtoa@ou+1
  4576  000B66  C0EB  F0CB         	movff	efgtoa@u+2,efgtoa@ou+2
  4577  000B6A  C0EC  F0CC         	movff	efgtoa@u+3,efgtoa@ou+3
  4578                           
  4579                           ;C:\Program Files\Microchip\xc8\v2.36\pic\sources\c99\common\doprnt.c: 431:     while (i
      +                           < m) {
  4580  000B6E  EF35  F006         	goto	l6026
  4581  000B72                     l6018:
  4582                           
  4583                           ; BSR set to: 0
  4584                           ;C:\Program Files\Microchip\xc8\v2.36\pic\sources\c99\common\doprnt.c: 432:         l = 
      +                          floorf(h/u);
  4585  000B72  C0D7  F080         	movff	efgtoa@h,___fldiv@b
  4586  000B76  C0D8  F081         	movff	efgtoa@h+1,___fldiv@b+1
  4587  000B7A  C0D9  F082         	movff	efgtoa@h+2,___fldiv@b+2
  4588  000B7E  C0DA  F083         	movff	efgtoa@h+3,___fldiv@b+3
  4589  000B82  C0E9  F084         	movff	efgtoa@u,___fldiv@a
  4590  000B86  C0EA  F085         	movff	efgtoa@u+1,___fldiv@a+1
  4591  000B8A  C0EB  F086         	movff	efgtoa@u+2,___fldiv@a+2
  4592  000B8E  C0EC  F087         	movff	efgtoa@u+3,___fldiv@a+3
  4593  000B92  ECEE  F011         	call	___fldiv	;wreg free
  4594  000B96  C080  F095         	movff	?___fldiv,floorf@x
  4595  000B9A  C081  F096         	movff	?___fldiv+1,floorf@x+1
  4596  000B9E  C082  F097         	movff	?___fldiv+2,floorf@x+2
  4597  000BA2  C083  F098         	movff	?___fldiv+3,floorf@x+3
  4598  000BA6  EC08  F018         	call	_floorf	;wreg free
  4599  000BAA  C095  F0DB         	movff	?_floorf,efgtoa@l
  4600  000BAE  C096  F0DC         	movff	?_floorf+1,efgtoa@l+1
  4601  000BB2  C097  F0DD         	movff	?_floorf+2,efgtoa@l+2
  4602  000BB6  C098  F0DE         	movff	?_floorf+3,efgtoa@l+3
  4603                           
  4604                           ;C:\Program Files\Microchip\xc8\v2.36\pic\sources\c99\common\doprnt.c: 433:         d = 
      +                          (int)l;
  4605  000BBA  C0DB  F032         	movff	efgtoa@l,___fltol@f1
  4606  000BBE  C0DC  F033         	movff	efgtoa@l+1,___fltol@f1+1
  4607  000BC2  C0DD  F034         	movff	efgtoa@l+2,___fltol@f1+2
  4608  000BC6  C0DE  F035         	movff	efgtoa@l+3,___fltol@f1+3
  4609  000BCA  EC76  F01B         	call	___fltol	;wreg free
  4610  000BCE  C032  F0CD         	movff	?___fltol,efgtoa@d
  4611  000BD2  C033  F0CE         	movff	?___fltol+1,efgtoa@d+1
  4612  000BD6                     
  4613                           ;C:\Program Files\Microchip\xc8\v2.36\pic\sources\c99\common\doprnt.c: 434:         h -=
      +                           l*u;
  4614  000BD6  C0D7  F0A3         	movff	efgtoa@h,___flsub@b
  4615  000BDA  C0D8  F0A4         	movff	efgtoa@h+1,___flsub@b+1
  4616  000BDE  C0D9  F0A5         	movff	efgtoa@h+2,___flsub@b+2
  4617  000BE2  C0DA  F0A6         	movff	efgtoa@h+3,___flsub@b+3
  4618  000BE6  C0E9  F08E         	movff	efgtoa@u,___flmul@a
  4619  000BEA  C0EA  F08F         	movff	efgtoa@u+1,___flmul@a+1
  4620  000BEE  C0EB  F090         	movff	efgtoa@u+2,___flmul@a+2
  4621  000BF2  C0EC  F091         	movff	efgtoa@u+3,___flmul@a+3
  4622  000BF6  C0DB  F08A         	movff	efgtoa@l,___flmul@b
  4623  000BFA  C0DC  F08B         	movff	efgtoa@l+1,___flmul@b+1
  4624  000BFE  C0DD  F08C         	movff	efgtoa@l+2,___flmul@b+2
  4625  000C02  C0DE  F08D         	movff	efgtoa@l+3,___flmul@b+3
  4626  000C06  ECC3  F00D         	call	___flmul	;wreg free
  4627  000C0A  C08A  F0A7         	movff	?___flmul,___flsub@a
  4628  000C0E  C08B  F0A8         	movff	?___flmul+1,___flsub@a+1
  4629  000C12  C08C  F0A9         	movff	?___flmul+2,___flsub@a+2
  4630  000C16  C08D  F0AA         	movff	?___flmul+3,___flsub@a+3
  4631  000C1A  ECCF  F023         	call	___flsub	;wreg free
  4632  000C1E  C0A3  F0D7         	movff	?___flsub,efgtoa@h
  4633  000C22  C0A4  F0D8         	movff	?___flsub+1,efgtoa@h+1
  4634  000C26  C0A5  F0D9         	movff	?___flsub+2,efgtoa@h+2
  4635  000C2A  C0A6  F0DA         	movff	?___flsub+3,efgtoa@h+3
  4636  000C2E                     
  4637                           ;C:\Program Files\Microchip\xc8\v2.36\pic\sources\c99\common\doprnt.c: 435:         u = 
      +                          u/10.0;
  4638  000C2E  C0E9  F080         	movff	efgtoa@u,___fldiv@b
  4639  000C32  C0EA  F081         	movff	efgtoa@u+1,___fldiv@b+1
  4640  000C36  C0EB  F082         	movff	efgtoa@u+2,___fldiv@b+2
  4641  000C3A  C0EC  F083         	movff	efgtoa@u+3,___fldiv@b+3
  4642  000C3E  0E00               	movlw	0
  4643  000C40  0100               	movlb	0	; () banked
  4644  000C42  6F84               	movwf	___fldiv@a& (0+255),b
  4645  000C44  0E00               	movlw	0
  4646  000C46  6F85               	movwf	(___fldiv@a+1)& (0+255),b
  4647  000C48  0E20               	movlw	32
  4648  000C4A  6F86               	movwf	(___fldiv@a+2)& (0+255),b
  4649  000C4C  0E41               	movlw	65
  4650  000C4E  6F87               	movwf	(___fldiv@a+3)& (0+255),b
  4651  000C50  ECEE  F011         	call	___fldiv	;wreg free
  4652  000C54  C080  F0E9         	movff	?___fldiv,efgtoa@u
  4653  000C58  C081  F0EA         	movff	?___fldiv+1,efgtoa@u+1
  4654  000C5C  C082  F0EB         	movff	?___fldiv+2,efgtoa@u+2
  4655  000C60  C083  F0EC         	movff	?___fldiv+3,efgtoa@u+3
  4656  000C64                     
  4657                           ;C:\Program Files\Microchip\xc8\v2.36\pic\sources\c99\common\doprnt.c: 436:         ++i;
  4658  000C64  0100               	movlb	0	; () banked
  4659  000C66  4BDF               	infsnz	efgtoa@i& (0+255),f,b
  4660  000C68  2BE0               	incf	(efgtoa@i+1)& (0+255),f,b
  4661  000C6A                     l6026:
  4662                           
  4663                           ; BSR set to: 0
  4664                           ;C:\Program Files\Microchip\xc8\v2.36\pic\sources\c99\common\doprnt.c: 431:     while (i
      +                           < m) {
  4665  000C6A  51C7               	movf	efgtoa@m& (0+255),w,b
  4666  000C6C  5DDF               	subwf	efgtoa@i& (0+255),w,b
  4667  000C6E  51E0               	movf	(efgtoa@i+1)& (0+255),w,b
  4668  000C70  0A80               	xorlw	128
  4669  000C72  6FB6               	movwf	??_efgtoa& (0+255),b
  4670  000C74  51C8               	movf	(efgtoa@m+1)& (0+255),w,b
  4671  000C76  0A80               	xorlw	128
  4672  000C78  59B6               	subwfb	??_efgtoa& (0+255),w,b
  4673  000C7A  A0D8               	btfss	status,0,c
  4674  000C7C  EF42  F006         	goto	u8121
  4675  000C80  EF44  F006         	goto	u8120
  4676  000C84                     u8121:
  4677  000C84  EFB9  F005         	goto	l6018
  4678  000C88                     u8120:
  4679  000C88                     
  4680                           ; BSR set to: 0
  4681                           ;C:\Program Files\Microchip\xc8\v2.36\pic\sources\c99\common\doprnt.c: 440:     l = u*5.
      +                          0;
  4682  000C88  C0E9  F08A         	movff	efgtoa@u,___flmul@b
  4683  000C8C  C0EA  F08B         	movff	efgtoa@u+1,___flmul@b+1
  4684  000C90  C0EB  F08C         	movff	efgtoa@u+2,___flmul@b+2
  4685  000C94  C0EC  F08D         	movff	efgtoa@u+3,___flmul@b+3
  4686  000C98  0E00               	movlw	0
  4687  000C9A  6F8E               	movwf	___flmul@a& (0+255),b
  4688  000C9C  0E00               	movlw	0
  4689  000C9E  6F8F               	movwf	(___flmul@a+1)& (0+255),b
  4690  000CA0  0EA0               	movlw	160
  4691  000CA2  6F90               	movwf	(___flmul@a+2)& (0+255),b
  4692  000CA4  0E40               	movlw	64
  4693  000CA6  6F91               	movwf	(___flmul@a+3)& (0+255),b
  4694  000CA8  ECC3  F00D         	call	___flmul	;wreg free
  4695  000CAC  C08A  F0DB         	movff	?___flmul,efgtoa@l
  4696  000CB0  C08B  F0DC         	movff	?___flmul+1,efgtoa@l+1
  4697  000CB4  C08C  F0DD         	movff	?___flmul+2,efgtoa@l+2
  4698  000CB8  C08D  F0DE         	movff	?___flmul+3,efgtoa@l+3
  4699  000CBC                     
  4700                           ;C:\Program Files\Microchip\xc8\v2.36\pic\sources\c99\common\doprnt.c: 441:     if (h < 
      +                          l) {
  4701  000CBC  C0D7  F0A3         	movff	efgtoa@h,___flge@ff1
  4702  000CC0  C0D8  F0A4         	movff	efgtoa@h+1,___flge@ff1+1
  4703  000CC4  C0D9  F0A5         	movff	efgtoa@h+2,___flge@ff1+2
  4704  000CC8  C0DA  F0A6         	movff	efgtoa@h+3,___flge@ff1+3
  4705  000CCC  C0DB  F0A7         	movff	efgtoa@l,___flge@ff2
  4706  000CD0  C0DC  F0A8         	movff	efgtoa@l+1,___flge@ff2+1
  4707  000CD4  C0DD  F0A9         	movff	efgtoa@l+2,___flge@ff2+2
  4708  000CD8  C0DE  F0AA         	movff	efgtoa@l+3,___flge@ff2+3
  4709  000CDC  ECFA  F01B         	call	___flge	;wreg free
  4710  000CE0  0100               	movlb	0	; () banked
  4711  000CE2  B0D8               	btfsc	status,0,c
  4712  000CE4  EF76  F006         	goto	u8131
  4713  000CE8  EF78  F006         	goto	u8130
  4714  000CEC                     u8131:
  4715  000CEC  EF82  F006         	goto	l6034
  4716  000CF0                     u8130:
  4717  000CF0                     
  4718                           ; BSR set to: 0
  4719                           ;C:\Program Files\Microchip\xc8\v2.36\pic\sources\c99\common\doprnt.c: 442:         l = 
      +                          0.0;
  4720  000CF0  0E00               	movlw	0
  4721  000CF2  6FDB               	movwf	efgtoa@l& (0+255),b
  4722  000CF4  0E00               	movlw	0
  4723  000CF6  6FDC               	movwf	(efgtoa@l+1)& (0+255),b
  4724  000CF8  0E00               	movlw	0
  4725  000CFA  6FDD               	movwf	(efgtoa@l+2)& (0+255),b
  4726  000CFC  0E00               	movlw	0
  4727  000CFE  6FDE               	movwf	(efgtoa@l+3)& (0+255),b
  4728                           
  4729                           ;C:\Program Files\Microchip\xc8\v2.36\pic\sources\c99\common\doprnt.c: 443:     } else {
  4730  000D00  EFAB  F006         	goto	l6040
  4731  000D04                     l6034:
  4732                           
  4733                           ; BSR set to: 0
  4734                           ;C:\Program Files\Microchip\xc8\v2.36\pic\sources\c99\common\doprnt.c: 445:         if (
      +                          (h == l) && !(d % 2)) {
  4735  000D04  C0D7  F080         	movff	efgtoa@h,___fleq@ff1
  4736  000D08  C0D8  F081         	movff	efgtoa@h+1,___fleq@ff1+1
  4737  000D0C  C0D9  F082         	movff	efgtoa@h+2,___fleq@ff1+2
  4738  000D10  C0DA  F083         	movff	efgtoa@h+3,___fleq@ff1+3
  4739  000D14  C0DB  F084         	movff	efgtoa@l,___fleq@ff2
  4740  000D18  C0DC  F085         	movff	efgtoa@l+1,___fleq@ff2+1
  4741  000D1C  C0DD  F086         	movff	efgtoa@l+2,___fleq@ff2+2
  4742  000D20  C0DE  F087         	movff	efgtoa@l+3,___fleq@ff2+3
  4743  000D24  ECD3  F020         	call	___fleq	;wreg free
  4744  000D28  0100               	movlb	0	; () banked
  4745  000D2A  A0D8               	btfss	status,0,c
  4746  000D2C  EF9A  F006         	goto	u8141
  4747  000D30  EF9C  F006         	goto	u8140
  4748  000D34                     u8141:
  4749  000D34  EFAB  F006         	goto	l6040
  4750  000D38                     u8140:
  4751  000D38                     
  4752                           ; BSR set to: 0
  4753  000D38  B1CD               	btfsc	efgtoa@d& (0+255),0,b
  4754  000D3A  EFA1  F006         	goto	u8151
  4755  000D3E  EFA3  F006         	goto	u8150
  4756  000D42                     u8151:
  4757  000D42  EFAB  F006         	goto	l6040
  4758  000D46                     u8150:
  4759  000D46                     
  4760                           ; BSR set to: 0
  4761                           ;C:\Program Files\Microchip\xc8\v2.36\pic\sources\c99\common\doprnt.c: 446:             
      +                          l = 0.0;
  4762  000D46  0E00               	movlw	0
  4763  000D48  6FDB               	movwf	efgtoa@l& (0+255),b
  4764  000D4A  0E00               	movlw	0
  4765  000D4C  6FDC               	movwf	(efgtoa@l+1)& (0+255),b
  4766  000D4E  0E00               	movlw	0
  4767  000D50  6FDD               	movwf	(efgtoa@l+2)& (0+255),b
  4768  000D52  0E00               	movlw	0
  4769  000D54  6FDE               	movwf	(efgtoa@l+3)& (0+255),b
  4770  000D56                     l6040:
  4771                           
  4772                           ; BSR set to: 0
  4773                           ;C:\Program Files\Microchip\xc8\v2.36\pic\sources\c99\common\doprnt.c: 451:     h = g + 
      +                          l;
  4774  000D56  C0E1  F080         	movff	efgtoa@g,___fladd@b
  4775  000D5A  C0E2  F081         	movff	efgtoa@g+1,___fladd@b+1
  4776  000D5E  C0E3  F082         	movff	efgtoa@g+2,___fladd@b+2
  4777  000D62  C0E4  F083         	movff	efgtoa@g+3,___fladd@b+3
  4778  000D66  C0DB  F084         	movff	efgtoa@l,___fladd@a
  4779  000D6A  C0DC  F085         	movff	efgtoa@l+1,___fladd@a+1
  4780  000D6E  C0DD  F086         	movff	efgtoa@l+2,___fladd@a+2
  4781  000D72  C0DE  F087         	movff	efgtoa@l+3,___fladd@a+3
  4782  000D76  EC40  F009         	call	___fladd	;wreg free
  4783  000D7A  C080  F0D7         	movff	?___fladd,efgtoa@h
  4784  000D7E  C081  F0D8         	movff	?___fladd+1,efgtoa@h+1
  4785  000D82  C082  F0D9         	movff	?___fladd+2,efgtoa@h+2
  4786  000D86  C083  F0DA         	movff	?___fladd+3,efgtoa@h+3
  4787  000D8A                     
  4788                           ;C:\Program Files\Microchip\xc8\v2.36\pic\sources\c99\common\doprnt.c: 453:  if (h >= (o
      +                          u*10.0)) {
  4789  000D8A  C0D7  F0A3         	movff	efgtoa@h,___flge@ff1
  4790  000D8E  C0D8  F0A4         	movff	efgtoa@h+1,___flge@ff1+1
  4791  000D92  C0D9  F0A5         	movff	efgtoa@h+2,___flge@ff1+2
  4792  000D96  C0DA  F0A6         	movff	efgtoa@h+3,___flge@ff1+3
  4793  000D9A  0E00               	movlw	0
  4794  000D9C  0100               	movlb	0	; () banked
  4795  000D9E  6F8E               	movwf	___flmul@a& (0+255),b
  4796  000DA0  0E00               	movlw	0
  4797  000DA2  6F8F               	movwf	(___flmul@a+1)& (0+255),b
  4798  000DA4  0E20               	movlw	32
  4799  000DA6  6F90               	movwf	(___flmul@a+2)& (0+255),b
  4800  000DA8  0E41               	movlw	65
  4801  000DAA  6F91               	movwf	(___flmul@a+3)& (0+255),b
  4802  000DAC  C0C9  F08A         	movff	efgtoa@ou,___flmul@b
  4803  000DB0  C0CA  F08B         	movff	efgtoa@ou+1,___flmul@b+1
  4804  000DB4  C0CB  F08C         	movff	efgtoa@ou+2,___flmul@b+2
  4805  000DB8  C0CC  F08D         	movff	efgtoa@ou+3,___flmul@b+3
  4806  000DBC  ECC3  F00D         	call	___flmul	;wreg free
  4807  000DC0  C08A  F0A7         	movff	?___flmul,___flge@ff2
  4808  000DC4  C08B  F0A8         	movff	?___flmul+1,___flge@ff2+1
  4809  000DC8  C08C  F0A9         	movff	?___flmul+2,___flge@ff2+2
  4810  000DCC  C08D  F0AA         	movff	?___flmul+3,___flge@ff2+3
  4811  000DD0  ECFA  F01B         	call	___flge	;wreg free
  4812  000DD4  0100               	movlb	0	; () banked
  4813  000DD6  A0D8               	btfss	status,0,c
  4814  000DD8  EFF0  F006         	goto	u8161
  4815  000DDC  EFF2  F006         	goto	u8160
  4816  000DE0                     u8161:
  4817  000DE0  EF1A  F007         	goto	l6052
  4818  000DE4                     u8160:
  4819  000DE4                     
  4820                           ; BSR set to: 0
  4821                           ;C:\Program Files\Microchip\xc8\v2.36\pic\sources\c99\common\doprnt.c: 454:   e++;
  4822  000DE4  4BE5               	infsnz	efgtoa@e& (0+255),f,b
  4823  000DE6  2BE6               	incf	(efgtoa@e+1)& (0+255),f,b
  4824  000DE8                     
  4825                           ; BSR set to: 0
  4826                           ;C:\Program Files\Microchip\xc8\v2.36\pic\sources\c99\common\doprnt.c: 455:   ou *= 10.0
      +                          ;
  4827  000DE8  C0C9  F08A         	movff	efgtoa@ou,___flmul@b
  4828  000DEC  C0CA  F08B         	movff	efgtoa@ou+1,___flmul@b+1
  4829  000DF0  C0CB  F08C         	movff	efgtoa@ou+2,___flmul@b+2
  4830  000DF4  C0CC  F08D         	movff	efgtoa@ou+3,___flmul@b+3
  4831  000DF8  0E00               	movlw	0
  4832  000DFA  6F8E               	movwf	___flmul@a& (0+255),b
  4833  000DFC  0E00               	movlw	0
  4834  000DFE  6F8F               	movwf	(___flmul@a+1)& (0+255),b
  4835  000E00  0E20               	movlw	32
  4836  000E02  6F90               	movwf	(___flmul@a+2)& (0+255),b
  4837  000E04  0E41               	movlw	65
  4838  000E06  6F91               	movwf	(___flmul@a+3)& (0+255),b
  4839  000E08  ECC3  F00D         	call	___flmul	;wreg free
  4840  000E0C  C08A  F0C9         	movff	?___flmul,efgtoa@ou
  4841  000E10  C08B  F0CA         	movff	?___flmul+1,efgtoa@ou+1
  4842  000E14  C08C  F0CB         	movff	?___flmul+2,efgtoa@ou+2
  4843  000E18  C08D  F0CC         	movff	?___flmul+3,efgtoa@ou+3
  4844  000E1C                     
  4845                           ;C:\Program Files\Microchip\xc8\v2.36\pic\sources\c99\common\doprnt.c: 456:   if (nmode 
      +                          == 'f') {
  4846  000E1C  0E66               	movlw	102
  4847  000E1E  0100               	movlb	0	; () banked
  4848  000E20  19D5               	xorwf	efgtoa@nmode& (0+255),w,b
  4849  000E22  A4D8               	btfss	status,2,c
  4850  000E24  EF16  F007         	goto	u8171
  4851  000E28  EF18  F007         	goto	u8170
  4852  000E2C                     u8171:
  4853  000E2C  EF1A  F007         	goto	l6052
  4854  000E30                     u8170:
  4855  000E30                     
  4856                           ; BSR set to: 0
  4857                           ;C:\Program Files\Microchip\xc8\v2.36\pic\sources\c99\common\doprnt.c: 458:    m++;
  4858  000E30  4BC7               	infsnz	efgtoa@m& (0+255),f,b
  4859  000E32  2BC8               	incf	(efgtoa@m+1)& (0+255),f,b
  4860  000E34                     l6052:
  4861                           
  4862                           ; BSR set to: 0
  4863                           ;C:\Program Files\Microchip\xc8\v2.36\pic\sources\c99\common\doprnt.c: 463:     u = ou;
  4864  000E34  C0C9  F0E9         	movff	efgtoa@ou,efgtoa@u
  4865  000E38  C0CA  F0EA         	movff	efgtoa@ou+1,efgtoa@u+1
  4866  000E3C  C0CB  F0EB         	movff	efgtoa@ou+2,efgtoa@u+2
  4867  000E40  C0CC  F0EC         	movff	efgtoa@ou+3,efgtoa@u+3
  4868  000E44                     
  4869                           ; BSR set to: 0
  4870                           ;C:\Program Files\Microchip\xc8\v2.36\pic\sources\c99\common\doprnt.c: 464:     ne = (nm
      +                          ode == 'e') ? 0 : e;
  4871  000E44  0E65               	movlw	101
  4872  000E46  19D5               	xorwf	efgtoa@nmode& (0+255),w,b
  4873  000E48  B4D8               	btfsc	status,2,c
  4874  000E4A  EF29  F007         	goto	u8181
  4875  000E4E  EF2B  F007         	goto	u8180
  4876  000E52                     u8181:
  4877  000E52  EF31  F007         	goto	l6058
  4878  000E56                     u8180:
  4879  000E56                     
  4880                           ; BSR set to: 0
  4881  000E56  C0E5  F0C5         	movff	efgtoa@e,efgtoa@ne
  4882  000E5A  C0E6  F0C6         	movff	efgtoa@e+1,efgtoa@ne+1
  4883  000E5E  EF35  F007         	goto	l950
  4884  000E62                     l6058:
  4885                           
  4886                           ; BSR set to: 0
  4887  000E62  0E00               	movlw	0
  4888  000E64  6FC6               	movwf	(efgtoa@ne+1)& (0+255),b
  4889  000E66  0E00               	movlw	0
  4890  000E68  6FC5               	movwf	efgtoa@ne& (0+255),b
  4891  000E6A                     l950:
  4892                           
  4893                           ; BSR set to: 0
  4894                           ;C:\Program Files\Microchip\xc8\v2.36\pic\sources\c99\common\doprnt.c: 465:     pp = 0;
  4895  000E6A  0E00               	movlw	0
  4896  000E6C  6FC4               	movwf	(efgtoa@pp+1)& (0+255),b
  4897  000E6E  0E00               	movlw	0
  4898  000E70  6FC3               	movwf	efgtoa@pp& (0+255),b
  4899                           
  4900                           ;C:\Program Files\Microchip\xc8\v2.36\pic\sources\c99\common\doprnt.c: 466:     t = 0;
  4901  000E72  0E00               	movlw	0
  4902  000E74  6FC2               	movwf	(efgtoa@t+1)& (0+255),b
  4903  000E76  0E00               	movlw	0
  4904  000E78  6FC1               	movwf	efgtoa@t& (0+255),b
  4905                           
  4906                           ;C:\Program Files\Microchip\xc8\v2.36\pic\sources\c99\common\doprnt.c: 467:     i = 0;
  4907  000E7A  0E00               	movlw	0
  4908  000E7C  6FE0               	movwf	(efgtoa@i+1)& (0+255),b
  4909  000E7E  0E00               	movlw	0
  4910  000E80  6FDF               	movwf	efgtoa@i& (0+255),b
  4911                           
  4912                           ;C:\Program Files\Microchip\xc8\v2.36\pic\sources\c99\common\doprnt.c: 468:     while ((
      +                          i < m) && (n < (80 - 5))) {
  4913  000E82  EF32  F008         	goto	l6108
  4914  000E86                     l6060:
  4915                           
  4916                           ; BSR set to: 0
  4917                           ;C:\Program Files\Microchip\xc8\v2.36\pic\sources\c99\common\doprnt.c: 469:         l = 
      +                          floorf(h/u);
  4918  000E86  C0D7  F080         	movff	efgtoa@h,___fldiv@b
  4919  000E8A  C0D8  F081         	movff	efgtoa@h+1,___fldiv@b+1
  4920  000E8E  C0D9  F082         	movff	efgtoa@h+2,___fldiv@b+2
  4921  000E92  C0DA  F083         	movff	efgtoa@h+3,___fldiv@b+3
  4922  000E96  C0E9  F084         	movff	efgtoa@u,___fldiv@a
  4923  000E9A  C0EA  F085         	movff	efgtoa@u+1,___fldiv@a+1
  4924  000E9E  C0EB  F086         	movff	efgtoa@u+2,___fldiv@a+2
  4925  000EA2  C0EC  F087         	movff	efgtoa@u+3,___fldiv@a+3
  4926  000EA6  ECEE  F011         	call	___fldiv	;wreg free
  4927  000EAA  C080  F095         	movff	?___fldiv,floorf@x
  4928  000EAE  C081  F096         	movff	?___fldiv+1,floorf@x+1
  4929  000EB2  C082  F097         	movff	?___fldiv+2,floorf@x+2
  4930  000EB6  C083  F098         	movff	?___fldiv+3,floorf@x+3
  4931  000EBA  EC08  F018         	call	_floorf	;wreg free
  4932  000EBE  C095  F0DB         	movff	?_floorf,efgtoa@l
  4933  000EC2  C096  F0DC         	movff	?_floorf+1,efgtoa@l+1
  4934  000EC6  C097  F0DD         	movff	?_floorf+2,efgtoa@l+2
  4935  000ECA  C098  F0DE         	movff	?_floorf+3,efgtoa@l+3
  4936                           
  4937                           ;C:\Program Files\Microchip\xc8\v2.36\pic\sources\c99\common\doprnt.c: 470:         d = 
      +                          (int)l;
  4938  000ECE  C0DB  F032         	movff	efgtoa@l,___fltol@f1
  4939  000ED2  C0DC  F033         	movff	efgtoa@l+1,___fltol@f1+1
  4940  000ED6  C0DD  F034         	movff	efgtoa@l+2,___fltol@f1+2
  4941  000EDA  C0DE  F035         	movff	efgtoa@l+3,___fltol@f1+3
  4942  000EDE  EC76  F01B         	call	___fltol	;wreg free
  4943  000EE2  C032  F0CD         	movff	?___fltol,efgtoa@d
  4944  000EE6  C033  F0CE         	movff	?___fltol+1,efgtoa@d+1
  4945  000EEA                     
  4946                           ;C:\Program Files\Microchip\xc8\v2.36\pic\sources\c99\common\doprnt.c: 471:         if (
      +                          !(flags & (1 << 4)) && !d && (mode == 'g') && (ne < 0)) {
  4947  000EEA  B848               	btfsc	_flags^0,4,c
  4948  000EEC  EF7A  F007         	goto	u8191
  4949  000EF0  EF7C  F007         	goto	u8190
  4950  000EF4                     u8191:
  4951  000EF4  EF9A  F007         	goto	l6072
  4952  000EF8                     u8190:
  4953  000EF8  0100               	movlb	0	; () banked
  4954  000EFA  51CD               	movf	efgtoa@d& (0+255),w,b
  4955  000EFC  11CE               	iorwf	(efgtoa@d+1)& (0+255),w,b
  4956  000EFE  A4D8               	btfss	status,2,c
  4957  000F00  EF84  F007         	goto	u8201
  4958  000F04  EF86  F007         	goto	u8200
  4959  000F08                     u8201:
  4960  000F08  EF9A  F007         	goto	l6072
  4961  000F0C                     u8200:
  4962  000F0C                     
  4963                           ; BSR set to: 0
  4964  000F0C  0E67               	movlw	103
  4965  000F0E  19D6               	xorwf	efgtoa@mode& (0+255),w,b
  4966  000F10  A4D8               	btfss	status,2,c
  4967  000F12  EF8D  F007         	goto	u8211
  4968  000F16  EF8F  F007         	goto	u8210
  4969  000F1A                     u8211:
  4970  000F1A  EF9A  F007         	goto	l6072
  4971  000F1E                     u8210:
  4972  000F1E                     
  4973                           ; BSR set to: 0
  4974  000F1E  BFC6               	btfsc	(efgtoa@ne+1)& (0+255),7,b
  4975  000F20  EF96  F007         	goto	u8220
  4976  000F24  EF94  F007         	goto	u8221
  4977  000F28                     u8221:
  4978  000F28  EF9A  F007         	goto	l6072
  4979  000F2C                     u8220:
  4980  000F2C                     
  4981                           ; BSR set to: 0
  4982                           ;C:\Program Files\Microchip\xc8\v2.36\pic\sources\c99\common\doprnt.c: 472:             
      +                          ++t;
  4983  000F2C  4BC1               	infsnz	efgtoa@t& (0+255),f,b
  4984  000F2E  2BC2               	incf	(efgtoa@t+1)& (0+255),f,b
  4985                           
  4986                           ;C:\Program Files\Microchip\xc8\v2.36\pic\sources\c99\common\doprnt.c: 473:         } el
      +                          se {
  4987  000F30  EFE5  F007         	goto	l6100
  4988  000F34                     l6072:
  4989                           
  4990                           ;C:\Program Files\Microchip\xc8\v2.36\pic\sources\c99\common\doprnt.c: 474:             
      +                          if (!pp && (ne < 0)) {
  4991  000F34  0100               	movlb	0	; () banked
  4992  000F36  51C3               	movf	efgtoa@pp& (0+255),w,b
  4993  000F38  11C4               	iorwf	(efgtoa@pp+1)& (0+255),w,b
  4994  000F3A  A4D8               	btfss	status,2,c
  4995  000F3C  EFA2  F007         	goto	u8231
  4996  000F40  EFA4  F007         	goto	u8230
  4997  000F44                     u8231:
  4998  000F44  EFCE  F007         	goto	l6092
  4999  000F48                     u8230:
  5000  000F48                     
  5001                           ; BSR set to: 0
  5002  000F48  BFC6               	btfsc	(efgtoa@ne+1)& (0+255),7,b
  5003  000F4A  EFAB  F007         	goto	u8240
  5004  000F4E  EFA9  F007         	goto	u8241
  5005  000F52                     u8241:
  5006  000F52  EFCE  F007         	goto	l6092
  5007  000F56                     u8240:
  5008  000F56                     
  5009                           ; BSR set to: 0
  5010                           ;C:\Program Files\Microchip\xc8\v2.36\pic\sources\c99\common\doprnt.c: 475:             
      +                              dbuf[n++] = '.';
  5011  000F56  0E00               	movlw	low _dbuf
  5012  000F58  25E7               	addwf	efgtoa@n& (0+255),w,b
  5013  000F5A  6ED9               	movwf	fsr2l,c
  5014  000F5C  0E01               	movlw	high _dbuf
  5015  000F5E  21E8               	addwfc	(efgtoa@n+1)& (0+255),w,b
  5016  000F60  6EDA               	movwf	fsr2h,c
  5017  000F62  0E2E               	movlw	46
  5018  000F64  6EDF               	movwf	indf2,c
  5019  000F66                     
  5020                           ; BSR set to: 0
  5021  000F66  4BE7               	infsnz	efgtoa@n& (0+255),f,b
  5022  000F68  2BE8               	incf	(efgtoa@n+1)& (0+255),f,b
  5023  000F6A                     
  5024                           ; BSR set to: 0
  5025                           ;C:\Program Files\Microchip\xc8\v2.36\pic\sources\c99\common\doprnt.c: 476:             
      +                              --w;
  5026  000F6A  07D3               	decf	efgtoa@w& (0+255),f,b
  5027  000F6C  A0D8               	btfss	status,0,c
  5028  000F6E  07D4               	decf	(efgtoa@w+1)& (0+255),f,b
  5029  000F70                     
  5030                           ; BSR set to: 0
  5031                           ;C:\Program Files\Microchip\xc8\v2.36\pic\sources\c99\common\doprnt.c: 477:             
      +                              pp = 1;
  5032  000F70  0E00               	movlw	0
  5033  000F72  6FC4               	movwf	(efgtoa@pp+1)& (0+255),b
  5034  000F74  0E01               	movlw	1
  5035  000F76  6FC3               	movwf	efgtoa@pp& (0+255),b
  5036  000F78  EFCE  F007         	goto	l6092
  5037  000F7C                     l6084:
  5038                           
  5039                           ; BSR set to: 0
  5040                           ;C:\Program Files\Microchip\xc8\v2.36\pic\sources\c99\common\doprnt.c: 480:             
      +                              dbuf[n++] = '0';
  5041  000F7C  0E00               	movlw	low _dbuf
  5042  000F7E  25E7               	addwf	efgtoa@n& (0+255),w,b
  5043  000F80  6ED9               	movwf	fsr2l,c
  5044  000F82  0E01               	movlw	high _dbuf
  5045  000F84  21E8               	addwfc	(efgtoa@n+1)& (0+255),w,b
  5046  000F86  6EDA               	movwf	fsr2h,c
  5047  000F88  0E30               	movlw	48
  5048  000F8A  6EDF               	movwf	indf2,c
  5049  000F8C                     
  5050                           ; BSR set to: 0
  5051  000F8C  4BE7               	infsnz	efgtoa@n& (0+255),f,b
  5052  000F8E  2BE8               	incf	(efgtoa@n+1)& (0+255),f,b
  5053  000F90                     
  5054                           ; BSR set to: 0
  5055                           ;C:\Program Files\Microchip\xc8\v2.36\pic\sources\c99\common\doprnt.c: 481:             
      +                              --w;
  5056  000F90  07D3               	decf	efgtoa@w& (0+255),f,b
  5057  000F92  A0D8               	btfss	status,0,c
  5058  000F94  07D4               	decf	(efgtoa@w+1)& (0+255),f,b
  5059  000F96                     
  5060                           ; BSR set to: 0
  5061                           ;C:\Program Files\Microchip\xc8\v2.36\pic\sources\c99\common\doprnt.c: 482:             
      +                              --t;
  5062  000F96  07C1               	decf	efgtoa@t& (0+255),f,b
  5063  000F98  A0D8               	btfss	status,0,c
  5064  000F9A  07C2               	decf	(efgtoa@t+1)& (0+255),f,b
  5065  000F9C                     l6092:
  5066                           
  5067                           ; BSR set to: 0
  5068                           ;C:\Program Files\Microchip\xc8\v2.36\pic\sources\c99\common\doprnt.c: 479:             
      +                          while (t) {
  5069  000F9C  51C1               	movf	efgtoa@t& (0+255),w,b
  5070  000F9E  11C2               	iorwf	(efgtoa@t+1)& (0+255),w,b
  5071  000FA0  A4D8               	btfss	status,2,c
  5072  000FA2  EFD5  F007         	goto	u8251
  5073  000FA6  EFD7  F007         	goto	u8250
  5074  000FAA                     u8251:
  5075  000FAA  EFBE  F007         	goto	l6084
  5076  000FAE                     u8250:
  5077  000FAE                     
  5078                           ; BSR set to: 0
  5079                           ;C:\Program Files\Microchip\xc8\v2.36\pic\sources\c99\common\doprnt.c: 484:             
      +                          dbuf[n++] = (char)((int)'0' + d);
  5080  000FAE  0E00               	movlw	low _dbuf
  5081  000FB0  25E7               	addwf	efgtoa@n& (0+255),w,b
  5082  000FB2  6ED9               	movwf	fsr2l,c
  5083  000FB4  0E01               	movlw	high _dbuf
  5084  000FB6  21E8               	addwfc	(efgtoa@n+1)& (0+255),w,b
  5085  000FB8  6EDA               	movwf	fsr2h,c
  5086  000FBA  51CD               	movf	efgtoa@d& (0+255),w,b
  5087  000FBC  0F30               	addlw	48
  5088  000FBE  6EDF               	movwf	indf2,c
  5089  000FC0                     
  5090                           ; BSR set to: 0
  5091  000FC0  4BE7               	infsnz	efgtoa@n& (0+255),f,b
  5092  000FC2  2BE8               	incf	(efgtoa@n+1)& (0+255),f,b
  5093  000FC4                     
  5094                           ; BSR set to: 0
  5095                           ;C:\Program Files\Microchip\xc8\v2.36\pic\sources\c99\common\doprnt.c: 485:             
      +                          --w;
  5096  000FC4  07D3               	decf	efgtoa@w& (0+255),f,b
  5097  000FC6  A0D8               	btfss	status,0,c
  5098  000FC8  07D4               	decf	(efgtoa@w+1)& (0+255),f,b
  5099  000FCA                     l6100:
  5100                           
  5101                           ; BSR set to: 0
  5102                           ;C:\Program Files\Microchip\xc8\v2.36\pic\sources\c99\common\doprnt.c: 487:         h -=
      +                           l*u;
  5103  000FCA  C0D7  F0A3         	movff	efgtoa@h,___flsub@b
  5104  000FCE  C0D8  F0A4         	movff	efgtoa@h+1,___flsub@b+1
  5105  000FD2  C0D9  F0A5         	movff	efgtoa@h+2,___flsub@b+2
  5106  000FD6  C0DA  F0A6         	movff	efgtoa@h+3,___flsub@b+3
  5107  000FDA  C0E9  F08E         	movff	efgtoa@u,___flmul@a
  5108  000FDE  C0EA  F08F         	movff	efgtoa@u+1,___flmul@a+1
  5109  000FE2  C0EB  F090         	movff	efgtoa@u+2,___flmul@a+2
  5110  000FE6  C0EC  F091         	movff	efgtoa@u+3,___flmul@a+3
  5111  000FEA  C0DB  F08A         	movff	efgtoa@l,___flmul@b
  5112  000FEE  C0DC  F08B         	movff	efgtoa@l+1,___flmul@b+1
  5113  000FF2  C0DD  F08C         	movff	efgtoa@l+2,___flmul@b+2
  5114  000FF6  C0DE  F08D         	movff	efgtoa@l+3,___flmul@b+3
  5115  000FFA  ECC3  F00D         	call	___flmul	;wreg free
  5116  000FFE  C08A  F0A7         	movff	?___flmul,___flsub@a
  5117  001002  C08B  F0A8         	movff	?___flmul+1,___flsub@a+1
  5118  001006  C08C  F0A9         	movff	?___flmul+2,___flsub@a+2
  5119  00100A  C08D  F0AA         	movff	?___flmul+3,___flsub@a+3
  5120  00100E  ECCF  F023         	call	___flsub	;wreg free
  5121  001012  C0A3  F0D7         	movff	?___flsub,efgtoa@h
  5122  001016  C0A4  F0D8         	movff	?___flsub+1,efgtoa@h+1
  5123  00101A  C0A5  F0D9         	movff	?___flsub+2,efgtoa@h+2
  5124  00101E  C0A6  F0DA         	movff	?___flsub+3,efgtoa@h+3
  5125  001022                     
  5126                           ;C:\Program Files\Microchip\xc8\v2.36\pic\sources\c99\common\doprnt.c: 488:         u = 
      +                          u/10.0;
  5127  001022  C0E9  F080         	movff	efgtoa@u,___fldiv@b
  5128  001026  C0EA  F081         	movff	efgtoa@u+1,___fldiv@b+1
  5129  00102A  C0EB  F082         	movff	efgtoa@u+2,___fldiv@b+2
  5130  00102E  C0EC  F083         	movff	efgtoa@u+3,___fldiv@b+3
  5131  001032  0E00               	movlw	0
  5132  001034  0100               	movlb	0	; () banked
  5133  001036  6F84               	movwf	___fldiv@a& (0+255),b
  5134  001038  0E00               	movlw	0
  5135  00103A  6F85               	movwf	(___fldiv@a+1)& (0+255),b
  5136  00103C  0E20               	movlw	32
  5137  00103E  6F86               	movwf	(___fldiv@a+2)& (0+255),b
  5138  001040  0E41               	movlw	65
  5139  001042  6F87               	movwf	(___fldiv@a+3)& (0+255),b
  5140  001044  ECEE  F011         	call	___fldiv	;wreg free
  5141  001048  C080  F0E9         	movff	?___fldiv,efgtoa@u
  5142  00104C  C081  F0EA         	movff	?___fldiv+1,efgtoa@u+1
  5143  001050  C082  F0EB         	movff	?___fldiv+2,efgtoa@u+2
  5144  001054  C083  F0EC         	movff	?___fldiv+3,efgtoa@u+3
  5145  001058                     
  5146                           ;C:\Program Files\Microchip\xc8\v2.36\pic\sources\c99\common\doprnt.c: 489:         --ne
      +                          ;
  5147  001058  0100               	movlb	0	; () banked
  5148  00105A  07C5               	decf	efgtoa@ne& (0+255),f,b
  5149  00105C  A0D8               	btfss	status,0,c
  5150  00105E  07C6               	decf	(efgtoa@ne+1)& (0+255),f,b
  5151  001060                     
  5152                           ; BSR set to: 0
  5153                           ;C:\Program Files\Microchip\xc8\v2.36\pic\sources\c99\common\doprnt.c: 490:         ++i;
  5154  001060  4BDF               	infsnz	efgtoa@i& (0+255),f,b
  5155  001062  2BE0               	incf	(efgtoa@i+1)& (0+255),f,b
  5156  001064                     l6108:
  5157                           
  5158                           ; BSR set to: 0
  5159                           ;C:\Program Files\Microchip\xc8\v2.36\pic\sources\c99\common\doprnt.c: 468:     while ((
      +                          i < m) && (n < (80 - 5))) {
  5160  001064  51C7               	movf	efgtoa@m& (0+255),w,b
  5161  001066  5DDF               	subwf	efgtoa@i& (0+255),w,b
  5162  001068  51E0               	movf	(efgtoa@i+1)& (0+255),w,b
  5163  00106A  0A80               	xorlw	128
  5164  00106C  6FB6               	movwf	??_efgtoa& (0+255),b
  5165  00106E  51C8               	movf	(efgtoa@m+1)& (0+255),w,b
  5166  001070  0A80               	xorlw	128
  5167  001072  59B6               	subwfb	??_efgtoa& (0+255),w,b
  5168  001074  B0D8               	btfsc	status,0,c
  5169  001076  EF3F  F008         	goto	u8261
  5170  00107A  EF41  F008         	goto	u8260
  5171  00107E                     u8261:
  5172  00107E  EF4F  F008         	goto	l6112
  5173  001082                     u8260:
  5174  001082                     
  5175                           ; BSR set to: 0
  5176  001082  BFE8               	btfsc	(efgtoa@n+1)& (0+255),7,b
  5177  001084  EF4D  F008         	goto	u8271
  5178  001088  51E8               	movf	(efgtoa@n+1)& (0+255),w,b
  5179  00108A  E109               	bnz	u8270
  5180  00108C  0E4B               	movlw	75
  5181  00108E  5DE7               	subwf	efgtoa@n& (0+255),w,b
  5182  001090  A0D8               	btfss	status,0,c
  5183  001092  EF4D  F008         	goto	u8271
  5184  001096  EF4F  F008         	goto	u8270
  5185  00109A                     u8271:
  5186  00109A  EF43  F007         	goto	l6060
  5187  00109E                     u8270:
  5188  00109E                     l6112:
  5189                           
  5190                           ; BSR set to: 0
  5191                           ;C:\Program Files\Microchip\xc8\v2.36\pic\sources\c99\common\doprnt.c: 492:     if (!pp 
      +                          && (flags & (1 << 4))) {
  5192  00109E  51C3               	movf	efgtoa@pp& (0+255),w,b
  5193  0010A0  11C4               	iorwf	(efgtoa@pp+1)& (0+255),w,b
  5194  0010A2  A4D8               	btfss	status,2,c
  5195  0010A4  EF56  F008         	goto	u8281
  5196  0010A8  EF58  F008         	goto	u8280
  5197  0010AC                     u8281:
  5198  0010AC  EF69  F008         	goto	l6120
  5199  0010B0                     u8280:
  5200  0010B0                     
  5201                           ; BSR set to: 0
  5202  0010B0  A848               	btfss	_flags^0,4,c
  5203  0010B2  EF5D  F008         	goto	u8291
  5204  0010B6  EF5F  F008         	goto	u8290
  5205  0010BA                     u8291:
  5206  0010BA  EF69  F008         	goto	l6120
  5207  0010BE                     u8290:
  5208  0010BE                     
  5209                           ; BSR set to: 0
  5210                           ;C:\Program Files\Microchip\xc8\v2.36\pic\sources\c99\common\doprnt.c: 493:         dbuf
      +                          [n++] = '.';
  5211  0010BE  0E00               	movlw	low _dbuf
  5212  0010C0  25E7               	addwf	efgtoa@n& (0+255),w,b
  5213  0010C2  6ED9               	movwf	fsr2l,c
  5214  0010C4  0E01               	movlw	high _dbuf
  5215  0010C6  21E8               	addwfc	(efgtoa@n+1)& (0+255),w,b
  5216  0010C8  6EDA               	movwf	fsr2h,c
  5217  0010CA  0E2E               	movlw	46
  5218  0010CC  6EDF               	movwf	indf2,c
  5219  0010CE                     
  5220                           ; BSR set to: 0
  5221  0010CE  4BE7               	infsnz	efgtoa@n& (0+255),f,b
  5222  0010D0  2BE8               	incf	(efgtoa@n+1)& (0+255),f,b
  5223  0010D2                     l6120:
  5224                           
  5225                           ; BSR set to: 0
  5226                           ;C:\Program Files\Microchip\xc8\v2.36\pic\sources\c99\common\doprnt.c: 495:     dbuf[n] 
      +                          = '\0';
  5227  0010D2  0E00               	movlw	low _dbuf
  5228  0010D4  25E7               	addwf	efgtoa@n& (0+255),w,b
  5229  0010D6  6ED9               	movwf	fsr2l,c
  5230  0010D8  0E01               	movlw	high _dbuf
  5231  0010DA  21E8               	addwfc	(efgtoa@n+1)& (0+255),w,b
  5232  0010DC  6EDA               	movwf	fsr2h,c
  5233  0010DE  0E00               	movlw	0
  5234  0010E0  6EDF               	movwf	indf2,c
  5235  0010E2                     
  5236                           ; BSR set to: 0
  5237                           ;C:\Program Files\Microchip\xc8\v2.36\pic\sources\c99\common\doprnt.c: 498:     if (nmod
      +                          e == 'e') {
  5238  0010E2  0E65               	movlw	101
  5239  0010E4  19D5               	xorwf	efgtoa@nmode& (0+255),w,b
  5240  0010E6  A4D8               	btfss	status,2,c
  5241  0010E8  EF78  F008         	goto	u8301
  5242  0010EC  EF7A  F008         	goto	u8300
  5243  0010F0                     u8301:
  5244  0010F0  EFDA  F003         	goto	l5922
  5245  0010F4                     u8300:
  5246  0010F4                     
  5247                           ; BSR set to: 0
  5248                           ;C:\Program Files\Microchip\xc8\v2.36\pic\sources\c99\common\doprnt.c: 499:         i = 
      +                          sizeof(dbuf) - 1;
  5249  0010F4  0E00               	movlw	0
  5250  0010F6  6FE0               	movwf	(efgtoa@i+1)& (0+255),b
  5251  0010F8  0E4F               	movlw	79
  5252  0010FA  6FDF               	movwf	efgtoa@i& (0+255),b
  5253  0010FC                     
  5254                           ; BSR set to: 0
  5255                           ;C:\Program Files\Microchip\xc8\v2.36\pic\sources\c99\common\doprnt.c: 500:         dbuf
      +                          [i] = '\0';
  5256  0010FC  0E00               	movlw	low _dbuf
  5257  0010FE  25DF               	addwf	efgtoa@i& (0+255),w,b
  5258  001100  6ED9               	movwf	fsr2l,c
  5259  001102  0E01               	movlw	high _dbuf
  5260  001104  21E0               	addwfc	(efgtoa@i+1)& (0+255),w,b
  5261  001106  6EDA               	movwf	fsr2h,c
  5262  001108  0E00               	movlw	0
  5263  00110A  6EDF               	movwf	indf2,c
  5264  00110C                     
  5265                           ; BSR set to: 0
  5266                           ;C:\Program Files\Microchip\xc8\v2.36\pic\sources\c99\common\doprnt.c: 501:         sign
      +                           = 0;
  5267  00110C  0E00               	movlw	0
  5268  00110E  6FD0               	movwf	(efgtoa@sign+1)& (0+255),b
  5269  001110  0E00               	movlw	0
  5270  001112  6FCF               	movwf	efgtoa@sign& (0+255),b
  5271  001114                     
  5272                           ; BSR set to: 0
  5273                           ;C:\Program Files\Microchip\xc8\v2.36\pic\sources\c99\common\doprnt.c: 502:         if (
      +                          e < 0) {
  5274  001114  BFE6               	btfsc	(efgtoa@e+1)& (0+255),7,b
  5275  001116  EF91  F008         	goto	u8310
  5276  00111A  EF8F  F008         	goto	u8311
  5277  00111E                     u8311:
  5278  00111E  EF99  F008         	goto	l6136
  5279  001122                     u8310:
  5280  001122                     
  5281                           ; BSR set to: 0
  5282                           ;C:\Program Files\Microchip\xc8\v2.36\pic\sources\c99\common\doprnt.c: 503:             
      +                          sign = 1;
  5283  001122  0E00               	movlw	0
  5284  001124  6FD0               	movwf	(efgtoa@sign+1)& (0+255),b
  5285  001126  0E01               	movlw	1
  5286  001128  6FCF               	movwf	efgtoa@sign& (0+255),b
  5287  00112A                     
  5288                           ; BSR set to: 0
  5289                           ;C:\Program Files\Microchip\xc8\v2.36\pic\sources\c99\common\doprnt.c: 504:             
      +                          e = -e;
  5290  00112A  6DE5               	negf	efgtoa@e& (0+255),b
  5291  00112C  1FE6               	comf	(efgtoa@e+1)& (0+255),f,b
  5292  00112E  B0D8               	btfsc	status,0,c
  5293  001130  2BE6               	incf	(efgtoa@e+1)& (0+255),f,b
  5294  001132                     l6136:
  5295                           
  5296                           ; BSR set to: 0
  5297                           ;C:\Program Files\Microchip\xc8\v2.36\pic\sources\c99\common\doprnt.c: 506:         p = 
      +                          2;
  5298  001132  0E00               	movlw	0
  5299  001134  6FD2               	movwf	(efgtoa@p+1)& (0+255),b
  5300  001136  0E02               	movlw	2
  5301  001138  6FD1               	movwf	efgtoa@p& (0+255),b
  5302                           
  5303                           ;C:\Program Files\Microchip\xc8\v2.36\pic\sources\c99\common\doprnt.c: 507:         whil
      +                          e (e || (0 < p)) {
  5304  00113A  EFCA  F008         	goto	l6148
  5305  00113E                     l6138:
  5306                           
  5307                           ; BSR set to: 0
  5308                           ;C:\Program Files\Microchip\xc8\v2.36\pic\sources\c99\common\doprnt.c: 508:             
      +                          --i;
  5309  00113E  07DF               	decf	efgtoa@i& (0+255),f,b
  5310  001140  A0D8               	btfss	status,0,c
  5311  001142  07E0               	decf	(efgtoa@i+1)& (0+255),f,b
  5312  001144                     
  5313                           ; BSR set to: 0
  5314                           ;C:\Program Files\Microchip\xc8\v2.36\pic\sources\c99\common\doprnt.c: 509:             
      +                          dbuf[i] = '0' + (e % 10);
  5315  001144  0E00               	movlw	low _dbuf
  5316  001146  25DF               	addwf	efgtoa@i& (0+255),w,b
  5317  001148  6ED9               	movwf	fsr2l,c
  5318  00114A  0E01               	movlw	high _dbuf
  5319  00114C  21E0               	addwfc	(efgtoa@i+1)& (0+255),w,b
  5320  00114E  6EDA               	movwf	fsr2h,c
  5321  001150  C0E5  F032         	movff	efgtoa@e,___awmod@dividend
  5322  001154  C0E6  F033         	movff	efgtoa@e+1,___awmod@dividend+1
  5323  001158  0E00               	movlw	0
  5324  00115A  6E35               	movwf	(___awmod@divisor+1)^0,c
  5325  00115C  0E0A               	movlw	10
  5326  00115E  6E34               	movwf	___awmod@divisor^0,c
  5327  001160  EC7B  F020         	call	___awmod	;wreg free
  5328  001164  5032               	movf	?___awmod^0,w,c
  5329  001166  0F30               	addlw	48
  5330  001168  6EDF               	movwf	indf2,c
  5331  00116A                     
  5332                           ;C:\Program Files\Microchip\xc8\v2.36\pic\sources\c99\common\doprnt.c: 510:             
      +                          e = e / 10;
  5333  00116A  C0E5  F032         	movff	efgtoa@e,___awdiv@dividend
  5334  00116E  C0E6  F033         	movff	efgtoa@e+1,___awdiv@dividend+1
  5335  001172  0E00               	movlw	0
  5336  001174  6E35               	movwf	(___awdiv@divisor+1)^0,c
  5337  001176  0E0A               	movlw	10
  5338  001178  6E34               	movwf	___awdiv@divisor^0,c
  5339  00117A  EC18  F020         	call	___awdiv	;wreg free
  5340  00117E  C032  F0E5         	movff	?___awdiv,efgtoa@e
  5341  001182  C033  F0E6         	movff	?___awdiv+1,efgtoa@e+1
  5342  001186                     
  5343                           ;C:\Program Files\Microchip\xc8\v2.36\pic\sources\c99\common\doprnt.c: 511:             
      +                          --p;
  5344  001186  0100               	movlb	0	; () banked
  5345  001188  07D1               	decf	efgtoa@p& (0+255),f,b
  5346  00118A  A0D8               	btfss	status,0,c
  5347  00118C  07D2               	decf	(efgtoa@p+1)& (0+255),f,b
  5348  00118E                     
  5349                           ; BSR set to: 0
  5350                           ;C:\Program Files\Microchip\xc8\v2.36\pic\sources\c99\common\doprnt.c: 512:             
      +                          --w;
  5351  00118E  07D3               	decf	efgtoa@w& (0+255),f,b
  5352  001190  A0D8               	btfss	status,0,c
  5353  001192  07D4               	decf	(efgtoa@w+1)& (0+255),f,b
  5354  001194                     l6148:
  5355                           
  5356                           ; BSR set to: 0
  5357                           ;C:\Program Files\Microchip\xc8\v2.36\pic\sources\c99\common\doprnt.c: 507:         whil
      +                          e (e || (0 < p)) {
  5358  001194  51E5               	movf	efgtoa@e& (0+255),w,b
  5359  001196  11E6               	iorwf	(efgtoa@e+1)& (0+255),w,b
  5360  001198  A4D8               	btfss	status,2,c
  5361  00119A  EFD1  F008         	goto	u8321
  5362  00119E  EFD3  F008         	goto	u8320
  5363  0011A2                     u8321:
  5364  0011A2  EF9F  F008         	goto	l6138
  5365  0011A6                     u8320:
  5366  0011A6                     
  5367                           ; BSR set to: 0
  5368  0011A6  BFD2               	btfsc	(efgtoa@p+1)& (0+255),7,b
  5369  0011A8  EFE0  F008         	goto	u8330
  5370  0011AC  51D2               	movf	(efgtoa@p+1)& (0+255),w,b
  5371  0011AE  E106               	bnz	u8331
  5372  0011B0  05D1               	decf	efgtoa@p& (0+255),w,b
  5373  0011B2  B0D8               	btfsc	status,0,c
  5374  0011B4  EFDE  F008         	goto	u8331
  5375  0011B8  EFE0  F008         	goto	u8330
  5376  0011BC                     u8331:
  5377  0011BC  EF9F  F008         	goto	l6138
  5378  0011C0                     u8330:
  5379  0011C0                     
  5380                           ; BSR set to: 0
  5381                           ;C:\Program Files\Microchip\xc8\v2.36\pic\sources\c99\common\doprnt.c: 514:         --i;
  5382  0011C0  07DF               	decf	efgtoa@i& (0+255),f,b
  5383  0011C2  A0D8               	btfss	status,0,c
  5384  0011C4  07E0               	decf	(efgtoa@i+1)& (0+255),f,b
  5385  0011C6                     
  5386                           ; BSR set to: 0
  5387                           ;C:\Program Files\Microchip\xc8\v2.36\pic\sources\c99\common\doprnt.c: 515:         dbuf
      +                          [i] = sign ? '-' : '+';
  5388  0011C6  51CF               	movf	efgtoa@sign& (0+255),w,b
  5389  0011C8  11D0               	iorwf	(efgtoa@sign+1)& (0+255),w,b
  5390  0011CA  A4D8               	btfss	status,2,c
  5391  0011CC  EFEA  F008         	goto	u8341
  5392  0011D0  EFEC  F008         	goto	u8340
  5393  0011D4                     u8341:
  5394  0011D4  EFF2  F008         	goto	l6158
  5395  0011D8                     u8340:
  5396  0011D8                     
  5397                           ; BSR set to: 0
  5398  0011D8  0E00               	movlw	0
  5399  0011DA  6FBE               	movwf	(_efgtoa$1125+1)& (0+255),b
  5400  0011DC  0E2B               	movlw	43
  5401  0011DE  6FBD               	movwf	_efgtoa$1125& (0+255),b
  5402  0011E0  EFF6  F008         	goto	l6160
  5403  0011E4                     l6158:
  5404                           
  5405                           ; BSR set to: 0
  5406  0011E4  0E00               	movlw	0
  5407  0011E6  6FBE               	movwf	(_efgtoa$1125+1)& (0+255),b
  5408  0011E8  0E2D               	movlw	45
  5409  0011EA  6FBD               	movwf	_efgtoa$1125& (0+255),b
  5410  0011EC                     l6160:
  5411                           
  5412                           ; BSR set to: 0
  5413  0011EC  0E00               	movlw	low _dbuf
  5414  0011EE  25DF               	addwf	efgtoa@i& (0+255),w,b
  5415  0011F0  6ED9               	movwf	fsr2l,c
  5416  0011F2  0E01               	movlw	high _dbuf
  5417  0011F4  21E0               	addwfc	(efgtoa@i+1)& (0+255),w,b
  5418  0011F6  6EDA               	movwf	fsr2h,c
  5419  0011F8  C0BD  FFDF         	movff	_efgtoa$1125,indf2
  5420  0011FC                     
  5421                           ; BSR set to: 0
  5422                           ;C:\Program Files\Microchip\xc8\v2.36\pic\sources\c99\common\doprnt.c: 516:         --w;
  5423  0011FC  07D3               	decf	efgtoa@w& (0+255),f,b
  5424  0011FE  A0D8               	btfss	status,0,c
  5425  001200  07D4               	decf	(efgtoa@w+1)& (0+255),f,b
  5426  001202                     
  5427                           ; BSR set to: 0
  5428                           ;C:\Program Files\Microchip\xc8\v2.36\pic\sources\c99\common\doprnt.c: 517:         --i;
  5429  001202  07DF               	decf	efgtoa@i& (0+255),f,b
  5430  001204  A0D8               	btfss	status,0,c
  5431  001206  07E0               	decf	(efgtoa@i+1)& (0+255),f,b
  5432  001208                     
  5433                           ; BSR set to: 0
  5434  001208  0EBF               	movlw	191
  5435  00120A  6FB6               	movwf	??_efgtoa& (0+255),b
  5436  00120C  0EFF               	movlw	255
  5437  00120E  6FB7               	movwf	(??_efgtoa+1)& (0+255),b
  5438  001210  51B5               	movf	efgtoa@c& (0+255),w,b
  5439  001212  6FB8               	movwf	(??_efgtoa+2)& (0+255),b
  5440  001214  6BB9               	clrf	(??_efgtoa+3)& (0+255),b
  5441  001216  51B6               	movf	??_efgtoa& (0+255),w,b
  5442  001218  27B8               	addwf	(??_efgtoa+2)& (0+255),f,b
  5443  00121A  51B7               	movf	(??_efgtoa+1)& (0+255),w,b
  5444  00121C  23B9               	addwfc	(??_efgtoa+3)& (0+255),f,b
  5445  00121E  51B9               	movf	(??_efgtoa+3)& (0+255),w,b
  5446  001220  E109               	bnz	u8350
  5447  001222  0E1A               	movlw	26
  5448  001224  5DB8               	subwf	(??_efgtoa+2)& (0+255),w,b
  5449  001226  A0D8               	btfss	status,0,c
  5450  001228  EF18  F009         	goto	u8351
  5451  00122C  EF1A  F009         	goto	u8350
  5452  001230                     u8351:
  5453  001230  EF20  F009         	goto	l6172
  5454  001234                     u8350:
  5455  001234                     
  5456                           ; BSR set to: 0
  5457  001234  0E00               	movlw	0
  5458  001236  6FC0               	movwf	(_efgtoa$1126+1)& (0+255),b
  5459  001238  0E65               	movlw	101
  5460  00123A  6FBF               	movwf	_efgtoa$1126& (0+255),b
  5461  00123C  EF24  F009         	goto	l6174
  5462  001240                     l6172:
  5463                           
  5464                           ; BSR set to: 0
  5465  001240  0E00               	movlw	0
  5466  001242  6FC0               	movwf	(_efgtoa$1126+1)& (0+255),b
  5467  001244  0E45               	movlw	69
  5468  001246  6FBF               	movwf	_efgtoa$1126& (0+255),b
  5469  001248                     l6174:
  5470                           
  5471                           ; BSR set to: 0
  5472  001248  0E00               	movlw	low _dbuf
  5473  00124A  25DF               	addwf	efgtoa@i& (0+255),w,b
  5474  00124C  6ED9               	movwf	fsr2l,c
  5475  00124E  0E01               	movlw	high _dbuf
  5476  001250  21E0               	addwfc	(efgtoa@i+1)& (0+255),w,b
  5477  001252  6EDA               	movwf	fsr2h,c
  5478  001254  C0BF  FFDF         	movff	_efgtoa$1126,indf2
  5479  001258                     
  5480                           ; BSR set to: 0
  5481                           ;C:\Program Files\Microchip\xc8\v2.36\pic\sources\c99\common\doprnt.c: 519:         --w;
  5482  001258  07D3               	decf	efgtoa@w& (0+255),f,b
  5483  00125A  A0D8               	btfss	status,0,c
  5484  00125C  07D4               	decf	(efgtoa@w+1)& (0+255),f,b
  5485  00125E                     
  5486                           ; BSR set to: 0
  5487                           ;C:\Program Files\Microchip\xc8\v2.36\pic\sources\c99\common\doprnt.c: 520:         strc
      +                          py(&dbuf[n], &dbuf[i]);
  5488  00125E  0E00               	movlw	low _dbuf
  5489  001260  25E7               	addwf	efgtoa@n& (0+255),w,b
  5490  001262  6E32               	movwf	strcpy@dest^0,c
  5491  001264  0E01               	movlw	high _dbuf
  5492  001266  21E8               	addwfc	(efgtoa@n+1)& (0+255),w,b
  5493  001268  6E33               	movwf	(strcpy@dest+1)^0,c
  5494  00126A  0E00               	movlw	low _dbuf
  5495  00126C  25DF               	addwf	efgtoa@i& (0+255),w,b
  5496  00126E  6E34               	movwf	strcpy@src^0,c
  5497  001270  0E01               	movlw	high _dbuf
  5498  001272  21E0               	addwfc	(efgtoa@i+1)& (0+255),w,b
  5499  001274  6E35               	movwf	(strcpy@src+1)^0,c
  5500  001276  EC05  F023         	call	_strcpy	;wreg free
  5501  00127A  EFDA  F003         	goto	l5922
  5502  00127E                     l906:
  5503  00127E  0012               	return		;funcret
  5504  001280                     __end_of_efgtoa:
  5505                           	callstack 0
  5506                           
  5507 ;; *************** function _tolower *****************
  5508 ;; Defined at:
  5509 ;;		line 4 in file "C:\Program Files\Microchip\xc8\v2.36\pic\sources\c99\common\tolower.c"
  5510 ;; Parameters:    Size  Location     Type
  5511 ;;  c               2    0[BANK0 ] int 
  5512 ;; Auto vars:     Size  Location     Type
  5513 ;;		None
  5514 ;; Return value:  Size  Location     Type
  5515 ;;                  2    0[BANK0 ] int 
  5516 ;; Registers used:
  5517 ;;		wreg, status,2, status,0
  5518 ;; Tracked objects:
  5519 ;;		On entry : 0/0
  5520 ;;		On exit  : 0/0
  5521 ;;		Unchanged: 0/0
  5522 ;; Data sizes:     COMRAM   BANK0   BANK1   BANK2   BANK3   BANK4   BANK5
  5523 ;;      Params:         0       2       0       0       0       0       0
  5524 ;;      Locals:         0       0       0       0       0       0       0
  5525 ;;      Temps:          0       4       0       0       0       0       0
  5526 ;;      Totals:         0       6       0       0       0       0       0
  5527 ;;Total ram usage:        6 bytes
  5528 ;; Hardware stack levels used: 1
  5529 ;; Hardware stack levels required when called: 6
  5530 ;; This function calls:
  5531 ;;		_isupper
  5532 ;; This function is called by:
  5533 ;;		_efgtoa
  5534 ;;		_vfpfcnvrt
  5535 ;; This function uses a non-reentrant model
  5536 ;;
  5537                           
  5538                           	psect	text17
  5539  00470E                     __ptext17:
  5540                           	callstack 0
  5541  00470E                     _tolower:
  5542                           	callstack 20
  5543  00470E  0EBF               	movlw	191
  5544  004710  0100               	movlb	0	; () banked
  5545  004712  6F82               	movwf	??_tolower& (0+255),b
  5546  004714  0EFF               	movlw	255
  5547  004716  6F83               	movwf	(??_tolower+1)& (0+255),b
  5548  004718  C080  F084         	movff	tolower@c,??_tolower+2
  5549  00471C  C081  F085         	movff	tolower@c+1,??_tolower+3
  5550  004720  5182               	movf	??_tolower& (0+255),w,b
  5551  004722  2784               	addwf	(??_tolower+2)& (0+255),f,b
  5552  004724  5183               	movf	(??_tolower+1)& (0+255),w,b
  5553  004726  2385               	addwfc	(??_tolower+3)& (0+255),f,b
  5554  004728  5185               	movf	(??_tolower+3)& (0+255),w,b
  5555  00472A  E107               	bnz	u7721
  5556  00472C  0E1A               	movlw	26
  5557  00472E  5D84               	subwf	(??_tolower+2)& (0+255),w,b
  5558  004730  B0D8               	btfsc	status,0,c
  5559  004732  EF9D  F023         	goto	u7721
  5560  004736  EF9F  F023         	goto	u7720
  5561  00473A                     u7721:
  5562  00473A  EFA6  F023         	goto	l1122
  5563  00473E                     u7720:
  5564  00473E                     
  5565                           ; BSR set to: 0
  5566  00473E  0E20               	movlw	32
  5567  004740  1180               	iorwf	tolower@c& (0+255),w,b
  5568  004742  6F80               	movwf	?_tolower& (0+255),b
  5569  004744  5181               	movf	(tolower@c+1)& (0+255),w,b
  5570  004746  6F81               	movwf	(?_tolower+1)& (0+255),b
  5571  004748  EFAA  F023         	goto	l1125
  5572  00474C                     l1122:
  5573                           
  5574                           ; BSR set to: 0
  5575  00474C  C080  F080         	movff	tolower@c,?_tolower
  5576  004750  C081  F081         	movff	tolower@c+1,?_tolower+1
  5577  004754                     l1125:
  5578                           
  5579                           ; BSR set to: 0
  5580  004754  0012               	return		;funcret
  5581  004756                     __end_of_tolower:
  5582                           	callstack 0
  5583                           
  5584 ;; *************** function _isupper *****************
  5585 ;; Defined at:
  5586 ;;		line 5 in file "C:\Program Files\Microchip\xc8\v2.36\pic\sources\c99\common\isupper.c"
  5587 ;; Parameters:    Size  Location     Type
  5588 ;;  c               2   49[COMRAM] int 
  5589 ;; Auto vars:     Size  Location     Type
  5590 ;;		None
  5591 ;; Return value:  Size  Location     Type
  5592 ;;                  2   49[COMRAM] int 
  5593 ;; Registers used:
  5594 ;;		wreg, status,2, status,0
  5595 ;; Tracked objects:
  5596 ;;		On entry : 0/0
  5597 ;;		On exit  : 0/0
  5598 ;;		Unchanged: 0/0
  5599 ;; Data sizes:     COMRAM   BANK0   BANK1   BANK2   BANK3   BANK4   BANK5
  5600 ;;      Params:         2       0       0       0       0       0       0
  5601 ;;      Locals:         0       0       0       0       0       0       0
  5602 ;;      Temps:          4       0       0       0       0       0       0
  5603 ;;      Totals:         6       0       0       0       0       0       0
  5604 ;;Total ram usage:        6 bytes
  5605 ;; Hardware stack levels used: 1
  5606 ;; Hardware stack levels required when called: 5
  5607 ;; This function calls:
  5608 ;;		Nothing
  5609 ;; This function is called by:
  5610 ;;		_efgtoa
  5611 ;;		_vfpfcnvrt
  5612 ;;		_tolower
  5613 ;; This function uses a non-reentrant model
  5614 ;;
  5615                           
  5616                           	psect	text18
  5617  0047E6                     __ptext18:
  5618                           	callstack 0
  5619  0047E6                     _isupper:
  5620                           	callstack 20
  5621  0047E6  0EBF               	movlw	191
  5622  0047E8  6E34               	movwf	??_isupper^0,c
  5623  0047EA  0EFF               	movlw	255
  5624  0047EC  6E35               	movwf	(??_isupper+1)^0,c
  5625  0047EE  C032  F036         	movff	isupper@c,??_isupper+2
  5626  0047F2  C033  F037         	movff	isupper@c+1,??_isupper+3
  5627  0047F6  5034               	movf	??_isupper^0,w,c
  5628  0047F8  2636               	addwf	(??_isupper+2)^0,f,c
  5629  0047FA  5035               	movf	(??_isupper+1)^0,w,c
  5630  0047FC  2237               	addwfc	(??_isupper+3)^0,f,c
  5631  0047FE  5037               	movf	(??_isupper+3)^0,w,c
  5632  004800  E10A               	bnz	u6870
  5633  004802  0E1A               	movlw	26
  5634  004804  5C36               	subwf	(??_isupper+2)^0,w,c
  5635  004806  A0D8               	btfss	status,0,c
  5636  004808  EF08  F024         	goto	u6871
  5637  00480C  EF0B  F024         	goto	u6870
  5638  004810                     u6871:
  5639  004810  0E01               	movlw	1
  5640  004812  EF0C  F024         	goto	u6880
  5641  004816                     u6870:
  5642  004816  0E00               	movlw	0
  5643  004818                     u6880:
  5644  004818  6E32               	movwf	?_isupper^0,c
  5645  00481A  6A33               	clrf	(?_isupper+1)^0,c
  5646  00481C  0012               	return		;funcret
  5647  00481E                     __end_of_isupper:
  5648                           	callstack 0
  5649                           
  5650 ;; *************** function _strcpy *****************
  5651 ;; Defined at:
  5652 ;;		line 3 in file "C:\Program Files\Microchip\xc8\v2.36\pic\sources\c99\common\strcpy.c"
  5653 ;; Parameters:    Size  Location     Type
  5654 ;;  dest            2   49[COMRAM] PTR unsigned char 
  5655 ;;		 -> dbuf(80), 
  5656 ;;  src             2   51[COMRAM] PTR const unsigned char 
  5657 ;;		 -> STR_12(4), STR_11(4), STR_8(4), STR_7(4), 
  5658 ;;		 -> dbuf(80), 
  5659 ;; Auto vars:     Size  Location     Type
  5660 ;;  d               2    2[BANK0 ] PTR unsigned char 
  5661 ;;		 -> dbuf(80), 
  5662 ;;  s               2    0[BANK0 ] PTR const unsigned char 
  5663 ;;		 -> STR_12(4), STR_11(4), STR_8(4), STR_7(4), 
  5664 ;;		 -> dbuf(80), 
  5665 ;; Return value:  Size  Location     Type
  5666 ;;                  2   49[COMRAM] PTR unsigned char 
  5667 ;; Registers used:
  5668 ;;		wreg, fsr1l, fsr1h, fsr2l, fsr2h, status,2, status,0, tblptrl, tblptrh, tblptru
  5669 ;; Tracked objects:
  5670 ;;		On entry : 0/0
  5671 ;;		On exit  : 0/0
  5672 ;;		Unchanged: 0/0
  5673 ;; Data sizes:     COMRAM   BANK0   BANK1   BANK2   BANK3   BANK4   BANK5
  5674 ;;      Params:         4       0       0       0       0       0       0
  5675 ;;      Locals:         0       4       0       0       0       0       0
  5676 ;;      Temps:          2       0       0       0       0       0       0
  5677 ;;      Totals:         6       4       0       0       0       0       0
  5678 ;;Total ram usage:       10 bytes
  5679 ;; Hardware stack levels used: 1
  5680 ;; Hardware stack levels required when called: 5
  5681 ;; This function calls:
  5682 ;;		Nothing
  5683 ;; This function is called by:
  5684 ;;		_efgtoa
  5685 ;; This function uses a non-reentrant model
  5686 ;;
  5687                           
  5688                           	psect	text19
  5689  00460A                     __ptext19:
  5690                           	callstack 0
  5691  00460A                     _strcpy:
  5692                           	callstack 20
  5693  00460A  C034  F080         	movff	strcpy@src,strcpy@s
  5694  00460E  C035  F081         	movff	strcpy@src+1,strcpy@s+1
  5695  004612  C032  F082         	movff	strcpy@dest,strcpy@d
  5696  004616  C033  F083         	movff	strcpy@dest+1,strcpy@d+1
  5697  00461A                     l5810:
  5698  00461A  0100               	movlb	0	; () banked
  5699  00461C  5180               	movf	strcpy@s& (0+255),w,b
  5700  00461E  6E36               	movwf	??_strcpy^0,c
  5701  004620  5181               	movf	(strcpy@s+1)& (0+255),w,b
  5702  004622  6E37               	movwf	(??_strcpy+1)^0,c
  5703  004624  4B80               	infsnz	strcpy@s& (0+255),f,b
  5704  004626  2B81               	incf	(strcpy@s+1)& (0+255),f,b
  5705  004628  C036  FFF6         	movff	??_strcpy,tblptrl
  5706  00462C  C037  FFF7         	movff	??_strcpy+1,tblptrh
  5707  004630  6AF8               	clrf	tblptru,c
  5708  004632  C082  FFD9         	movff	strcpy@d,fsr2l
  5709  004636  C083  FFDA         	movff	strcpy@d+1,fsr2h
  5710  00463A  4B82               	infsnz	strcpy@d& (0+255),f,b
  5711  00463C  2B83               	incf	(strcpy@d+1)& (0+255),f,b
  5712  00463E  0E05               	movlw	(high __ramtop+-1)
  5713  004640  64F7               	cpfsgt	tblptrh,c
  5714  004642  D003               	bra	u7707
  5715  004644  0008               	tblrd		*
  5716  004646  50F5               	movf	tablat,w,c
  5717  004648  D005               	bra	u7700
  5718  00464A                     u7707:
  5719  00464A  CFF6 FFE1          	movff	tblptrl,fsr1l
  5720  00464E  CFF7 FFE2          	movff	tblptrh,fsr1h
  5721  004652  50E7               	movf	indf1,w,c
  5722  004654                     u7700:
  5723  004654  6EDF               	movwf	indf2,c
  5724  004656  50DF               	movf	indf2,w,c
  5725  004658  A4D8               	btfss	status,2,c
  5726  00465A  EF31  F023         	goto	u7711
  5727  00465E  EF33  F023         	goto	u7710
  5728  004662                     u7711:
  5729  004662  EF0D  F023         	goto	l5810
  5730  004666                     u7710:
  5731  004666  0012               	return		;funcret
  5732  004668                     __end_of_strcpy:
  5733                           	callstack 0
  5734                           
  5735 ;; *************** function _pad *****************
  5736 ;; Defined at:
  5737 ;;		line 72 in file "C:\Program Files\Microchip\xc8\v2.36\pic\sources\c99\common\doprnt.c"
  5738 ;; Parameters:    Size  Location     Type
  5739 ;;  fp              2   12[BANK0 ] PTR struct _IO_FILE
  5740 ;;		 -> sprintf@f(11), 
  5741 ;;  buf             2   14[BANK0 ] PTR unsigned char 
  5742 ;;		 -> dbuf(80), 
  5743 ;;  p               2   16[BANK0 ] int 
  5744 ;; Auto vars:     Size  Location     Type
  5745 ;;  w               2   20[BANK0 ] int 
  5746 ;;  i               2   18[BANK0 ] int 
  5747 ;; Return value:  Size  Location     Type
  5748 ;;                  2   12[BANK0 ] int 
  5749 ;; Registers used:
  5750 ;;		wreg, fsr1l, fsr1h, fsr2l, fsr2h, status,2, status,0, cstack
  5751 ;; Tracked objects:
  5752 ;;		On entry : 0/0
  5753 ;;		On exit  : 0/0
  5754 ;;		Unchanged: 0/0
  5755 ;; Data sizes:     COMRAM   BANK0   BANK1   BANK2   BANK3   BANK4   BANK5
  5756 ;;      Params:         0       6       0       0       0       0       0
  5757 ;;      Locals:         0       4       0       0       0       0       0
  5758 ;;      Temps:          1       0       0       0       0       0       0
  5759 ;;      Totals:         1      10       0       0       0       0       0
  5760 ;;Total ram usage:       11 bytes
  5761 ;; Hardware stack levels used: 1
  5762 ;; Hardware stack levels required when called: 8
  5763 ;; This function calls:
  5764 ;;		_fputc
  5765 ;;		_fputs
  5766 ;;		_strlen
  5767 ;; This function is called by:
  5768 ;;		_efgtoa
  5769 ;; This function uses a non-reentrant model
  5770 ;;
  5771                           
  5772                           	psect	text20
  5773  003F68                     __ptext20:
  5774                           	callstack 0
  5775  003F68                     _pad:
  5776                           	callstack 17
  5777  003F68                     
  5778                           ;C:\Program Files\Microchip\xc8\v2.36\pic\sources\c99\common\doprnt.c: 72: static int pa
      +                          d(FILE *fp, char *buf, int p);C:\Program Files\Microchip\xc8\v2.36\pic\sources\c99\commo
      +                          n\doprnt.c: 73: {;C:\Program Files\Microchip\xc8\v2.36\pic\sources\c99\common\doprnt.c: 
      +                          74:     int i, w;;C:\Program Files\Microchip\xc8\v2.36\pic\sources\c99\common\doprnt.c: 
      +                          77:     if (flags & (1 << 0)) {
  5779  003F68  A048               	btfss	_flags^0,0,c
  5780  003F6A  EFB9  F01F         	goto	u7591
  5781  003F6E  EFBB  F01F         	goto	u7590
  5782  003F72                     u7591:
  5783  003F72  EFC5  F01F         	goto	l5768
  5784  003F76                     u7590:
  5785  003F76                     
  5786                           ;C:\Program Files\Microchip\xc8\v2.36\pic\sources\c99\common\doprnt.c: 78:         fputs
      +                          ((const char *)buf, fp);
  5787  003F76  C08E  F085         	movff	pad@buf,fputs@s
  5788  003F7A  C08F  F086         	movff	pad@buf+1,fputs@s+1
  5789  003F7E  C08C  F087         	movff	pad@fp,fputs@fp
  5790  003F82  C08D  F088         	movff	pad@fp+1,fputs@fp+1
  5791  003F86  ECAB  F023         	call	_fputs	;wreg free
  5792  003F8A                     l5768:
  5793                           
  5794                           ;C:\Program Files\Microchip\xc8\v2.36\pic\sources\c99\common\doprnt.c: 82:     w = (p < 
      +                          0) ? 0 : p;
  5795  003F8A  0100               	movlb	0	; () banked
  5796  003F8C  BF91               	btfsc	(pad@p+1)& (0+255),7,b
  5797  003F8E  EFCB  F01F         	goto	u7601
  5798  003F92  EFCD  F01F         	goto	u7600
  5799  003F96                     u7601:
  5800  003F96  EFD3  F01F         	goto	l5772
  5801  003F9A                     u7600:
  5802  003F9A                     
  5803                           ; BSR set to: 0
  5804  003F9A  C090  F094         	movff	pad@p,pad@w
  5805  003F9E  C091  F095         	movff	pad@p+1,pad@w+1
  5806  003FA2  EFD7  F01F         	goto	l885
  5807  003FA6                     l5772:
  5808                           
  5809                           ; BSR set to: 0
  5810  003FA6  0E00               	movlw	0
  5811  003FA8  6F95               	movwf	(pad@w+1)& (0+255),b
  5812  003FAA  0E00               	movlw	0
  5813  003FAC  6F94               	movwf	pad@w& (0+255),b
  5814  003FAE                     l885:
  5815                           
  5816                           ; BSR set to: 0
  5817                           ;C:\Program Files\Microchip\xc8\v2.36\pic\sources\c99\common\doprnt.c: 83:     i = 0;
  5818  003FAE  0E00               	movlw	0
  5819  003FB0  6F93               	movwf	(pad@i+1)& (0+255),b
  5820  003FB2  0E00               	movlw	0
  5821  003FB4  6F92               	movwf	pad@i& (0+255),b
  5822                           
  5823                           ;C:\Program Files\Microchip\xc8\v2.36\pic\sources\c99\common\doprnt.c: 84:     while (i 
      +                          < w) {
  5824  003FB6  EFEA  F01F         	goto	l5778
  5825  003FBA                     l5774:
  5826                           
  5827                           ; BSR set to: 0
  5828                           ;C:\Program Files\Microchip\xc8\v2.36\pic\sources\c99\common\doprnt.c: 85:         fputc
      +                          (' ', fp);
  5829  003FBA  0E00               	movlw	0
  5830  003FBC  6E33               	movwf	(fputc@c+1)^0,c
  5831  003FBE  0E20               	movlw	32
  5832  003FC0  6E32               	movwf	fputc@c^0,c
  5833  003FC2  C08C  F034         	movff	pad@fp,fputc@fp
  5834  003FC6  C08D  F035         	movff	pad@fp+1,fputc@fp+1
  5835  003FCA  EC4D  F01F         	call	_fputc	;wreg free
  5836  003FCE                     
  5837                           ;C:\Program Files\Microchip\xc8\v2.36\pic\sources\c99\common\doprnt.c: 86:         ++i;
  5838  003FCE  0100               	movlb	0	; () banked
  5839  003FD0  4B92               	infsnz	pad@i& (0+255),f,b
  5840  003FD2  2B93               	incf	(pad@i+1)& (0+255),f,b
  5841  003FD4                     l5778:
  5842                           
  5843                           ; BSR set to: 0
  5844                           ;C:\Program Files\Microchip\xc8\v2.36\pic\sources\c99\common\doprnt.c: 84:     while (i 
      +                          < w) {
  5845  003FD4  5194               	movf	pad@w& (0+255),w,b
  5846  003FD6  5D92               	subwf	pad@i& (0+255),w,b
  5847  003FD8  5193               	movf	(pad@i+1)& (0+255),w,b
  5848  003FDA  0A80               	xorlw	128
  5849  003FDC  6E36               	movwf	??_pad^0,c
  5850  003FDE  5195               	movf	(pad@w+1)& (0+255),w,b
  5851  003FE0  0A80               	xorlw	128
  5852  003FE2  5836               	subwfb	??_pad^0,w,c
  5853  003FE4  A0D8               	btfss	status,0,c
  5854  003FE6  EFF7  F01F         	goto	u7611
  5855  003FEA  EFF9  F01F         	goto	u7610
  5856  003FEE                     u7611:
  5857  003FEE  EFDD  F01F         	goto	l5774
  5858  003FF2                     u7610:
  5859  003FF2                     
  5860                           ; BSR set to: 0
  5861                           ;C:\Program Files\Microchip\xc8\v2.36\pic\sources\c99\common\doprnt.c: 90:     if (!(fla
      +                          gs & (1 << 0))) {
  5862  003FF2  B048               	btfsc	_flags^0,0,c
  5863  003FF4  EFFE  F01F         	goto	u7621
  5864  003FF8  EF00  F020         	goto	u7620
  5865  003FFC                     u7621:
  5866  003FFC  EF0A  F020         	goto	l5782
  5867  004000                     u7620:
  5868  004000                     
  5869                           ; BSR set to: 0
  5870                           ;C:\Program Files\Microchip\xc8\v2.36\pic\sources\c99\common\doprnt.c: 91:         fputs
      +                          ((const char *)buf, fp);
  5871  004000  C08E  F085         	movff	pad@buf,fputs@s
  5872  004004  C08F  F086         	movff	pad@buf+1,fputs@s+1
  5873  004008  C08C  F087         	movff	pad@fp,fputs@fp
  5874  00400C  C08D  F088         	movff	pad@fp+1,fputs@fp+1
  5875  004010  ECAB  F023         	call	_fputs	;wreg free
  5876  004014                     l5782:
  5877                           
  5878                           ;C:\Program Files\Microchip\xc8\v2.36\pic\sources\c99\common\doprnt.c: 94:     return (i
      +                          nt)(strlen(buf) + (size_t)w);
  5879  004014  C08E  F032         	movff	pad@buf,strlen@s
  5880  004018  C08F  F033         	movff	pad@buf+1,strlen@s+1
  5881  00401C  EC47  F024         	call	_strlen	;wreg free
  5882  004020  0100               	movlb	0	; () banked
  5883  004022  5194               	movf	pad@w& (0+255),w,b
  5884  004024  2432               	addwf	?_strlen^0,w,c
  5885  004026  6F8C               	movwf	?_pad& (0+255),b
  5886  004028  5195               	movf	(pad@w+1)& (0+255),w,b
  5887  00402A  2033               	addwfc	(?_strlen+1)^0,w,c
  5888  00402C  6F8D               	movwf	(?_pad+1)& (0+255),b
  5889  00402E                     
  5890                           ; BSR set to: 0
  5891  00402E  0012               	return		;funcret
  5892  004030                     __end_of_pad:
  5893                           	callstack 0
  5894                           
  5895 ;; *************** function _strlen *****************
  5896 ;; Defined at:
  5897 ;;		line 5 in file "C:\Program Files\Microchip\xc8\v2.36\pic\sources\c99\common\strlen.c"
  5898 ;; Parameters:    Size  Location     Type
  5899 ;;  s               2   49[COMRAM] PTR const unsigned char 
  5900 ;;		 -> dbuf(80), 
  5901 ;; Auto vars:     Size  Location     Type
  5902 ;;  a               2   51[COMRAM] PTR const unsigned char 
  5903 ;;		 -> dbuf(80), 
  5904 ;; Return value:  Size  Location     Type
  5905 ;;                  2   49[COMRAM] unsigned int 
  5906 ;; Registers used:
  5907 ;;		wreg, fsr2l, fsr2h, status,2, status,0
  5908 ;; Tracked objects:
  5909 ;;		On entry : 0/0
  5910 ;;		On exit  : 0/0
  5911 ;;		Unchanged: 0/0
  5912 ;; Data sizes:     COMRAM   BANK0   BANK1   BANK2   BANK3   BANK4   BANK5
  5913 ;;      Params:         2       0       0       0       0       0       0
  5914 ;;      Locals:         2       0       0       0       0       0       0
  5915 ;;      Temps:          0       0       0       0       0       0       0
  5916 ;;      Totals:         4       0       0       0       0       0       0
  5917 ;;Total ram usage:        4 bytes
  5918 ;; Hardware stack levels used: 1
  5919 ;; Hardware stack levels required when called: 5
  5920 ;; This function calls:
  5921 ;;		Nothing
  5922 ;; This function is called by:
  5923 ;;		_pad
  5924 ;; This function uses a non-reentrant model
  5925 ;;
  5926                           
  5927                           	psect	text21
  5928  00488E                     __ptext21:
  5929                           	callstack 0
  5930  00488E                     _strlen:
  5931                           	callstack 19
  5932  00488E  C032  F034         	movff	strlen@s,strlen@a
  5933  004892  C033  F035         	movff	strlen@s+1,strlen@a+1
  5934  004896  EF4F  F024         	goto	l5304
  5935  00489A                     l5302:
  5936  00489A  4A32               	infsnz	strlen@s^0,f,c
  5937  00489C  2A33               	incf	(strlen@s+1)^0,f,c
  5938  00489E                     l5304:
  5939  00489E  C032  FFD9         	movff	strlen@s,fsr2l
  5940  0048A2  C033  FFDA         	movff	strlen@s+1,fsr2h
  5941  0048A6  50DF               	movf	indf2,w,c
  5942  0048A8  A4D8               	btfss	status,2,c
  5943  0048AA  EF59  F024         	goto	u6861
  5944  0048AE  EF5B  F024         	goto	u6860
  5945  0048B2                     u6861:
  5946  0048B2  EF4D  F024         	goto	l5302
  5947  0048B6                     u6860:
  5948  0048B6  5034               	movf	strlen@a^0,w,c
  5949  0048B8  5C32               	subwf	strlen@s^0,w,c
  5950  0048BA  6E32               	movwf	?_strlen^0,c
  5951  0048BC  5035               	movf	(strlen@a+1)^0,w,c
  5952  0048BE  5833               	subwfb	(strlen@s+1)^0,w,c
  5953  0048C0  6E33               	movwf	(?_strlen+1)^0,c
  5954  0048C2  0012               	return		;funcret
  5955  0048C4                     __end_of_strlen:
  5956                           	callstack 0
  5957                           
  5958 ;; *************** function _fputs *****************
  5959 ;; Defined at:
  5960 ;;		line 8 in file "C:\Program Files\Microchip\xc8\v2.36\pic\sources\c99\common\nf_fputs.c"
  5961 ;; Parameters:    Size  Location     Type
  5962 ;;  s               2    5[BANK0 ] PTR const unsigned char 
  5963 ;;		 -> dbuf(80), 
  5964 ;;  fp              2    7[BANK0 ] PTR struct _IO_FILE
  5965 ;;		 -> sprintf@f(11), 
  5966 ;; Auto vars:     Size  Location     Type
  5967 ;;  i               2   10[BANK0 ] int 
  5968 ;;  c               1    9[BANK0 ] unsigned char 
  5969 ;; Return value:  Size  Location     Type
  5970 ;;                  2    5[BANK0 ] int 
  5971 ;; Registers used:
  5972 ;;		wreg, fsr1l, fsr1h, fsr2l, fsr2h, status,2, status,0, cstack
  5973 ;; Tracked objects:
  5974 ;;		On entry : 0/0
  5975 ;;		On exit  : 0/0
  5976 ;;		Unchanged: 0/0
  5977 ;; Data sizes:     COMRAM   BANK0   BANK1   BANK2   BANK3   BANK4   BANK5
  5978 ;;      Params:         0       4       0       0       0       0       0
  5979 ;;      Locals:         0       3       0       0       0       0       0
  5980 ;;      Temps:          0       0       0       0       0       0       0
  5981 ;;      Totals:         0       7       0       0       0       0       0
  5982 ;;Total ram usage:        7 bytes
  5983 ;; Hardware stack levels used: 1
  5984 ;; Hardware stack levels required when called: 7
  5985 ;; This function calls:
  5986 ;;		_fputc
  5987 ;; This function is called by:
  5988 ;;		_pad
  5989 ;; This function uses a non-reentrant model
  5990 ;;
  5991                           
  5992                           	psect	text22
  5993  004756                     __ptext22:
  5994                           	callstack 0
  5995  004756                     _fputs:
  5996                           	callstack 17
  5997  004756  0E00               	movlw	0
  5998  004758  0100               	movlb	0	; () banked
  5999  00475A  6F8B               	movwf	(fputs@i+1)& (0+255),b
  6000  00475C  0E00               	movlw	0
  6001  00475E  6F8A               	movwf	fputs@i& (0+255),b
  6002  004760  EFBE  F023         	goto	l5298
  6003  004764                     l5294:
  6004                           
  6005                           ; BSR set to: 0
  6006  004764  C089  F032         	movff	fputs@c,fputc@c
  6007  004768  6A33               	clrf	(fputc@c+1)^0,c
  6008  00476A  C087  F034         	movff	fputs@fp,fputc@fp
  6009  00476E  C088  F035         	movff	fputs@fp+1,fputc@fp+1
  6010  004772  EC4D  F01F         	call	_fputc	;wreg free
  6011  004776  0100               	movlb	0	; () banked
  6012  004778  4B8A               	infsnz	fputs@i& (0+255),f,b
  6013  00477A  2B8B               	incf	(fputs@i+1)& (0+255),f,b
  6014  00477C                     l5298:
  6015                           
  6016                           ; BSR set to: 0
  6017  00477C  518A               	movf	fputs@i& (0+255),w,b
  6018  00477E  2585               	addwf	fputs@s& (0+255),w,b
  6019  004780  6ED9               	movwf	fsr2l,c
  6020  004782  518B               	movf	(fputs@i+1)& (0+255),w,b
  6021  004784  2186               	addwfc	(fputs@s+1)& (0+255),w,b
  6022  004786  6EDA               	movwf	fsr2h,c
  6023  004788  50DF               	movf	indf2,w,c
  6024  00478A  6F89               	movwf	fputs@c& (0+255),b
  6025  00478C  5189               	movf	fputs@c& (0+255),w,b
  6026  00478E  A4D8               	btfss	status,2,c
  6027  004790  EFCC  F023         	goto	u6851
  6028  004794  EFCE  F023         	goto	u6850
  6029  004798                     u6851:
  6030  004798  EFB2  F023         	goto	l5294
  6031  00479C                     u6850:
  6032  00479C                     
  6033                           ; BSR set to: 0
  6034  00479C  0012               	return		;funcret
  6035  00479E                     __end_of_fputs:
  6036                           	callstack 0
  6037                           
  6038 ;; *************** function _fputc *****************
  6039 ;; Defined at:
  6040 ;;		line 8 in file "C:\Program Files\Microchip\xc8\v2.36\pic\sources\c99\common\nf_fputc.c"
  6041 ;; Parameters:    Size  Location     Type
  6042 ;;  c               2   49[COMRAM] int 
  6043 ;;  fp              2   51[COMRAM] PTR struct _IO_FILE
  6044 ;;		 -> sprintf@f(11), 
  6045 ;; Auto vars:     Size  Location     Type
  6046 ;;		None
  6047 ;; Return value:  Size  Location     Type
  6048 ;;                  2   49[COMRAM] int 
  6049 ;; Registers used:
  6050 ;;		wreg, fsr1l, fsr1h, fsr2l, fsr2h, status,2, status,0, cstack
  6051 ;; Tracked objects:
  6052 ;;		On entry : 0/0
  6053 ;;		On exit  : 0/0
  6054 ;;		Unchanged: 0/0
  6055 ;; Data sizes:     COMRAM   BANK0   BANK1   BANK2   BANK3   BANK4   BANK5
  6056 ;;      Params:         4       0       0       0       0       0       0
  6057 ;;      Locals:         0       0       0       0       0       0       0
  6058 ;;      Temps:          0       5       0       0       0       0       0
  6059 ;;      Totals:         4       5       0       0       0       0       0
  6060 ;;Total ram usage:        9 bytes
  6061 ;; Hardware stack levels used: 1
  6062 ;; Hardware stack levels required when called: 6
  6063 ;; This function calls:
  6064 ;;		_putch
  6065 ;; This function is called by:
  6066 ;;		_pad
  6067 ;;		_vfpfcnvrt
  6068 ;;		_fputs
  6069 ;; This function uses a non-reentrant model
  6070 ;;
  6071                           
  6072                           	psect	text23
  6073  003E9A                     __ptext23:
  6074                           	callstack 0
  6075  003E9A                     _fputc:
  6076                           	callstack 20
  6077  003E9A  5034               	movf	fputc@fp^0,w,c
  6078  003E9C  1035               	iorwf	(fputc@fp+1)^0,w,c
  6079  003E9E  B4D8               	btfsc	status,2,c
  6080  003EA0  EF54  F01F         	goto	u6421
  6081  003EA4  EF56  F01F         	goto	u6420
  6082  003EA8                     u6421:
  6083  003EA8  EF5F  F01F         	goto	l5080
  6084  003EAC                     u6420:
  6085  003EAC  5034               	movf	fputc@fp^0,w,c
  6086  003EAE  1035               	iorwf	(fputc@fp+1)^0,w,c
  6087  003EB0  A4D8               	btfss	status,2,c
  6088  003EB2  EF5D  F01F         	goto	u6431
  6089  003EB6  EF5F  F01F         	goto	u6430
  6090  003EBA                     u6431:
  6091  003EBA  EF64  F01F         	goto	l5082
  6092  003EBE                     u6430:
  6093  003EBE                     l5080:
  6094  003EBE  5032               	movf	fputc@c^0,w,c
  6095  003EC0  EC2D  F025         	call	_putch
  6096  003EC4  EFB3  F01F         	goto	l1085
  6097  003EC8                     l5082:
  6098  003EC8  EE20 F009          	lfsr	2,9
  6099  003ECC  5034               	movf	fputc@fp^0,w,c
  6100  003ECE  26D9               	addwf	fsr2l,f,c
  6101  003ED0  5035               	movf	(fputc@fp+1)^0,w,c
  6102  003ED2  22DA               	addwfc	fsr2h,f,c
  6103  003ED4  50DE               	movf	postinc2,w,c
  6104  003ED6  10DE               	iorwf	postinc2,w,c
  6105  003ED8  B4D8               	btfsc	status,2,c
  6106  003EDA  EF71  F01F         	goto	u6441
  6107  003EDE  EF73  F01F         	goto	u6440
  6108  003EE2                     u6441:
  6109  003EE2  EF8F  F01F         	goto	l5086
  6110  003EE6                     u6440:
  6111  003EE6  EE20 F009          	lfsr	2,9
  6112  003EEA  5034               	movf	fputc@fp^0,w,c
  6113  003EEC  26D9               	addwf	fsr2l,f,c
  6114  003EEE  5035               	movf	(fputc@fp+1)^0,w,c
  6115  003EF0  22DA               	addwfc	fsr2h,f,c
  6116  003EF2  EE10 F003          	lfsr	1,3
  6117  003EF6  5034               	movf	fputc@fp^0,w,c
  6118  003EF8  26E1               	addwf	fsr1l,f,c
  6119  003EFA  5035               	movf	(fputc@fp+1)^0,w,c
  6120  003EFC  22E2               	addwfc	fsr1h,f,c
  6121  003EFE  50DE               	movf	postinc2,w,c
  6122  003F00  5CE6               	subwf	postinc1,w,c
  6123  003F02  50E6               	movf	postinc1,w,c
  6124  003F04  0A80               	xorlw	128
  6125  003F06  0100               	movlb	0	; () banked
  6126  003F08  6F84               	movwf	(??_fputc+4)& (0+255),b
  6127  003F0A  50DE               	movf	postinc2,w,c
  6128  003F0C  0A80               	xorlw	128
  6129  003F0E  5984               	subwfb	(??_fputc+4)& (0+255),w,b
  6130  003F10  B0D8               	btfsc	status,0,c
  6131  003F12  EF8D  F01F         	goto	u6451
  6132  003F16  EF8F  F01F         	goto	u6450
  6133  003F1A                     u6451:
  6134  003F1A  EFB3  F01F         	goto	l1085
  6135  003F1E                     u6450:
  6136  003F1E                     l5086:
  6137  003F1E  EE20 F003          	lfsr	2,3
  6138  003F22  5034               	movf	fputc@fp^0,w,c
  6139  003F24  26D9               	addwf	fsr2l,f,c
  6140  003F26  5035               	movf	(fputc@fp+1)^0,w,c
  6141  003F28  22DA               	addwfc	fsr2h,f,c
  6142  003F2A  CFDE F080          	movff	postinc2,??_fputc
  6143  003F2E  CFDD F081          	movff	postdec2,??_fputc+1
  6144  003F32  C034  FFD9         	movff	fputc@fp,fsr2l
  6145  003F36  C035  FFDA         	movff	fputc@fp+1,fsr2h
  6146  003F3A  CFDE F082          	movff	postinc2,??_fputc+2
  6147  003F3E  CFDD F083          	movff	postdec2,??_fputc+3
  6148  003F42  0100               	movlb	0	; () banked
  6149  003F44  5180               	movf	??_fputc& (0+255),w,b
  6150  003F46  2582               	addwf	(??_fputc+2)& (0+255),w,b
  6151  003F48  6ED9               	movwf	fsr2l,c
  6152  003F4A  5181               	movf	(??_fputc+1)& (0+255),w,b
  6153  003F4C  2183               	addwfc	(??_fputc+3)& (0+255),w,b
  6154  003F4E  6EDA               	movwf	fsr2h,c
  6155  003F50  C032  FFDF         	movff	fputc@c,indf2
  6156  003F54  EE20 F003          	lfsr	2,3
  6157  003F58  5034               	movf	fputc@fp^0,w,c
  6158  003F5A  26D9               	addwf	fsr2l,f,c
  6159  003F5C  5035               	movf	(fputc@fp+1)^0,w,c
  6160  003F5E  22DA               	addwfc	fsr2h,f,c
  6161  003F60  2ADE               	incf	postinc2,f,c
  6162  003F62  0E00               	movlw	0
  6163  003F64  22DD               	addwfc	postdec2,f,c
  6164  003F66                     l1085:
  6165  003F66  0012               	return		;funcret
  6166  003F68                     __end_of_fputc:
  6167                           	callstack 0
  6168                           
  6169 ;; *************** function _putch *****************
  6170 ;; Defined at:
  6171 ;;		line 7 in file "C:\Program Files\Microchip\xc8\v2.36\pic\sources\c99\common\putch.c"
  6172 ;; Parameters:    Size  Location     Type
  6173 ;;  c               1    wreg     unsigned char 
  6174 ;; Auto vars:     Size  Location     Type
  6175 ;;  c               1    0[COMRAM] unsigned char 
  6176 ;; Return value:  Size  Location     Type
  6177 ;;                  1    wreg      void 
  6178 ;; Registers used:
  6179 ;;		wreg
  6180 ;; Tracked objects:
  6181 ;;		On entry : 0/0
  6182 ;;		On exit  : 0/0
  6183 ;;		Unchanged: 0/0
  6184 ;; Data sizes:     COMRAM   BANK0   BANK1   BANK2   BANK3   BANK4   BANK5
  6185 ;;      Params:         0       0       0       0       0       0       0
  6186 ;;      Locals:         0       0       0       0       0       0       0
  6187 ;;      Temps:          0       0       0       0       0       0       0
  6188 ;;      Totals:         0       0       0       0       0       0       0
  6189 ;;Total ram usage:        0 bytes
  6190 ;; Hardware stack levels used: 1
  6191 ;; Hardware stack levels required when called: 5
  6192 ;; This function calls:
  6193 ;;		Nothing
  6194 ;; This function is called by:
  6195 ;;		_fputc
  6196 ;; This function uses a non-reentrant model
  6197 ;;
  6198                           
  6199                           	psect	text24
  6200  004A5A                     __ptext24:
  6201                           	callstack 0
  6202  004A5A                     _putch:
  6203                           	callstack 20
  6204  004A5A  0012               	return		;funcret
  6205  004A5C                     __end_of_putch:
  6206                           	callstack 0
  6207                           
  6208 ;; *************** function _floorf *****************
  6209 ;; Defined at:
  6210 ;;		line 3 in file "C:\Program Files\Microchip\xc8\v2.36\pic\sources\c99\common\floorf.c"
  6211 ;; Parameters:    Size  Location     Type
  6212 ;;  x               4   21[BANK0 ] float 
  6213 ;; Auto vars:     Size  Location     Type
  6214 ;;  u               4   37[BANK0 ] struct .
  6215 ;;  m               4   31[BANK0 ] unsigned long 
  6216 ;;  e               2   35[BANK0 ] int 
  6217 ;; Return value:  Size  Location     Type
  6218 ;;                  4   21[BANK0 ] float 
  6219 ;; Registers used:
  6220 ;;		wreg, status,2, status,0
  6221 ;; Tracked objects:
  6222 ;;		On entry : 0/0
  6223 ;;		On exit  : 0/0
  6224 ;;		Unchanged: 0/0
  6225 ;; Data sizes:     COMRAM   BANK0   BANK1   BANK2   BANK3   BANK4   BANK5
  6226 ;;      Params:         0       4       0       0       0       0       0
  6227 ;;      Locals:         0      10       0       0       0       0       0
  6228 ;;      Temps:          0       6       0       0       0       0       0
  6229 ;;      Totals:         0      20       0       0       0       0       0
  6230 ;;Total ram usage:       20 bytes
  6231 ;; Hardware stack levels used: 1
  6232 ;; Hardware stack levels required when called: 5
  6233 ;; This function calls:
  6234 ;;		Nothing
  6235 ;; This function is called by:
  6236 ;;		_efgtoa
  6237 ;; This function uses a non-reentrant model
  6238 ;;
  6239                           
  6240                           	psect	text25
  6241  003010                     __ptext25:
  6242                           	callstack 0
  6243  003010                     _floorf:
  6244                           	callstack 20
  6245  003010  C038  F0A5         	movff	floorf@F526,floorf@u
  6246  003014  C039  F0A6         	movff	floorf@F526+1,floorf@u+1
  6247  003018  C03A  F0A7         	movff	floorf@F526+2,floorf@u+2
  6248  00301C  C03B  F0A8         	movff	floorf@F526+3,floorf@u+3
  6249  003020  C095  F0A5         	movff	floorf@x,floorf@u
  6250  003024  C096  F0A6         	movff	floorf@x+1,floorf@u+1
  6251  003028  C097  F0A7         	movff	floorf@x+2,floorf@u+2
  6252  00302C  C098  F0A8         	movff	floorf@x+3,floorf@u+3
  6253  003030  0E81               	movlw	129
  6254  003032  0100               	movlb	0	; () banked
  6255  003034  6F99               	movwf	??_floorf& (0+255),b
  6256  003036  0EFF               	movlw	255
  6257  003038  6F9A               	movwf	(??_floorf+1)& (0+255),b
  6258  00303A  C0A5  F09B         	movff	floorf@u,??_floorf+2
  6259  00303E  C0A6  F09C         	movff	floorf@u+1,??_floorf+3
  6260  003042  C0A7  F09D         	movff	floorf@u+2,??_floorf+4
  6261  003046  C0A8  F09E         	movff	floorf@u+3,??_floorf+5
  6262  00304A  0E18               	movlw	24
  6263  00304C  EF2D  F018         	goto	u7730
  6264  003050                     u7735:
  6265  003050  90D8               	bcf	status,0,c
  6266  003052  339E               	rrcf	(??_floorf+5)& (0+255),f,b
  6267  003054  339D               	rrcf	(??_floorf+4)& (0+255),f,b
  6268  003056  339C               	rrcf	(??_floorf+3)& (0+255),f,b
  6269  003058  339B               	rrcf	(??_floorf+2)& (0+255),f,b
  6270  00305A                     u7730:
  6271  00305A  2EE8               	decfsz	wreg,f,c
  6272  00305C  EF28  F018         	goto	u7735
  6273  003060  519B               	movf	(??_floorf+2)& (0+255),w,b
  6274  003062  2599               	addwf	??_floorf& (0+255),w,b
  6275  003064  6FA3               	movwf	floorf@e& (0+255),b
  6276  003066  0E00               	movlw	0
  6277  003068  219A               	addwfc	(??_floorf+1)& (0+255),w,b
  6278  00306A  6FA4               	movwf	(floorf@e+1)& (0+255),b
  6279  00306C  BFA4               	btfsc	(floorf@e+1)& (0+255),7,b
  6280  00306E  EF42  F018         	goto	u7741
  6281  003072  51A4               	movf	(floorf@e+1)& (0+255),w,b
  6282  003074  E109               	bnz	u7740
  6283  003076  0E17               	movlw	23
  6284  003078  5DA3               	subwf	floorf@e& (0+255),w,b
  6285  00307A  A0D8               	btfss	status,0,c
  6286  00307C  EF42  F018         	goto	u7741
  6287  003080  EF44  F018         	goto	u7740
  6288  003084                     u7741:
  6289  003084  EF4E  F018         	goto	l5828
  6290  003088                     u7740:
  6291  003088                     l5826:
  6292                           
  6293                           ; BSR set to: 0
  6294  003088  C095  F095         	movff	floorf@x,?_floorf
  6295  00308C  C096  F096         	movff	floorf@x+1,?_floorf+1
  6296  003090  C097  F097         	movff	floorf@x+2,?_floorf+2
  6297  003094  C098  F098         	movff	floorf@x+3,?_floorf+3
  6298  003098  EF12  F019         	goto	l1046
  6299  00309C                     l5828:
  6300                           
  6301                           ; BSR set to: 0
  6302  00309C  BFA4               	btfsc	(floorf@e+1)& (0+255),7,b
  6303  00309E  EF53  F018         	goto	u7751
  6304  0030A2  EF55  F018         	goto	u7750
  6305  0030A6                     u7751:
  6306  0030A6  EFC6  F018         	goto	l5838
  6307  0030AA                     u7750:
  6308  0030AA                     
  6309                           ; BSR set to: 0
  6310  0030AA  C0A3  F099         	movff	floorf@e,??_floorf
  6311  0030AE  0EFF               	movlw	255
  6312  0030B0  6F9A               	movwf	(??_floorf+1)& (0+255),b
  6313  0030B2  0EFF               	movlw	255
  6314  0030B4  6F9B               	movwf	(??_floorf+2)& (0+255),b
  6315  0030B6  0E7F               	movlw	127
  6316  0030B8  6F9C               	movwf	(??_floorf+3)& (0+255),b
  6317  0030BA  0E00               	movlw	0
  6318  0030BC  6F9D               	movwf	(??_floorf+4)& (0+255),b
  6319  0030BE                     u7765:
  6320  0030BE  6799               	tstfsz	??_floorf& (0+255),b
  6321  0030C0  EF64  F018         	goto	u7766
  6322  0030C4  EF6C  F018         	goto	u7767
  6323  0030C8                     u7766:
  6324  0030C8  359D               	rlcf	(??_floorf+4)& (0+255),w,b
  6325  0030CA  339D               	rrcf	(??_floorf+4)& (0+255),f,b
  6326  0030CC  339C               	rrcf	(??_floorf+3)& (0+255),f,b
  6327  0030CE  339B               	rrcf	(??_floorf+2)& (0+255),f,b
  6328  0030D0  339A               	rrcf	(??_floorf+1)& (0+255),f,b
  6329  0030D2  2F99               	decfsz	??_floorf& (0+255),f,b
  6330  0030D4  EF5F  F018         	goto	u7765
  6331  0030D8                     u7767:
  6332  0030D8  C09A  F09F         	movff	??_floorf+1,floorf@m
  6333  0030DC  C09B  F0A0         	movff	??_floorf+2,floorf@m+1
  6334  0030E0  C09C  F0A1         	movff	??_floorf+3,floorf@m+2
  6335  0030E4  C09D  F0A2         	movff	??_floorf+4,floorf@m+3
  6336  0030E8  0100               	movlb	0	; () banked
  6337  0030EA  519F               	movf	floorf@m& (0+255),w,b
  6338  0030EC  15A5               	andwf	floorf@u& (0+255),w,b
  6339  0030EE  6F99               	movwf	??_floorf& (0+255),b
  6340  0030F0  51A0               	movf	(floorf@m+1)& (0+255),w,b
  6341  0030F2  15A6               	andwf	(floorf@u+1)& (0+255),w,b
  6342  0030F4  6F9A               	movwf	(??_floorf+1)& (0+255),b
  6343  0030F6  51A1               	movf	(floorf@m+2)& (0+255),w,b
  6344  0030F8  15A7               	andwf	(floorf@u+2)& (0+255),w,b
  6345  0030FA  6F9B               	movwf	(??_floorf+2)& (0+255),b
  6346  0030FC  51A2               	movf	(floorf@m+3)& (0+255),w,b
  6347  0030FE  15A8               	andwf	(floorf@u+3)& (0+255),w,b
  6348  003100  6F9C               	movwf	(??_floorf+3)& (0+255),b
  6349  003102  5199               	movf	??_floorf& (0+255),w,b
  6350  003104  119A               	iorwf	(??_floorf+1)& (0+255),w,b
  6351  003106  119B               	iorwf	(??_floorf+2)& (0+255),w,b
  6352  003108  119C               	iorwf	(??_floorf+3)& (0+255),w,b
  6353  00310A  A4D8               	btfss	status,2,c
  6354  00310C  EF8A  F018         	goto	u7771
  6355  003110  EF8C  F018         	goto	u7770
  6356  003114                     u7771:
  6357  003114  EF8E  F018         	goto	l5834
  6358  003118                     u7770:
  6359  003118  EF44  F018         	goto	l5826
  6360  00311C                     l5834:
  6361                           
  6362                           ; BSR set to: 0
  6363  00311C  C0A5  F099         	movff	floorf@u,??_floorf
  6364  003120  C0A6  F09A         	movff	floorf@u+1,??_floorf+1
  6365  003124  C0A7  F09B         	movff	floorf@u+2,??_floorf+2
  6366  003128  C0A8  F09C         	movff	floorf@u+3,??_floorf+3
  6367  00312C  0E20               	movlw	32
  6368  00312E  EF9E  F018         	goto	u7780
  6369  003132                     u7785:
  6370  003132  90D8               	bcf	status,0,c
  6371  003134  339C               	rrcf	(??_floorf+3)& (0+255),f,b
  6372  003136  339B               	rrcf	(??_floorf+2)& (0+255),f,b
  6373  003138  339A               	rrcf	(??_floorf+1)& (0+255),f,b
  6374  00313A  3399               	rrcf	??_floorf& (0+255),f,b
  6375  00313C                     u7780:
  6376  00313C  2EE8               	decfsz	wreg,f,c
  6377  00313E  EF99  F018         	goto	u7785
  6378  003142  5199               	movf	??_floorf& (0+255),w,b
  6379  003144  119A               	iorwf	(??_floorf+1)& (0+255),w,b
  6380  003146  119B               	iorwf	(??_floorf+2)& (0+255),w,b
  6381  003148  119C               	iorwf	(??_floorf+3)& (0+255),w,b
  6382  00314A  B4D8               	btfsc	status,2,c
  6383  00314C  EFAA  F018         	goto	u7791
  6384  003150  EFAC  F018         	goto	u7790
  6385  003154                     u7791:
  6386  003154  EFB4  F018         	goto	l1049
  6387  003158                     u7790:
  6388  003158                     
  6389                           ; BSR set to: 0
  6390  003158  519F               	movf	floorf@m& (0+255),w,b
  6391  00315A  27A5               	addwf	floorf@u& (0+255),f,b
  6392  00315C  51A0               	movf	(floorf@m+1)& (0+255),w,b
  6393  00315E  23A6               	addwfc	(floorf@u+1)& (0+255),f,b
  6394  003160  51A1               	movf	(floorf@m+2)& (0+255),w,b
  6395  003162  23A7               	addwfc	(floorf@u+2)& (0+255),f,b
  6396  003164  51A2               	movf	(floorf@m+3)& (0+255),w,b
  6397  003166  23A8               	addwfc	(floorf@u+3)& (0+255),f,b
  6398  003168                     l1049:
  6399                           
  6400                           ; BSR set to: 0
  6401  003168  1D9F               	comf	floorf@m& (0+255),w,b
  6402  00316A  6F99               	movwf	??_floorf& (0+255),b
  6403  00316C  1DA0               	comf	(floorf@m+1)& (0+255),w,b
  6404  00316E  6F9A               	movwf	(??_floorf+1)& (0+255),b
  6405  003170  1DA1               	comf	(floorf@m+2)& (0+255),w,b
  6406  003172  6F9B               	movwf	(??_floorf+2)& (0+255),b
  6407  003174  1DA2               	comf	(floorf@m+3)& (0+255),w,b
  6408  003176  6F9C               	movwf	(??_floorf+3)& (0+255),b
  6409  003178  5199               	movf	??_floorf& (0+255),w,b
  6410  00317A  17A5               	andwf	floorf@u& (0+255),f,b
  6411  00317C  519A               	movf	(??_floorf+1)& (0+255),w,b
  6412  00317E  17A6               	andwf	(floorf@u+1)& (0+255),f,b
  6413  003180  519B               	movf	(??_floorf+2)& (0+255),w,b
  6414  003182  17A7               	andwf	(floorf@u+2)& (0+255),f,b
  6415  003184  519C               	movf	(??_floorf+3)& (0+255),w,b
  6416  003186  17A8               	andwf	(floorf@u+3)& (0+255),f,b
  6417  003188  EF0A  F019         	goto	l5846
  6418  00318C                     l5838:
  6419                           
  6420                           ; BSR set to: 0
  6421  00318C  C0A5  F099         	movff	floorf@u,??_floorf
  6422  003190  C0A6  F09A         	movff	floorf@u+1,??_floorf+1
  6423  003194  C0A7  F09B         	movff	floorf@u+2,??_floorf+2
  6424  003198  C0A8  F09C         	movff	floorf@u+3,??_floorf+3
  6425  00319C  0E20               	movlw	32
  6426  00319E  EFD6  F018         	goto	u7800
  6427  0031A2                     u7805:
  6428  0031A2  90D8               	bcf	status,0,c
  6429  0031A4  339C               	rrcf	(??_floorf+3)& (0+255),f,b
  6430  0031A6  339B               	rrcf	(??_floorf+2)& (0+255),f,b
  6431  0031A8  339A               	rrcf	(??_floorf+1)& (0+255),f,b
  6432  0031AA  3399               	rrcf	??_floorf& (0+255),f,b
  6433  0031AC                     u7800:
  6434  0031AC  2EE8               	decfsz	wreg,f,c
  6435  0031AE  EFD1  F018         	goto	u7805
  6436  0031B2  5199               	movf	??_floorf& (0+255),w,b
  6437  0031B4  119A               	iorwf	(??_floorf+1)& (0+255),w,b
  6438  0031B6  119B               	iorwf	(??_floorf+2)& (0+255),w,b
  6439  0031B8  119C               	iorwf	(??_floorf+3)& (0+255),w,b
  6440  0031BA  A4D8               	btfss	status,2,c
  6441  0031BC  EFE2  F018         	goto	u7811
  6442  0031C0  EFE4  F018         	goto	u7810
  6443  0031C4                     u7811:
  6444  0031C4  EFEE  F018         	goto	l5842
  6445  0031C8                     u7810:
  6446  0031C8                     
  6447                           ; BSR set to: 0
  6448  0031C8  0E00               	movlw	0
  6449  0031CA  6FA5               	movwf	floorf@u& (0+255),b
  6450  0031CC  0E00               	movlw	0
  6451  0031CE  6FA6               	movwf	(floorf@u+1)& (0+255),b
  6452  0031D0  0E00               	movlw	0
  6453  0031D2  6FA7               	movwf	(floorf@u+2)& (0+255),b
  6454  0031D4  0E00               	movlw	0
  6455  0031D6  6FA8               	movwf	(floorf@u+3)& (0+255),b
  6456  0031D8  EF0A  F019         	goto	l5846
  6457  0031DC                     l5842:
  6458                           
  6459                           ; BSR set to: 0
  6460  0031DC  90D8               	bcf	status,0,c
  6461  0031DE  35A5               	rlcf	floorf@u& (0+255),w,b
  6462  0031E0  6F99               	movwf	??_floorf& (0+255),b
  6463  0031E2  35A6               	rlcf	(floorf@u+1)& (0+255),w,b
  6464  0031E4  6F9A               	movwf	(??_floorf+1)& (0+255),b
  6465  0031E6  35A7               	rlcf	(floorf@u+2)& (0+255),w,b
  6466  0031E8  6F9B               	movwf	(??_floorf+2)& (0+255),b
  6467  0031EA  35A8               	rlcf	(floorf@u+3)& (0+255),w,b
  6468  0031EC  6F9C               	movwf	(??_floorf+3)& (0+255),b
  6469  0031EE  5199               	movf	??_floorf& (0+255),w,b
  6470  0031F0  119A               	iorwf	(??_floorf+1)& (0+255),w,b
  6471  0031F2  119B               	iorwf	(??_floorf+2)& (0+255),w,b
  6472  0031F4  119C               	iorwf	(??_floorf+3)& (0+255),w,b
  6473  0031F6  B4D8               	btfsc	status,2,c
  6474  0031F8  EF00  F019         	goto	u7821
  6475  0031FC  EF02  F019         	goto	u7820
  6476  003200                     u7821:
  6477  003200  EF0A  F019         	goto	l5846
  6478  003204                     u7820:
  6479  003204                     
  6480                           ; BSR set to: 0
  6481  003204  0E00               	movlw	0
  6482  003206  6FA5               	movwf	floorf@u& (0+255),b
  6483  003208  0E00               	movlw	0
  6484  00320A  6FA6               	movwf	(floorf@u+1)& (0+255),b
  6485  00320C  0E80               	movlw	128
  6486  00320E  6FA7               	movwf	(floorf@u+2)& (0+255),b
  6487  003210  0EBF               	movlw	191
  6488  003212  6FA8               	movwf	(floorf@u+3)& (0+255),b
  6489  003214                     l5846:
  6490                           
  6491                           ; BSR set to: 0
  6492  003214  C0A5  F095         	movff	floorf@u,?_floorf
  6493  003218  C0A6  F096         	movff	floorf@u+1,?_floorf+1
  6494  00321C  C0A7  F097         	movff	floorf@u+2,?_floorf+2
  6495  003220  C0A8  F098         	movff	floorf@u+3,?_floorf+3
  6496  003224                     l1046:
  6497                           
  6498                           ; BSR set to: 0
  6499  003224  0012               	return		;funcret
  6500  003226                     __end_of_floorf:
  6501                           	callstack 0
  6502                           
  6503 ;; *************** function ___fpclassifyf *****************
  6504 ;; Defined at:
  6505 ;;		line 4 in file "C:\Program Files\Microchip\xc8\v2.36\pic\sources\c99\common\__fpclassifyf.c"
  6506 ;; Parameters:    Size  Location     Type
  6507 ;;  x               4   49[COMRAM] float 
  6508 ;; Auto vars:     Size  Location     Type
  6509 ;;  u               4    6[BANK0 ] struct .
  6510 ;;  e               2    4[BANK0 ] int 
  6511 ;; Return value:  Size  Location     Type
  6512 ;;                  2   49[COMRAM] int 
  6513 ;; Registers used:
  6514 ;;		wreg, status,2, status,0
  6515 ;; Tracked objects:
  6516 ;;		On entry : 0/0
  6517 ;;		On exit  : 0/0
  6518 ;;		Unchanged: 0/0
  6519 ;; Data sizes:     COMRAM   BANK0   BANK1   BANK2   BANK3   BANK4   BANK5
  6520 ;;      Params:         4       0       0       0       0       0       0
  6521 ;;      Locals:         0       6       0       0       0       0       0
  6522 ;;      Temps:          0       4       0       0       0       0       0
  6523 ;;      Totals:         4      10       0       0       0       0       0
  6524 ;;Total ram usage:       14 bytes
  6525 ;; Hardware stack levels used: 1
  6526 ;; Hardware stack levels required when called: 5
  6527 ;; This function calls:
  6528 ;;		Nothing
  6529 ;; This function is called by:
  6530 ;;		_efgtoa
  6531 ;; This function uses a non-reentrant model
  6532 ;;
  6533                           
  6534                           	psect	text26
  6535  0039FE                     __ptext26:
  6536                           	callstack 0
  6537  0039FE                     ___fpclassifyf:
  6538                           	callstack 20
  6539  0039FE  C03C  F086         	movff	___fpclassifyf@F465,___fpclassifyf@u
  6540  003A02  C03D  F087         	movff	___fpclassifyf@F465+1,___fpclassifyf@u+1
  6541  003A06  C03E  F088         	movff	___fpclassifyf@F465+2,___fpclassifyf@u+2
  6542  003A0A  C03F  F089         	movff	___fpclassifyf@F465+3,___fpclassifyf@u+3
  6543  003A0E  C032  F086         	movff	___fpclassifyf@x,___fpclassifyf@u
  6544  003A12  C033  F087         	movff	___fpclassifyf@x+1,___fpclassifyf@u+1
  6545  003A16  C034  F088         	movff	___fpclassifyf@x+2,___fpclassifyf@u+2
  6546  003A1A  C035  F089         	movff	___fpclassifyf@x+3,___fpclassifyf@u+3
  6547  003A1E  C086  F080         	movff	___fpclassifyf@u,??___fpclassifyf
  6548  003A22  C087  F081         	movff	___fpclassifyf@u+1,??___fpclassifyf+1
  6549  003A26  C088  F082         	movff	___fpclassifyf@u+2,??___fpclassifyf+2
  6550  003A2A  C089  F083         	movff	___fpclassifyf@u+3,??___fpclassifyf+3
  6551  003A2E  0E18               	movlw	24
  6552  003A30  EF20  F01D         	goto	u7630
  6553  003A34                     u7635:
  6554  003A34  0100               	movlb	0	; () banked
  6555  003A36  90D8               	bcf	status,0,c
  6556  003A38  3383               	rrcf	(??___fpclassifyf+3)& (0+255),f,b
  6557  003A3A  3382               	rrcf	(??___fpclassifyf+2)& (0+255),f,b
  6558  003A3C  3381               	rrcf	(??___fpclassifyf+1)& (0+255),f,b
  6559  003A3E  3380               	rrcf	??___fpclassifyf& (0+255),f,b
  6560  003A40                     u7630:
  6561  003A40  2EE8               	decfsz	wreg,f,c
  6562  003A42  EF1A  F01D         	goto	u7635
  6563  003A46  5180               	movf	??___fpclassifyf& (0+255),w,b
  6564  003A48  6F84               	movwf	___fpclassifyf@e& (0+255),b
  6565  003A4A  6B85               	clrf	(___fpclassifyf@e+1)& (0+255),b
  6566  003A4C  5184               	movf	___fpclassifyf@e& (0+255),w,b
  6567  003A4E  1185               	iorwf	(___fpclassifyf@e+1)& (0+255),w,b
  6568  003A50  A4D8               	btfss	status,2,c
  6569  003A52  EF2D  F01D         	goto	u7641
  6570  003A56  EF2F  F01D         	goto	u7640
  6571  003A5A                     u7641:
  6572  003A5A  EF4F  F01D         	goto	l5798
  6573  003A5E                     u7640:
  6574  003A5E                     
  6575                           ; BSR set to: 0
  6576  003A5E  90D8               	bcf	status,0,c
  6577  003A60  3586               	rlcf	___fpclassifyf@u& (0+255),w,b
  6578  003A62  6F80               	movwf	??___fpclassifyf& (0+255),b
  6579  003A64  3587               	rlcf	(___fpclassifyf@u+1)& (0+255),w,b
  6580  003A66  6F81               	movwf	(??___fpclassifyf+1)& (0+255),b
  6581  003A68  3588               	rlcf	(___fpclassifyf@u+2)& (0+255),w,b
  6582  003A6A  6F82               	movwf	(??___fpclassifyf+2)& (0+255),b
  6583  003A6C  3589               	rlcf	(___fpclassifyf@u+3)& (0+255),w,b
  6584  003A6E  6F83               	movwf	(??___fpclassifyf+3)& (0+255),b
  6585  003A70  5180               	movf	??___fpclassifyf& (0+255),w,b
  6586  003A72  1181               	iorwf	(??___fpclassifyf+1)& (0+255),w,b
  6587  003A74  1182               	iorwf	(??___fpclassifyf+2)& (0+255),w,b
  6588  003A76  1183               	iorwf	(??___fpclassifyf+3)& (0+255),w,b
  6589  003A78  A4D8               	btfss	status,2,c
  6590  003A7A  EF41  F01D         	goto	u7651
  6591  003A7E  EF43  F01D         	goto	u7650
  6592  003A82                     u7651:
  6593  003A82  EF49  F01D         	goto	l5794
  6594  003A86                     u7650:
  6595  003A86                     
  6596                           ; BSR set to: 0
  6597  003A86  0E00               	movlw	0
  6598  003A88  6E33               	movwf	(?___fpclassifyf+1)^0,c
  6599  003A8A  0E02               	movlw	2
  6600  003A8C  6E32               	movwf	?___fpclassifyf^0,c
  6601  003A8E  EF7E  F01D         	goto	l1014
  6602  003A92                     l5794:
  6603                           
  6604                           ; BSR set to: 0
  6605  003A92  0E00               	movlw	0
  6606  003A94  6E33               	movwf	(?___fpclassifyf+1)^0,c
  6607  003A96  0E03               	movlw	3
  6608  003A98  6E32               	movwf	?___fpclassifyf^0,c
  6609  003A9A  EF7E  F01D         	goto	l1014
  6610  003A9E                     l5798:
  6611                           
  6612                           ; BSR set to: 0
  6613  003A9E  2984               	incf	___fpclassifyf@e& (0+255),w,b
  6614  003AA0  1185               	iorwf	(___fpclassifyf@e+1)& (0+255),w,b
  6615  003AA2  A4D8               	btfss	status,2,c
  6616  003AA4  EF56  F01D         	goto	u7661
  6617  003AA8  EF58  F01D         	goto	u7660
  6618  003AAC                     u7661:
  6619  003AAC  EF7A  F01D         	goto	l5804
  6620  003AB0                     u7660:
  6621  003AB0                     
  6622                           ; BSR set to: 0
  6623  003AB0  C086  F080         	movff	___fpclassifyf@u,??___fpclassifyf
  6624  003AB4  C087  F081         	movff	___fpclassifyf@u+1,??___fpclassifyf+1
  6625  003AB8  C088  F082         	movff	___fpclassifyf@u+2,??___fpclassifyf+2
  6626  003ABC  C089  F083         	movff	___fpclassifyf@u+3,??___fpclassifyf+3
  6627  003AC0  0E09               	movlw	9
  6628  003AC2                     u7675:
  6629  003AC2  90D8               	bcf	status,0,c
  6630  003AC4  3780               	rlcf	??___fpclassifyf& (0+255),f,b
  6631  003AC6  3781               	rlcf	(??___fpclassifyf+1)& (0+255),f,b
  6632  003AC8  3782               	rlcf	(??___fpclassifyf+2)& (0+255),f,b
  6633  003ACA  3783               	rlcf	(??___fpclassifyf+3)& (0+255),f,b
  6634  003ACC  2EE8               	decfsz	wreg,f,c
  6635  003ACE  EF61  F01D         	goto	u7675
  6636  003AD2  5180               	movf	??___fpclassifyf& (0+255),w,b
  6637  003AD4  1181               	iorwf	(??___fpclassifyf+1)& (0+255),w,b
  6638  003AD6  1182               	iorwf	(??___fpclassifyf+2)& (0+255),w,b
  6639  003AD8  1183               	iorwf	(??___fpclassifyf+3)& (0+255),w,b
  6640  003ADA  B4D8               	btfsc	status,2,c
  6641  003ADC  EF72  F01D         	goto	u7681
  6642  003AE0  EF75  F01D         	goto	u7680
  6643  003AE4                     u7681:
  6644  003AE4  0E01               	movlw	1
  6645  003AE6  EF76  F01D         	goto	u7690
  6646  003AEA                     u7680:
  6647  003AEA  0E00               	movlw	0
  6648  003AEC                     u7690:
  6649  003AEC  6E32               	movwf	?___fpclassifyf^0,c
  6650  003AEE  6A33               	clrf	(?___fpclassifyf+1)^0,c
  6651  003AF0  EF7E  F01D         	goto	l1014
  6652  003AF4                     l5804:
  6653                           
  6654                           ; BSR set to: 0
  6655  003AF4  0E00               	movlw	0
  6656  003AF6  6E33               	movwf	(?___fpclassifyf+1)^0,c
  6657  003AF8  0E04               	movlw	4
  6658  003AFA  6E32               	movwf	?___fpclassifyf^0,c
  6659  003AFC                     l1014:
  6660                           
  6661                           ; BSR set to: 0
  6662  003AFC  0012               	return		;funcret
  6663  003AFE                     __end_of___fpclassifyf:
  6664                           	callstack 0
  6665                           
  6666 ;; *************** function ___fltol *****************
  6667 ;; Defined at:
  6668 ;;		line 43 in file "C:\Program Files\Microchip\xc8\v2.36\pic\sources\c99\common\fltol.c"
  6669 ;; Parameters:    Size  Location     Type
  6670 ;;  f1              4   49[COMRAM] int 
  6671 ;; Auto vars:     Size  Location     Type
  6672 ;;  exp1            1   54[COMRAM] unsigned char 
  6673 ;;  sign1           1   53[COMRAM] unsigned char 
  6674 ;; Return value:  Size  Location     Type
  6675 ;;                  4   49[COMRAM] long 
  6676 ;; Registers used:
  6677 ;;		wreg, status,2, status,0
  6678 ;; Tracked objects:
  6679 ;;		On entry : 0/0
  6680 ;;		On exit  : 0/0
  6681 ;;		Unchanged: 0/0
  6682 ;; Data sizes:     COMRAM   BANK0   BANK1   BANK2   BANK3   BANK4   BANK5
  6683 ;;      Params:         4       0       0       0       0       0       0
  6684 ;;      Locals:         2       0       0       0       0       0       0
  6685 ;;      Temps:          0       4       0       0       0       0       0
  6686 ;;      Totals:         6       4       0       0       0       0       0
  6687 ;;Total ram usage:       10 bytes
  6688 ;; Hardware stack levels used: 1
  6689 ;; Hardware stack levels required when called: 5
  6690 ;; This function calls:
  6691 ;;		Nothing
  6692 ;; This function is called by:
  6693 ;;		_efgtoa
  6694 ;; This function uses a non-reentrant model
  6695 ;;
  6696                           
  6697                           	psect	text27
  6698  0036EC                     __ptext27:
  6699                           	callstack 0
  6700  0036EC                     ___fltol:
  6701                           	callstack 20
  6702  0036EC  3434               	rlcf	(___fltol@f1+2)^0,w,c
  6703  0036EE  3435               	rlcf	(___fltol@f1+3)^0,w,c
  6704  0036F0  6E37               	movwf	___fltol@exp1^0,c
  6705  0036F2  5037               	movf	___fltol@exp1^0,w,c
  6706  0036F4  A4D8               	btfss	status,2,c
  6707  0036F6  EF7F  F01B         	goto	u7521
  6708  0036FA  EF81  F01B         	goto	u7520
  6709  0036FE                     u7521:
  6710  0036FE  EF8B  F01B         	goto	l5726
  6711  003702                     u7520:
  6712  003702                     l5722:
  6713  003702  0E00               	movlw	0
  6714  003704  6E32               	movwf	?___fltol^0,c
  6715  003706  0E00               	movlw	0
  6716  003708  6E33               	movwf	(?___fltol+1)^0,c
  6717  00370A  0E00               	movlw	0
  6718  00370C  6E34               	movwf	(?___fltol+2)^0,c
  6719  00370E  0E00               	movlw	0
  6720  003710  6E35               	movwf	(?___fltol+3)^0,c
  6721  003712  EFF9  F01B         	goto	l463
  6722  003716                     l5726:
  6723  003716  C032  F080         	movff	___fltol@f1,??___fltol
  6724  00371A  C033  F081         	movff	___fltol@f1+1,??___fltol+1
  6725  00371E  C034  F082         	movff	___fltol@f1+2,??___fltol+2
  6726  003722  C035  F083         	movff	___fltol@f1+3,??___fltol+3
  6727  003726  0E20               	movlw	32
  6728  003728  EF9C  F01B         	goto	u7530
  6729  00372C                     u7535:
  6730  00372C  0100               	movlb	0	; () banked
  6731  00372E  90D8               	bcf	status,0,c
  6732  003730  3383               	rrcf	(??___fltol+3)& (0+255),f,b
  6733  003732  3382               	rrcf	(??___fltol+2)& (0+255),f,b
  6734  003734  3381               	rrcf	(??___fltol+1)& (0+255),f,b
  6735  003736  3380               	rrcf	??___fltol& (0+255),f,b
  6736  003738                     u7530:
  6737  003738  2EE8               	decfsz	wreg,f,c
  6738  00373A  EF96  F01B         	goto	u7535
  6739  00373E  5180               	movf	??___fltol& (0+255),w,b
  6740  003740  6E36               	movwf	___fltol@sign1^0,c
  6741  003742                     
  6742                           ; BSR set to: 0
  6743  003742  8E34               	bsf	(___fltol@f1+2)^0,7,c
  6744  003744                     
  6745                           ; BSR set to: 0
  6746  003744  0EFF               	movlw	255
  6747  003746  1632               	andwf	___fltol@f1^0,f,c
  6748  003748  0EFF               	movlw	255
  6749  00374A  1633               	andwf	(___fltol@f1+1)^0,f,c
  6750  00374C  0EFF               	movlw	255
  6751  00374E  1634               	andwf	(___fltol@f1+2)^0,f,c
  6752  003750  0E00               	movlw	0
  6753  003752  1635               	andwf	(___fltol@f1+3)^0,f,c
  6754  003754                     
  6755                           ; BSR set to: 0
  6756  003754  0E96               	movlw	150
  6757  003756  5E37               	subwf	___fltol@exp1^0,f,c
  6758  003758                     
  6759                           ; BSR set to: 0
  6760  003758  BE37               	btfsc	___fltol@exp1^0,7,c
  6761  00375A  EFB3  F01B         	goto	u7540
  6762  00375E  EFB1  F01B         	goto	u7541
  6763  003762                     u7541:
  6764  003762  EFC9  F01B         	goto	l5746
  6765  003766                     u7540:
  6766  003766                     
  6767                           ; BSR set to: 0
  6768  003766  5037               	movf	___fltol@exp1^0,w,c
  6769  003768  0A80               	xorlw	128
  6770  00376A  0F97               	addlw	151
  6771  00376C  B0D8               	btfsc	status,0,c
  6772  00376E  EFBB  F01B         	goto	u7551
  6773  003772  EFBD  F01B         	goto	u7550
  6774  003776                     u7551:
  6775  003776  EFBF  F01B         	goto	l5742
  6776  00377A                     u7550:
  6777  00377A  EF81  F01B         	goto	l5722
  6778  00377E                     l5742:
  6779  00377E  90D8               	bcf	status,0,c
  6780  003780  3235               	rrcf	(___fltol@f1+3)^0,f,c
  6781  003782  3234               	rrcf	(___fltol@f1+2)^0,f,c
  6782  003784  3233               	rrcf	(___fltol@f1+1)^0,f,c
  6783  003786  3232               	rrcf	___fltol@f1^0,f,c
  6784  003788  3E37               	incfsz	___fltol@exp1^0,f,c
  6785  00378A  EFBF  F01B         	goto	l5742
  6786  00378E  EFE1  F01B         	goto	l5756
  6787  003792                     l5746:
  6788                           
  6789                           ; BSR set to: 0
  6790  003792  0E1F               	movlw	31
  6791  003794  6437               	cpfsgt	___fltol@exp1^0,c
  6792  003796  EFCF  F01B         	goto	u7561
  6793  00379A  EFD1  F01B         	goto	u7560
  6794  00379E                     u7561:
  6795  00379E  EFD9  F01B         	goto	l5754
  6796  0037A2                     u7560:
  6797  0037A2  EF81  F01B         	goto	l5722
  6798  0037A6                     l5752:
  6799  0037A6  90D8               	bcf	status,0,c
  6800  0037A8  3632               	rlcf	___fltol@f1^0,f,c
  6801  0037AA  3633               	rlcf	(___fltol@f1+1)^0,f,c
  6802  0037AC  3634               	rlcf	(___fltol@f1+2)^0,f,c
  6803  0037AE  3635               	rlcf	(___fltol@f1+3)^0,f,c
  6804  0037B0  0637               	decf	___fltol@exp1^0,f,c
  6805  0037B2                     l5754:
  6806  0037B2  5037               	movf	___fltol@exp1^0,w,c
  6807  0037B4  A4D8               	btfss	status,2,c
  6808  0037B6  EFDF  F01B         	goto	u7571
  6809  0037BA  EFE1  F01B         	goto	u7570
  6810  0037BE                     u7571:
  6811  0037BE  EFD3  F01B         	goto	l5752
  6812  0037C2                     u7570:
  6813  0037C2                     l5756:
  6814  0037C2  5036               	movf	___fltol@sign1^0,w,c
  6815  0037C4  B4D8               	btfsc	status,2,c
  6816  0037C6  EFE7  F01B         	goto	u7581
  6817  0037CA  EFE9  F01B         	goto	u7580
  6818  0037CE                     u7581:
  6819  0037CE  EFF1  F01B         	goto	l5760
  6820  0037D2                     u7580:
  6821  0037D2  1E35               	comf	(___fltol@f1+3)^0,f,c
  6822  0037D4  1E34               	comf	(___fltol@f1+2)^0,f,c
  6823  0037D6  1E33               	comf	(___fltol@f1+1)^0,f,c
  6824  0037D8  6C32               	negf	___fltol@f1^0,c
  6825  0037DA  0E00               	movlw	0
  6826  0037DC  2233               	addwfc	(___fltol@f1+1)^0,f,c
  6827  0037DE  2234               	addwfc	(___fltol@f1+2)^0,f,c
  6828  0037E0  2235               	addwfc	(___fltol@f1+3)^0,f,c
  6829  0037E2                     l5760:
  6830  0037E2  C032  F032         	movff	___fltol@f1,?___fltol
  6831  0037E6  C033  F033         	movff	___fltol@f1+1,?___fltol+1
  6832  0037EA  C034  F034         	movff	___fltol@f1+2,?___fltol+2
  6833  0037EE  C035  F035         	movff	___fltol@f1+3,?___fltol+3
  6834  0037F2                     l463:
  6835  0037F2  0012               	return		;funcret
  6836  0037F4                     __end_of___fltol:
  6837                           	callstack 0
  6838                           
  6839 ;; *************** function ___flsub *****************
  6840 ;; Defined at:
  6841 ;;		line 245 in file "C:\Program Files\Microchip\xc8\v2.36\pic\sources\c99\common\sprcadd.c"
  6842 ;; Parameters:    Size  Location     Type
  6843 ;;  b               4   35[BANK0 ] long 
  6844 ;;  a               4   39[BANK0 ] long 
  6845 ;; Auto vars:     Size  Location     Type
  6846 ;;		None
  6847 ;; Return value:  Size  Location     Type
  6848 ;;                  4   35[BANK0 ] long 
  6849 ;; Registers used:
  6850 ;;		wreg, status,2, status,0, cstack
  6851 ;; Tracked objects:
  6852 ;;		On entry : 0/0
  6853 ;;		On exit  : 0/0
  6854 ;;		Unchanged: 0/0
  6855 ;; Data sizes:     COMRAM   BANK0   BANK1   BANK2   BANK3   BANK4   BANK5
  6856 ;;      Params:         0       8       0       0       0       0       0
  6857 ;;      Locals:         0       0       0       0       0       0       0
  6858 ;;      Temps:          0       0       0       0       0       0       0
  6859 ;;      Totals:         0       8       0       0       0       0       0
  6860 ;;Total ram usage:        8 bytes
  6861 ;; Hardware stack levels used: 1
  6862 ;; Hardware stack levels required when called: 6
  6863 ;; This function calls:
  6864 ;;		___fladd
  6865 ;; This function is called by:
  6866 ;;		_efgtoa
  6867 ;; This function uses a non-reentrant model
  6868 ;;
  6869                           
  6870                           	psect	text28
  6871  00479E                     __ptext28:
  6872                           	callstack 0
  6873  00479E                     ___flsub:
  6874                           	callstack 19
  6875  00479E  0E00               	movlw	0
  6876  0047A0  0100               	movlb	0	; () banked
  6877  0047A2  1BA7               	xorwf	___flsub@a& (0+255),f,b
  6878  0047A4  0E00               	movlw	0
  6879  0047A6  1BA8               	xorwf	(___flsub@a+1)& (0+255),f,b
  6880  0047A8  0E00               	movlw	0
  6881  0047AA  1BA9               	xorwf	(___flsub@a+2)& (0+255),f,b
  6882  0047AC  0E80               	movlw	128
  6883  0047AE  1BAA               	xorwf	(___flsub@a+3)& (0+255),f,b
  6884  0047B0                     
  6885                           ; BSR set to: 0
  6886  0047B0  C0A3  F080         	movff	___flsub@b,___fladd@b
  6887  0047B4  C0A4  F081         	movff	___flsub@b+1,___fladd@b+1
  6888  0047B8  C0A5  F082         	movff	___flsub@b+2,___fladd@b+2
  6889  0047BC  C0A6  F083         	movff	___flsub@b+3,___fladd@b+3
  6890  0047C0  C0A7  F084         	movff	___flsub@a,___fladd@a
  6891  0047C4  C0A8  F085         	movff	___flsub@a+1,___fladd@a+1
  6892  0047C8  C0A9  F086         	movff	___flsub@a+2,___fladd@a+2
  6893  0047CC  C0AA  F087         	movff	___flsub@a+3,___fladd@a+3
  6894  0047D0  EC40  F009         	call	___fladd	;wreg free
  6895  0047D4  C080  F0A3         	movff	?___fladd,?___flsub
  6896  0047D8  C081  F0A4         	movff	?___fladd+1,?___flsub+1
  6897  0047DC  C082  F0A5         	movff	?___fladd+2,?___flsub+2
  6898  0047E0  C083  F0A6         	movff	?___fladd+3,?___flsub+3
  6899  0047E4  0012               	return		;funcret
  6900  0047E6                     __end_of___flsub:
  6901                           	callstack 0
  6902                           
  6903 ;; *************** function ___fladd *****************
  6904 ;; Defined at:
  6905 ;;		line 10 in file "C:\Program Files\Microchip\xc8\v2.36\pic\sources\c99\common\sprcadd.c"
  6906 ;; Parameters:    Size  Location     Type
  6907 ;;  b               4    0[BANK0 ] long 
  6908 ;;  a               4    4[BANK0 ] long 
  6909 ;; Auto vars:     Size  Location     Type
  6910 ;;  grs             1   11[BANK0 ] unsigned char 
  6911 ;;  bexp            1   10[BANK0 ] unsigned char 
  6912 ;;  aexp            1    9[BANK0 ] unsigned char 
  6913 ;;  signs           1    8[BANK0 ] unsigned char 
  6914 ;; Return value:  Size  Location     Type
  6915 ;;                  4    0[BANK0 ] unsigned char 
  6916 ;; Registers used:
  6917 ;;		wreg, status,2, status,0
  6918 ;; Tracked objects:
  6919 ;;		On entry : 0/0
  6920 ;;		On exit  : 0/0
  6921 ;;		Unchanged: 0/0
  6922 ;; Data sizes:     COMRAM   BANK0   BANK1   BANK2   BANK3   BANK4   BANK5
  6923 ;;      Params:         0       8       0       0       0       0       0
  6924 ;;      Locals:         0       4       0       0       0       0       0
  6925 ;;      Temps:          4       0       0       0       0       0       0
  6926 ;;      Totals:         4      12       0       0       0       0       0
  6927 ;;Total ram usage:       16 bytes
  6928 ;; Hardware stack levels used: 1
  6929 ;; Hardware stack levels required when called: 5
  6930 ;; This function calls:
  6931 ;;		Nothing
  6932 ;; This function is called by:
  6933 ;;		___flsub
  6934 ;;		_efgtoa
  6935 ;; This function uses a non-reentrant model
  6936 ;;
  6937                           
  6938                           	psect	text29
  6939  001280                     __ptext29:
  6940                           	callstack 0
  6941  001280                     ___fladd:
  6942                           	callstack 19
  6943  001280  0100               	movlb	0	; () banked
  6944  001282  5183               	movf	(___fladd@b+3)& (0+255),w,b
  6945  001284  0B80               	andlw	128
  6946  001286  6F88               	movwf	___fladd@signs& (0+255),b
  6947  001288  5183               	movf	(___fladd@b+3)& (0+255),w,b
  6948  00128A  2583               	addwf	(___fladd@b+3)& (0+255),w,b
  6949  00128C  6F8A               	movwf	___fladd@bexp& (0+255),b
  6950  00128E                     
  6951                           ; BSR set to: 0
  6952  00128E  AF82               	btfss	(___fladd@b+2)& (0+255),7,b
  6953  001290  EF4C  F009         	goto	u6461
  6954  001294  EF4E  F009         	goto	u6460
  6955  001298                     u6461:
  6956  001298  EF4F  F009         	goto	l5096
  6957  00129C                     u6460:
  6958  00129C                     
  6959                           ; BSR set to: 0
  6960  00129C  818A               	bsf	___fladd@bexp& (0+255),0,b
  6961  00129E                     l5096:
  6962                           
  6963                           ; BSR set to: 0
  6964  00129E  518A               	movf	___fladd@bexp& (0+255),w,b
  6965  0012A0  B4D8               	btfsc	status,2,c
  6966  0012A2  EF55  F009         	goto	u6471
  6967  0012A6  EF57  F009         	goto	u6470
  6968  0012AA                     u6471:
  6969  0012AA  EF6C  F009         	goto	l5106
  6970  0012AE                     u6470:
  6971  0012AE                     
  6972                           ; BSR set to: 0
  6973  0012AE  298A               	incf	___fladd@bexp& (0+255),w,b
  6974  0012B0  A4D8               	btfss	status,2,c
  6975  0012B2  EF5D  F009         	goto	u6481
  6976  0012B6  EF5F  F009         	goto	u6480
  6977  0012BA                     u6481:
  6978  0012BA  EF67  F009         	goto	l5102
  6979  0012BE                     u6480:
  6980  0012BE                     
  6981                           ; BSR set to: 0
  6982  0012BE  0E00               	movlw	0
  6983  0012C0  6F80               	movwf	___fladd@b& (0+255),b
  6984  0012C2  0E00               	movlw	0
  6985  0012C4  6F81               	movwf	(___fladd@b+1)& (0+255),b
  6986  0012C6  0E00               	movlw	0
  6987  0012C8  6F82               	movwf	(___fladd@b+2)& (0+255),b
  6988  0012CA  0E00               	movlw	0
  6989  0012CC  6F83               	movwf	(___fladd@b+3)& (0+255),b
  6990  0012CE                     l5102:
  6991                           
  6992                           ; BSR set to: 0
  6993  0012CE  8F82               	bsf	(___fladd@b+2)& (0+255),7,b
  6994  0012D0                     
  6995                           ; BSR set to: 0
  6996  0012D0  0E00               	movlw	0
  6997  0012D2  6F83               	movwf	(___fladd@b+3)& (0+255),b
  6998  0012D4  EF74  F009         	goto	l5108
  6999  0012D8                     l5106:
  7000                           
  7001                           ; BSR set to: 0
  7002  0012D8  0E00               	movlw	0
  7003  0012DA  6F80               	movwf	___fladd@b& (0+255),b
  7004  0012DC  0E00               	movlw	0
  7005  0012DE  6F81               	movwf	(___fladd@b+1)& (0+255),b
  7006  0012E0  0E00               	movlw	0
  7007  0012E2  6F82               	movwf	(___fladd@b+2)& (0+255),b
  7008  0012E4  0E00               	movlw	0
  7009  0012E6  6F83               	movwf	(___fladd@b+3)& (0+255),b
  7010  0012E8                     l5108:
  7011                           
  7012                           ; BSR set to: 0
  7013  0012E8  5187               	movf	(___fladd@a+3)& (0+255),w,b
  7014  0012EA  0B80               	andlw	128
  7015  0012EC  6F89               	movwf	___fladd@aexp& (0+255),b
  7016  0012EE                     
  7017                           ; BSR set to: 0
  7018  0012EE  5188               	movf	___fladd@signs& (0+255),w,b
  7019  0012F0  1989               	xorwf	___fladd@aexp& (0+255),w,b
  7020  0012F2  B4D8               	btfsc	status,2,c
  7021  0012F4  EF7E  F009         	goto	u6491
  7022  0012F8  EF80  F009         	goto	u6490
  7023  0012FC                     u6491:
  7024  0012FC  EF81  F009         	goto	l5114
  7025  001300                     u6490:
  7026  001300                     
  7027                           ; BSR set to: 0
  7028  001300  8D88               	bsf	___fladd@signs& (0+255),6,b
  7029  001302                     l5114:
  7030                           
  7031                           ; BSR set to: 0
  7032  001302  5187               	movf	(___fladd@a+3)& (0+255),w,b
  7033  001304  2587               	addwf	(___fladd@a+3)& (0+255),w,b
  7034  001306  6F89               	movwf	___fladd@aexp& (0+255),b
  7035  001308                     
  7036                           ; BSR set to: 0
  7037  001308  AF86               	btfss	(___fladd@a+2)& (0+255),7,b
  7038  00130A  EF89  F009         	goto	u6501
  7039  00130E  EF8B  F009         	goto	u6500
  7040  001312                     u6501:
  7041  001312  EF8C  F009         	goto	l5120
  7042  001316                     u6500:
  7043  001316                     
  7044                           ; BSR set to: 0
  7045  001316  8189               	bsf	___fladd@aexp& (0+255),0,b
  7046  001318                     l5120:
  7047                           
  7048                           ; BSR set to: 0
  7049  001318  5189               	movf	___fladd@aexp& (0+255),w,b
  7050  00131A  B4D8               	btfsc	status,2,c
  7051  00131C  EF92  F009         	goto	u6511
  7052  001320  EF94  F009         	goto	u6510
  7053  001324                     u6511:
  7054  001324  EFA9  F009         	goto	l5130
  7055  001328                     u6510:
  7056  001328                     
  7057                           ; BSR set to: 0
  7058  001328  2989               	incf	___fladd@aexp& (0+255),w,b
  7059  00132A  A4D8               	btfss	status,2,c
  7060  00132C  EF9A  F009         	goto	u6521
  7061  001330  EF9C  F009         	goto	u6520
  7062  001334                     u6521:
  7063  001334  EFA4  F009         	goto	l5126
  7064  001338                     u6520:
  7065  001338                     
  7066                           ; BSR set to: 0
  7067  001338  0E00               	movlw	0
  7068  00133A  6F84               	movwf	___fladd@a& (0+255),b
  7069  00133C  0E00               	movlw	0
  7070  00133E  6F85               	movwf	(___fladd@a+1)& (0+255),b
  7071  001340  0E00               	movlw	0
  7072  001342  6F86               	movwf	(___fladd@a+2)& (0+255),b
  7073  001344  0E00               	movlw	0
  7074  001346  6F87               	movwf	(___fladd@a+3)& (0+255),b
  7075  001348                     l5126:
  7076                           
  7077                           ; BSR set to: 0
  7078  001348  8F86               	bsf	(___fladd@a+2)& (0+255),7,b
  7079  00134A                     
  7080                           ; BSR set to: 0
  7081  00134A  0E00               	movlw	0
  7082  00134C  6F87               	movwf	(___fladd@a+3)& (0+255),b
  7083  00134E  EFB1  F009         	goto	l5132
  7084  001352                     l5130:
  7085                           
  7086                           ; BSR set to: 0
  7087  001352  0E00               	movlw	0
  7088  001354  6F84               	movwf	___fladd@a& (0+255),b
  7089  001356  0E00               	movlw	0
  7090  001358  6F85               	movwf	(___fladd@a+1)& (0+255),b
  7091  00135A  0E00               	movlw	0
  7092  00135C  6F86               	movwf	(___fladd@a+2)& (0+255),b
  7093  00135E  0E00               	movlw	0
  7094  001360  6F87               	movwf	(___fladd@a+3)& (0+255),b
  7095  001362                     l5132:
  7096                           
  7097                           ; BSR set to: 0
  7098  001362  518A               	movf	___fladd@bexp& (0+255),w,b
  7099  001364  5D89               	subwf	___fladd@aexp& (0+255),w,b
  7100  001366  B0D8               	btfsc	status,0,c
  7101  001368  EFB8  F009         	goto	u6531
  7102  00136C  EFBA  F009         	goto	u6530
  7103  001370                     u6531:
  7104  001370  EFE1  F009         	goto	l5168
  7105  001374                     u6530:
  7106  001374                     
  7107                           ; BSR set to: 0
  7108  001374  AD88               	btfss	___fladd@signs& (0+255),6,b
  7109  001376  EFBF  F009         	goto	u6541
  7110  00137A  EFC1  F009         	goto	u6540
  7111  00137E                     u6541:
  7112  00137E  EFC3  F009         	goto	l5138
  7113  001382                     u6540:
  7114  001382                     
  7115                           ; BSR set to: 0
  7116  001382  0E80               	movlw	128
  7117  001384  1B88               	xorwf	___fladd@signs& (0+255),f,b
  7118  001386                     l5138:
  7119                           
  7120                           ; BSR set to: 0
  7121  001386  C08A  F08B         	movff	___fladd@bexp,___fladd@grs
  7122  00138A                     
  7123                           ; BSR set to: 0
  7124  00138A  C089  F08A         	movff	___fladd@aexp,___fladd@bexp
  7125  00138E                     
  7126                           ; BSR set to: 0
  7127  00138E  C08B  F089         	movff	___fladd@grs,___fladd@aexp
  7128  001392                     
  7129                           ; BSR set to: 0
  7130  001392  C080  F08B         	movff	___fladd@b,___fladd@grs
  7131  001396                     
  7132                           ; BSR set to: 0
  7133  001396  C084  F080         	movff	___fladd@a,___fladd@b
  7134  00139A                     
  7135                           ; BSR set to: 0
  7136  00139A  C08B  F084         	movff	___fladd@grs,___fladd@a
  7137  00139E                     
  7138                           ; BSR set to: 0
  7139  00139E  C081  F08B         	movff	___fladd@b+1,___fladd@grs
  7140  0013A2                     
  7141                           ; BSR set to: 0
  7142  0013A2  C085  F081         	movff	___fladd@a+1,___fladd@b+1
  7143  0013A6                     
  7144                           ; BSR set to: 0
  7145  0013A6  C08B  F085         	movff	___fladd@grs,___fladd@a+1
  7146  0013AA                     
  7147                           ; BSR set to: 0
  7148  0013AA  C082  F08B         	movff	___fladd@b+2,___fladd@grs
  7149  0013AE                     
  7150                           ; BSR set to: 0
  7151  0013AE  C086  F082         	movff	___fladd@a+2,___fladd@b+2
  7152  0013B2                     
  7153                           ; BSR set to: 0
  7154  0013B2  C08B  F086         	movff	___fladd@grs,___fladd@a+2
  7155  0013B6                     
  7156                           ; BSR set to: 0
  7157  0013B6  C083  F08B         	movff	___fladd@b+3,___fladd@grs
  7158  0013BA                     
  7159                           ; BSR set to: 0
  7160  0013BA  C087  F083         	movff	___fladd@a+3,___fladd@b+3
  7161  0013BE                     
  7162                           ; BSR set to: 0
  7163  0013BE  C08B  F087         	movff	___fladd@grs,___fladd@a+3
  7164  0013C2                     l5168:
  7165                           
  7166                           ; BSR set to: 0
  7167  0013C2  0E00               	movlw	0
  7168  0013C4  6F8B               	movwf	___fladd@grs& (0+255),b
  7169  0013C6                     
  7170                           ; BSR set to: 0
  7171  0013C6  518A               	movf	___fladd@bexp& (0+255),w,b
  7172  0013C8  C089  F032         	movff	___fladd@aexp,??___fladd
  7173  0013CC  6A33               	clrf	(??___fladd+1)^0,c
  7174  0013CE  5E32               	subwf	??___fladd^0,f,c
  7175  0013D0  0E00               	movlw	0
  7176  0013D2  5A33               	subwfb	(??___fladd+1)^0,f,c
  7177  0013D4  BE33               	btfsc	(??___fladd+1)^0,7,c
  7178  0013D6  EFF6  F009         	goto	u6551
  7179  0013DA  5033               	movf	(??___fladd+1)^0,w,c
  7180  0013DC  E109               	bnz	u6550
  7181  0013DE  0E1A               	movlw	26
  7182  0013E0  5C32               	subwf	??___fladd^0,w,c
  7183  0013E2  A0D8               	btfss	status,0,c
  7184  0013E4  EFF6  F009         	goto	u6551
  7185  0013E8  EFF8  F009         	goto	u6550
  7186  0013EC                     u6551:
  7187  0013EC  EF2F  F00A         	goto	l695
  7188  0013F0                     u6550:
  7189  0013F0                     
  7190                           ; BSR set to: 0
  7191  0013F0  5180               	movf	___fladd@b& (0+255),w,b
  7192  0013F2  1181               	iorwf	(___fladd@b+1)& (0+255),w,b
  7193  0013F4  1182               	iorwf	(___fladd@b+2)& (0+255),w,b
  7194  0013F6  1183               	iorwf	(___fladd@b+3)& (0+255),w,b
  7195  0013F8  A4D8               	btfss	status,2,c
  7196  0013FA  EF01  F00A         	goto	u6561
  7197  0013FE  EF04  F00A         	goto	u6560
  7198  001402                     u6561:
  7199  001402  0E01               	movlw	1
  7200  001404  EF05  F00A         	goto	u6570
  7201  001408                     u6560:
  7202  001408  0E00               	movlw	0
  7203  00140A                     u6570:
  7204  00140A  6F8B               	movwf	___fladd@grs& (0+255),b
  7205  00140C                     
  7206                           ; BSR set to: 0
  7207  00140C  0E00               	movlw	0
  7208  00140E  6F80               	movwf	___fladd@b& (0+255),b
  7209  001410  0E00               	movlw	0
  7210  001412  6F81               	movwf	(___fladd@b+1)& (0+255),b
  7211  001414  0E00               	movlw	0
  7212  001416  6F82               	movwf	(___fladd@b+2)& (0+255),b
  7213  001418  0E00               	movlw	0
  7214  00141A  6F83               	movwf	(___fladd@b+3)& (0+255),b
  7215  00141C                     
  7216                           ; BSR set to: 0
  7217  00141C  C089  F08A         	movff	___fladd@aexp,___fladd@bexp
  7218  001420  EF38  F00A         	goto	l694
  7219  001424                     l696:
  7220                           
  7221                           ; BSR set to: 0
  7222  001424  A18B               	btfss	___fladd@grs& (0+255),0,b
  7223  001426  EF17  F00A         	goto	u6581
  7224  00142A  EF19  F00A         	goto	u6580
  7225  00142E                     u6581:
  7226  00142E  EF1F  F00A         	goto	l5180
  7227  001432                     u6580:
  7228  001432                     
  7229                           ; BSR set to: 0
  7230  001432  90D8               	bcf	status,0,c
  7231  001434  318B               	rrcf	___fladd@grs& (0+255),w,b
  7232  001436  0901               	iorlw	1
  7233  001438  6F8B               	movwf	___fladd@grs& (0+255),b
  7234  00143A  EF21  F00A         	goto	l5182
  7235  00143E                     l5180:
  7236                           
  7237                           ; BSR set to: 0
  7238  00143E  90D8               	bcf	status,0,c
  7239  001440  338B               	rrcf	___fladd@grs& (0+255),f,b
  7240  001442                     l5182:
  7241                           
  7242                           ; BSR set to: 0
  7243  001442  A180               	btfss	___fladd@b& (0+255),0,b
  7244  001444  EF26  F00A         	goto	u6591
  7245  001448  EF28  F00A         	goto	u6590
  7246  00144C                     u6591:
  7247  00144C  EF29  F00A         	goto	l5186
  7248  001450                     u6590:
  7249  001450                     
  7250                           ; BSR set to: 0
  7251  001450  8F8B               	bsf	___fladd@grs& (0+255),7,b
  7252  001452                     l5186:
  7253                           
  7254                           ; BSR set to: 0
  7255  001452  3583               	rlcf	(___fladd@b+3)& (0+255),w,b
  7256  001454  3383               	rrcf	(___fladd@b+3)& (0+255),f,b
  7257  001456  3382               	rrcf	(___fladd@b+2)& (0+255),f,b
  7258  001458  3381               	rrcf	(___fladd@b+1)& (0+255),f,b
  7259  00145A  3380               	rrcf	___fladd@b& (0+255),f,b
  7260  00145C                     
  7261                           ; BSR set to: 0
  7262  00145C  2B8A               	incf	___fladd@bexp& (0+255),f,b
  7263  00145E                     l695:
  7264                           
  7265                           ; BSR set to: 0
  7266  00145E  5189               	movf	___fladd@aexp& (0+255),w,b
  7267  001460  5D8A               	subwf	___fladd@bexp& (0+255),w,b
  7268  001462  A0D8               	btfss	status,0,c
  7269  001464  EF36  F00A         	goto	u6601
  7270  001468  EF38  F00A         	goto	u6600
  7271  00146C                     u6601:
  7272  00146C  EF12  F00A         	goto	l696
  7273  001470                     u6600:
  7274  001470                     l694:
  7275                           
  7276                           ; BSR set to: 0
  7277  001470  BD88               	btfsc	___fladd@signs& (0+255),6,b
  7278  001472  EF3D  F00A         	goto	u6611
  7279  001476  EF3F  F00A         	goto	u6610
  7280  00147A                     u6611:
  7281  00147A  EF7F  F00A         	goto	l5214
  7282  00147E                     u6610:
  7283  00147E                     
  7284                           ; BSR set to: 0
  7285  00147E  518A               	movf	___fladd@bexp& (0+255),w,b
  7286  001480  A4D8               	btfss	status,2,c
  7287  001482  EF45  F00A         	goto	u6621
  7288  001486  EF47  F00A         	goto	u6620
  7289  00148A                     u6621:
  7290  00148A  EF51  F00A         	goto	l5196
  7291  00148E                     u6620:
  7292  00148E                     
  7293                           ; BSR set to: 0
  7294  00148E  0E00               	movlw	0
  7295  001490  6F80               	movwf	?___fladd& (0+255),b
  7296  001492  0E00               	movlw	0
  7297  001494  6F81               	movwf	(?___fladd+1)& (0+255),b
  7298  001496  0E00               	movlw	0
  7299  001498  6F82               	movwf	(?___fladd+2)& (0+255),b
  7300  00149A  0E00               	movlw	0
  7301  00149C  6F83               	movwf	(?___fladd+3)& (0+255),b
  7302  00149E  EFA0  F00B         	goto	l703
  7303  0014A2                     l5196:
  7304                           
  7305                           ; BSR set to: 0
  7306  0014A2  5184               	movf	___fladd@a& (0+255),w,b
  7307  0014A4  2780               	addwf	___fladd@b& (0+255),f,b
  7308  0014A6  5185               	movf	(___fladd@a+1)& (0+255),w,b
  7309  0014A8  2381               	addwfc	(___fladd@b+1)& (0+255),f,b
  7310  0014AA  5186               	movf	(___fladd@a+2)& (0+255),w,b
  7311  0014AC  2382               	addwfc	(___fladd@b+2)& (0+255),f,b
  7312  0014AE  5187               	movf	(___fladd@a+3)& (0+255),w,b
  7313  0014B0  2383               	addwfc	(___fladd@b+3)& (0+255),f,b
  7314  0014B2                     
  7315                           ; BSR set to: 0
  7316  0014B2  A183               	btfss	(___fladd@b+3)& (0+255),0,b
  7317  0014B4  EF5E  F00A         	goto	u6631
  7318  0014B8  EF60  F00A         	goto	u6630
  7319  0014BC                     u6631:
  7320  0014BC  EF0C  F00B         	goto	l5250
  7321  0014C0                     u6630:
  7322  0014C0                     
  7323                           ; BSR set to: 0
  7324  0014C0  A18B               	btfss	___fladd@grs& (0+255),0,b
  7325  0014C2  EF65  F00A         	goto	u6641
  7326  0014C6  EF67  F00A         	goto	u6640
  7327  0014CA                     u6641:
  7328  0014CA  EF6D  F00A         	goto	l5204
  7329  0014CE                     u6640:
  7330  0014CE                     
  7331                           ; BSR set to: 0
  7332  0014CE  90D8               	bcf	status,0,c
  7333  0014D0  318B               	rrcf	___fladd@grs& (0+255),w,b
  7334  0014D2  0901               	iorlw	1
  7335  0014D4  6F8B               	movwf	___fladd@grs& (0+255),b
  7336  0014D6  EF6F  F00A         	goto	l5206
  7337  0014DA                     l5204:
  7338                           
  7339                           ; BSR set to: 0
  7340  0014DA  90D8               	bcf	status,0,c
  7341  0014DC  338B               	rrcf	___fladd@grs& (0+255),f,b
  7342  0014DE                     l5206:
  7343                           
  7344                           ; BSR set to: 0
  7345  0014DE  A180               	btfss	___fladd@b& (0+255),0,b
  7346  0014E0  EF74  F00A         	goto	u6651
  7347  0014E4  EF76  F00A         	goto	u6650
  7348  0014E8                     u6651:
  7349  0014E8  EF77  F00A         	goto	l5210
  7350  0014EC                     u6650:
  7351  0014EC                     
  7352                           ; BSR set to: 0
  7353  0014EC  8F8B               	bsf	___fladd@grs& (0+255),7,b
  7354  0014EE                     l5210:
  7355                           
  7356                           ; BSR set to: 0
  7357  0014EE  3583               	rlcf	(___fladd@b+3)& (0+255),w,b
  7358  0014F0  3383               	rrcf	(___fladd@b+3)& (0+255),f,b
  7359  0014F2  3382               	rrcf	(___fladd@b+2)& (0+255),f,b
  7360  0014F4  3381               	rrcf	(___fladd@b+1)& (0+255),f,b
  7361  0014F6  3380               	rrcf	___fladd@b& (0+255),f,b
  7362  0014F8                     
  7363                           ; BSR set to: 0
  7364  0014F8  2B8A               	incf	___fladd@bexp& (0+255),f,b
  7365  0014FA  EF0C  F00B         	goto	l5250
  7366  0014FE                     l5214:
  7367                           
  7368                           ; BSR set to: 0
  7369  0014FE  5184               	movf	___fladd@a& (0+255),w,b
  7370  001500  5D80               	subwf	___fladd@b& (0+255),w,b
  7371  001502  5185               	movf	(___fladd@a+1)& (0+255),w,b
  7372  001504  5981               	subwfb	(___fladd@b+1)& (0+255),w,b
  7373  001506  5186               	movf	(___fladd@a+2)& (0+255),w,b
  7374  001508  5982               	subwfb	(___fladd@b+2)& (0+255),w,b
  7375  00150A  5183               	movf	(___fladd@b+3)& (0+255),w,b
  7376  00150C  0A80               	xorlw	128
  7377  00150E  6E32               	movwf	??___fladd^0,c
  7378  001510  5187               	movf	(___fladd@a+3)& (0+255),w,b
  7379  001512  0A80               	xorlw	128
  7380  001514  5832               	subwfb	??___fladd^0,w,c
  7381  001516  B0D8               	btfsc	status,0,c
  7382  001518  EF90  F00A         	goto	u6661
  7383  00151C  EF92  F00A         	goto	u6660
  7384  001520                     u6661:
  7385  001520  EFBD  F00A         	goto	l5224
  7386  001524                     u6660:
  7387  001524                     
  7388                           ; BSR set to: 0
  7389  001524  5180               	movf	___fladd@b& (0+255),w,b
  7390  001526  5D84               	subwf	___fladd@a& (0+255),w,b
  7391  001528  6E32               	movwf	??___fladd^0,c
  7392  00152A  5181               	movf	(___fladd@b+1)& (0+255),w,b
  7393  00152C  5985               	subwfb	(___fladd@a+1)& (0+255),w,b
  7394  00152E  6E33               	movwf	(??___fladd+1)^0,c
  7395  001530  5182               	movf	(___fladd@b+2)& (0+255),w,b
  7396  001532  5986               	subwfb	(___fladd@a+2)& (0+255),w,b
  7397  001534  6E34               	movwf	(??___fladd+2)^0,c
  7398  001536  5183               	movf	(___fladd@b+3)& (0+255),w,b
  7399  001538  5987               	subwfb	(___fladd@a+3)& (0+255),w,b
  7400  00153A  6E35               	movwf	(??___fladd+3)^0,c
  7401  00153C  0EFF               	movlw	255
  7402  00153E  2432               	addwf	??___fladd^0,w,c
  7403  001540  6F80               	movwf	___fladd@b& (0+255),b
  7404  001542  0EFF               	movlw	255
  7405  001544  2033               	addwfc	(??___fladd+1)^0,w,c
  7406  001546  6F81               	movwf	(___fladd@b+1)& (0+255),b
  7407  001548  0EFF               	movlw	255
  7408  00154A  2034               	addwfc	(??___fladd+2)^0,w,c
  7409  00154C  6F82               	movwf	(___fladd@b+2)& (0+255),b
  7410  00154E  0EFF               	movlw	255
  7411  001550  2035               	addwfc	(??___fladd+3)^0,w,c
  7412  001552  6F83               	movwf	(___fladd@b+3)& (0+255),b
  7413  001554  0E80               	movlw	128
  7414  001556  1B88               	xorwf	___fladd@signs& (0+255),f,b
  7415  001558                     
  7416                           ; BSR set to: 0
  7417  001558  6D8B               	negf	___fladd@grs& (0+255),b
  7418  00155A                     
  7419                           ; BSR set to: 0
  7420  00155A  518B               	movf	___fladd@grs& (0+255),w,b
  7421  00155C  A4D8               	btfss	status,2,c
  7422  00155E  EFB3  F00A         	goto	u6671
  7423  001562  EFB5  F00A         	goto	u6670
  7424  001566                     u6671:
  7425  001566  EFC5  F00A         	goto	l711
  7426  00156A                     u6670:
  7427  00156A                     
  7428                           ; BSR set to: 0
  7429  00156A  0E01               	movlw	1
  7430  00156C  2780               	addwf	___fladd@b& (0+255),f,b
  7431  00156E  0E00               	movlw	0
  7432  001570  2381               	addwfc	(___fladd@b+1)& (0+255),f,b
  7433  001572  2382               	addwfc	(___fladd@b+2)& (0+255),f,b
  7434  001574  2383               	addwfc	(___fladd@b+3)& (0+255),f,b
  7435  001576  EFC5  F00A         	goto	l711
  7436  00157A                     l5224:
  7437                           
  7438                           ; BSR set to: 0
  7439  00157A  5184               	movf	___fladd@a& (0+255),w,b
  7440  00157C  5F80               	subwf	___fladd@b& (0+255),f,b
  7441  00157E  5185               	movf	(___fladd@a+1)& (0+255),w,b
  7442  001580  5B81               	subwfb	(___fladd@b+1)& (0+255),f,b
  7443  001582  5186               	movf	(___fladd@a+2)& (0+255),w,b
  7444  001584  5B82               	subwfb	(___fladd@b+2)& (0+255),f,b
  7445  001586  5187               	movf	(___fladd@a+3)& (0+255),w,b
  7446  001588  5B83               	subwfb	(___fladd@b+3)& (0+255),f,b
  7447  00158A                     l711:
  7448                           
  7449                           ; BSR set to: 0
  7450  00158A  5180               	movf	___fladd@b& (0+255),w,b
  7451  00158C  1181               	iorwf	(___fladd@b+1)& (0+255),w,b
  7452  00158E  1182               	iorwf	(___fladd@b+2)& (0+255),w,b
  7453  001590  1183               	iorwf	(___fladd@b+3)& (0+255),w,b
  7454  001592  A4D8               	btfss	status,2,c
  7455  001594  EFCE  F00A         	goto	u6681
  7456  001598  EFD0  F00A         	goto	u6680
  7457  00159C                     u6681:
  7458  00159C  EF05  F00B         	goto	l5248
  7459  0015A0                     u6680:
  7460  0015A0                     
  7461                           ; BSR set to: 0
  7462  0015A0  518B               	movf	___fladd@grs& (0+255),w,b
  7463  0015A2  A4D8               	btfss	status,2,c
  7464  0015A4  EFD6  F00A         	goto	u6691
  7465  0015A8  EFD8  F00A         	goto	u6690
  7466  0015AC                     u6691:
  7467  0015AC  EF05  F00B         	goto	l5248
  7468  0015B0                     u6690:
  7469  0015B0                     
  7470                           ; BSR set to: 0
  7471  0015B0  0E00               	movlw	0
  7472  0015B2  6F80               	movwf	?___fladd& (0+255),b
  7473  0015B4  0E00               	movlw	0
  7474  0015B6  6F81               	movwf	(?___fladd+1)& (0+255),b
  7475  0015B8  0E00               	movlw	0
  7476  0015BA  6F82               	movwf	(?___fladd+2)& (0+255),b
  7477  0015BC  0E00               	movlw	0
  7478  0015BE  6F83               	movwf	(?___fladd+3)& (0+255),b
  7479  0015C0  EFA0  F00B         	goto	l703
  7480  0015C4                     l5232:
  7481                           
  7482                           ; BSR set to: 0
  7483  0015C4  90D8               	bcf	status,0,c
  7484  0015C6  3780               	rlcf	___fladd@b& (0+255),f,b
  7485  0015C8  3781               	rlcf	(___fladd@b+1)& (0+255),f,b
  7486  0015CA  3782               	rlcf	(___fladd@b+2)& (0+255),f,b
  7487  0015CC  3783               	rlcf	(___fladd@b+3)& (0+255),f,b
  7488  0015CE                     
  7489                           ; BSR set to: 0
  7490  0015CE  AF8B               	btfss	___fladd@grs& (0+255),7,b
  7491  0015D0  EFEC  F00A         	goto	u6701
  7492  0015D4  EFEE  F00A         	goto	u6700
  7493  0015D8                     u6701:
  7494  0015D8  EFEF  F00A         	goto	l5238
  7495  0015DC                     u6700:
  7496  0015DC                     
  7497                           ; BSR set to: 0
  7498  0015DC  8180               	bsf	___fladd@b& (0+255),0,b
  7499  0015DE                     l5238:
  7500                           
  7501                           ; BSR set to: 0
  7502  0015DE  A18B               	btfss	___fladd@grs& (0+255),0,b
  7503  0015E0  EFF4  F00A         	goto	u6711
  7504  0015E4  EFF6  F00A         	goto	u6710
  7505  0015E8                     u6711:
  7506  0015E8  EFFA  F00A         	goto	l5242
  7507  0015EC                     u6710:
  7508  0015EC                     
  7509                           ; BSR set to: 0
  7510  0015EC  80D8               	bsf	status,0,c
  7511  0015EE  378B               	rlcf	___fladd@grs& (0+255),f,b
  7512  0015F0  EFFC  F00A         	goto	l5244
  7513  0015F4                     l5242:
  7514                           
  7515                           ; BSR set to: 0
  7516  0015F4  90D8               	bcf	status,0,c
  7517  0015F6  378B               	rlcf	___fladd@grs& (0+255),f,b
  7518  0015F8                     l5244:
  7519                           
  7520                           ; BSR set to: 0
  7521  0015F8  518A               	movf	___fladd@bexp& (0+255),w,b
  7522  0015FA  B4D8               	btfsc	status,2,c
  7523  0015FC  EF02  F00B         	goto	u6721
  7524  001600  EF04  F00B         	goto	u6720
  7525  001604                     u6721:
  7526  001604  EF05  F00B         	goto	l5248
  7527  001608                     u6720:
  7528  001608                     
  7529                           ; BSR set to: 0
  7530  001608  078A               	decf	___fladd@bexp& (0+255),f,b
  7531  00160A                     l5248:
  7532                           
  7533                           ; BSR set to: 0
  7534  00160A  AF82               	btfss	(___fladd@b+2)& (0+255),7,b
  7535  00160C  EF0A  F00B         	goto	u6731
  7536  001610  EF0C  F00B         	goto	u6730
  7537  001614                     u6731:
  7538  001614  EFE2  F00A         	goto	l5232
  7539  001618                     u6730:
  7540  001618                     l5250:
  7541                           
  7542                           ; BSR set to: 0
  7543  001618  0E00               	movlw	0
  7544  00161A  6F89               	movwf	___fladd@aexp& (0+255),b
  7545  00161C                     
  7546                           ; BSR set to: 0
  7547  00161C  AF8B               	btfss	___fladd@grs& (0+255),7,b
  7548  00161E  EF13  F00B         	goto	u6741
  7549  001622  EF15  F00B         	goto	u6740
  7550  001626                     u6741:
  7551  001626  EF2D  F00B         	goto	l720
  7552  00162A                     u6740:
  7553  00162A                     
  7554                           ; BSR set to: 0
  7555  00162A  C08B  F032         	movff	___fladd@grs,??___fladd
  7556  00162E  0E7F               	movlw	127
  7557  001630  1632               	andwf	??___fladd^0,f,c
  7558  001632  B4D8               	btfsc	status,2,c
  7559  001634  EF1E  F00B         	goto	u6751
  7560  001638  EF20  F00B         	goto	u6750
  7561  00163C                     u6751:
  7562  00163C  EF24  F00B         	goto	l721
  7563  001640                     u6750:
  7564  001640                     l5256:
  7565                           
  7566                           ; BSR set to: 0
  7567  001640  0E01               	movlw	1
  7568  001642  6F89               	movwf	___fladd@aexp& (0+255),b
  7569  001644  EF2D  F00B         	goto	l720
  7570  001648                     l721:
  7571                           
  7572                           ; BSR set to: 0
  7573  001648  A180               	btfss	___fladd@b& (0+255),0,b
  7574  00164A  EF29  F00B         	goto	u6761
  7575  00164E  EF2B  F00B         	goto	u6760
  7576  001652                     u6761:
  7577  001652  EF2D  F00B         	goto	l720
  7578  001656                     u6760:
  7579  001656  EF20  F00B         	goto	l5256
  7580  00165A                     l720:
  7581                           
  7582                           ; BSR set to: 0
  7583  00165A  5189               	movf	___fladd@aexp& (0+255),w,b
  7584  00165C  B4D8               	btfsc	status,2,c
  7585  00165E  EF33  F00B         	goto	u6771
  7586  001662  EF35  F00B         	goto	u6770
  7587  001666                     u6771:
  7588  001666  EF60  F00B         	goto	l5268
  7589  00166A                     u6770:
  7590  00166A                     
  7591                           ; BSR set to: 0
  7592  00166A  0E01               	movlw	1
  7593  00166C  2780               	addwf	___fladd@b& (0+255),f,b
  7594  00166E  0E00               	movlw	0
  7595  001670  2381               	addwfc	(___fladd@b+1)& (0+255),f,b
  7596  001672  2382               	addwfc	(___fladd@b+2)& (0+255),f,b
  7597  001674  2383               	addwfc	(___fladd@b+3)& (0+255),f,b
  7598  001676                     
  7599                           ; BSR set to: 0
  7600  001676  A183               	btfss	(___fladd@b+3)& (0+255),0,b
  7601  001678  EF40  F00B         	goto	u6781
  7602  00167C  EF42  F00B         	goto	u6780
  7603  001680                     u6781:
  7604  001680  EF60  F00B         	goto	l5268
  7605  001684                     u6780:
  7606  001684                     
  7607                           ; BSR set to: 0
  7608  001684  C080  F032         	movff	___fladd@b,??___fladd
  7609  001688  C081  F033         	movff	___fladd@b+1,??___fladd+1
  7610  00168C  C082  F034         	movff	___fladd@b+2,??___fladd+2
  7611  001690  C083  F035         	movff	___fladd@b+3,??___fladd+3
  7612  001694  3435               	rlcf	(??___fladd+3)^0,w,c
  7613  001696  3235               	rrcf	(??___fladd+3)^0,f,c
  7614  001698  3234               	rrcf	(??___fladd+2)^0,f,c
  7615  00169A  3233               	rrcf	(??___fladd+1)^0,f,c
  7616  00169C  3232               	rrcf	??___fladd^0,f,c
  7617  00169E  C032  F080         	movff	??___fladd,___fladd@b
  7618  0016A2  C033  F081         	movff	??___fladd+1,___fladd@b+1
  7619  0016A6  C034  F082         	movff	??___fladd+2,___fladd@b+2
  7620  0016AA  C035  F083         	movff	??___fladd+3,___fladd@b+3
  7621  0016AE  298A               	incf	___fladd@bexp& (0+255),w,b
  7622  0016B0  B4D8               	btfsc	status,2,c
  7623  0016B2  EF5D  F00B         	goto	u6791
  7624  0016B6  EF5F  F00B         	goto	u6790
  7625  0016BA                     u6791:
  7626  0016BA  EF60  F00B         	goto	l5268
  7627  0016BE                     u6790:
  7628  0016BE                     
  7629                           ; BSR set to: 0
  7630  0016BE  2B8A               	incf	___fladd@bexp& (0+255),f,b
  7631  0016C0                     l5268:
  7632                           
  7633                           ; BSR set to: 0
  7634  0016C0  298A               	incf	___fladd@bexp& (0+255),w,b
  7635  0016C2  B4D8               	btfsc	status,2,c
  7636  0016C4  EF66  F00B         	goto	u6801
  7637  0016C8  EF68  F00B         	goto	u6800
  7638  0016CC                     u6801:
  7639  0016CC  EF70  F00B         	goto	l5272
  7640  0016D0                     u6800:
  7641  0016D0                     
  7642                           ; BSR set to: 0
  7643  0016D0  518A               	movf	___fladd@bexp& (0+255),w,b
  7644  0016D2  A4D8               	btfss	status,2,c
  7645  0016D4  EF6E  F00B         	goto	u6811
  7646  0016D8  EF70  F00B         	goto	u6810
  7647  0016DC                     u6811:
  7648  0016DC  EF82  F00B         	goto	l5276
  7649  0016E0                     u6810:
  7650  0016E0                     l5272:
  7651                           
  7652                           ; BSR set to: 0
  7653  0016E0  0E00               	movlw	0
  7654  0016E2  6F80               	movwf	___fladd@b& (0+255),b
  7655  0016E4  0E00               	movlw	0
  7656  0016E6  6F81               	movwf	(___fladd@b+1)& (0+255),b
  7657  0016E8  0E00               	movlw	0
  7658  0016EA  6F82               	movwf	(___fladd@b+2)& (0+255),b
  7659  0016EC  0E00               	movlw	0
  7660  0016EE  6F83               	movwf	(___fladd@b+3)& (0+255),b
  7661  0016F0  518A               	movf	___fladd@bexp& (0+255),w,b
  7662  0016F2  A4D8               	btfss	status,2,c
  7663  0016F4  EF7E  F00B         	goto	u6821
  7664  0016F8  EF80  F00B         	goto	u6820
  7665  0016FC                     u6821:
  7666  0016FC  EF82  F00B         	goto	l5276
  7667  001700                     u6820:
  7668  001700                     
  7669                           ; BSR set to: 0
  7670  001700  0E00               	movlw	0
  7671  001702  6F88               	movwf	___fladd@signs& (0+255),b
  7672  001704                     l5276:
  7673                           
  7674                           ; BSR set to: 0
  7675  001704  A18A               	btfss	___fladd@bexp& (0+255),0,b
  7676  001706  EF87  F00B         	goto	u6831
  7677  00170A  EF89  F00B         	goto	u6830
  7678  00170E                     u6831:
  7679  00170E  EF8C  F00B         	goto	l5280
  7680  001712                     u6830:
  7681  001712                     
  7682                           ; BSR set to: 0
  7683  001712  8F82               	bsf	(___fladd@b+2)& (0+255),7,b
  7684  001714  EF8D  F00B         	goto	l5282
  7685  001718                     l5280:
  7686                           
  7687                           ; BSR set to: 0
  7688  001718  9F82               	bcf	(___fladd@b+2)& (0+255),7,b
  7689  00171A                     l5282:
  7690                           
  7691                           ; BSR set to: 0
  7692  00171A  90D8               	bcf	status,0,c
  7693  00171C  318A               	rrcf	___fladd@bexp& (0+255),w,b
  7694  00171E  6F83               	movwf	(___fladd@b+3)& (0+255),b
  7695  001720                     
  7696                           ; BSR set to: 0
  7697  001720  AF88               	btfss	___fladd@signs& (0+255),7,b
  7698  001722  EF95  F00B         	goto	u6841
  7699  001726  EF97  F00B         	goto	u6840
  7700  00172A                     u6841:
  7701  00172A  EF98  F00B         	goto	l5288
  7702  00172E                     u6840:
  7703  00172E                     
  7704                           ; BSR set to: 0
  7705  00172E  8F83               	bsf	(___fladd@b+3)& (0+255),7,b
  7706  001730                     l5288:
  7707                           
  7708                           ; BSR set to: 0
  7709  001730  C080  F080         	movff	___fladd@b,?___fladd
  7710  001734  C081  F081         	movff	___fladd@b+1,?___fladd+1
  7711  001738  C082  F082         	movff	___fladd@b+2,?___fladd+2
  7712  00173C  C083  F083         	movff	___fladd@b+3,?___fladd+3
  7713  001740                     l703:
  7714                           
  7715                           ; BSR set to: 0
  7716  001740  0012               	return		;funcret
  7717  001742                     __end_of___fladd:
  7718                           	callstack 0
  7719                           
  7720 ;; *************** function ___flneg *****************
  7721 ;; Defined at:
  7722 ;;		line 15 in file "C:\Program Files\Microchip\xc8\v2.36\pic\sources\c99\common\flneg.c"
  7723 ;; Parameters:    Size  Location     Type
  7724 ;;  f1              4   49[COMRAM] unsigned char 
  7725 ;; Auto vars:     Size  Location     Type
  7726 ;;		None
  7727 ;; Return value:  Size  Location     Type
  7728 ;;                  4   49[COMRAM] unsigned char 
  7729 ;; Registers used:
  7730 ;;		wreg, status,2, status,0
  7731 ;; Tracked objects:
  7732 ;;		On entry : 0/0
  7733 ;;		On exit  : 0/0
  7734 ;;		Unchanged: 0/0
  7735 ;; Data sizes:     COMRAM   BANK0   BANK1   BANK2   BANK3   BANK4   BANK5
  7736 ;;      Params:         4       0       0       0       0       0       0
  7737 ;;      Locals:         0       0       0       0       0       0       0
  7738 ;;      Temps:          0       0       0       0       0       0       0
  7739 ;;      Totals:         4       0       0       0       0       0       0
  7740 ;;Total ram usage:        4 bytes
  7741 ;; Hardware stack levels used: 1
  7742 ;; Hardware stack levels required when called: 5
  7743 ;; This function calls:
  7744 ;;		Nothing
  7745 ;; This function is called by:
  7746 ;;		_efgtoa
  7747 ;; This function uses a non-reentrant model
  7748 ;;
  7749                           
  7750                           	psect	text30
  7751  00481E                     __ptext30:
  7752                           	callstack 0
  7753  00481E                     ___flneg:
  7754                           	callstack 20
  7755  00481E  5032               	movf	___flneg@f1^0,w,c
  7756  004820  1033               	iorwf	(___flneg@f1+1)^0,w,c
  7757  004822  1034               	iorwf	(___flneg@f1+2)^0,w,c
  7758  004824  1035               	iorwf	(___flneg@f1+3)^0,w,c
  7759  004826  B4D8               	btfsc	status,2,c
  7760  004828  EF18  F024         	goto	u7511
  7761  00482C  EF1A  F024         	goto	u7510
  7762  004830                     u7511:
  7763  004830  EF22  F024         	goto	l5716
  7764  004834                     u7510:
  7765  004834  0E00               	movlw	0
  7766  004836  1A32               	xorwf	___flneg@f1^0,f,c
  7767  004838  0E00               	movlw	0
  7768  00483A  1A33               	xorwf	(___flneg@f1+1)^0,f,c
  7769  00483C  0E00               	movlw	0
  7770  00483E  1A34               	xorwf	(___flneg@f1+2)^0,f,c
  7771  004840  0E80               	movlw	128
  7772  004842  1A35               	xorwf	(___flneg@f1+3)^0,f,c
  7773  004844                     l5716:
  7774  004844  C032  F032         	movff	___flneg@f1,?___flneg
  7775  004848  C033  F033         	movff	___flneg@f1+1,?___flneg+1
  7776  00484C  C034  F034         	movff	___flneg@f1+2,?___flneg+2
  7777  004850  C035  F035         	movff	___flneg@f1+3,?___flneg+3
  7778  004854  0012               	return		;funcret
  7779  004856                     __end_of___flneg:
  7780                           	callstack 0
  7781                           
  7782 ;; *************** function ___flmul *****************
  7783 ;; Defined at:
  7784 ;;		line 8 in file "C:\Program Files\Microchip\xc8\v2.36\pic\sources\c99\common\sprcmul.c"
  7785 ;; Parameters:    Size  Location     Type
  7786 ;;  b               4   10[BANK0 ] unsigned char 
  7787 ;;  a               4   14[BANK0 ] unsigned char 
  7788 ;; Auto vars:     Size  Location     Type
  7789 ;;  prod            4   29[BANK0 ] struct .
  7790 ;;  grs             4   24[BANK0 ] unsigned long 
  7791 ;;  temp            2   33[BANK0 ] struct .
  7792 ;;  bexp            1   28[BANK0 ] unsigned char 
  7793 ;;  aexp            1   23[BANK0 ] unsigned char 
  7794 ;;  sign            1   22[BANK0 ] unsigned char 
  7795 ;; Return value:  Size  Location     Type
  7796 ;;                  4   10[BANK0 ] unsigned char 
  7797 ;; Registers used:
  7798 ;;		wreg, status,2, status,0, prodl, prodh
  7799 ;; Tracked objects:
  7800 ;;		On entry : 0/0
  7801 ;;		On exit  : 0/0
  7802 ;;		Unchanged: 0/0
  7803 ;; Data sizes:     COMRAM   BANK0   BANK1   BANK2   BANK3   BANK4   BANK5
  7804 ;;      Params:         0       8       0       0       0       0       0
  7805 ;;      Locals:         0      13       0       0       0       0       0
  7806 ;;      Temps:          0       4       0       0       0       0       0
  7807 ;;      Totals:         0      25       0       0       0       0       0
  7808 ;;Total ram usage:       25 bytes
  7809 ;; Hardware stack levels used: 1
  7810 ;; Hardware stack levels required when called: 5
  7811 ;; This function calls:
  7812 ;;		Nothing
  7813 ;; This function is called by:
  7814 ;;		_equation_SENSOR
  7815 ;;		_efgtoa
  7816 ;; This function uses a non-reentrant model
  7817 ;;
  7818                           
  7819                           	psect	text31
  7820  001B86                     __ptext31:
  7821                           	callstack 0
  7822  001B86                     ___flmul:
  7823                           	callstack 24
  7824  001B86  0100               	movlb	0	; () banked
  7825  001B88  518D               	movf	(___flmul@b+3)& (0+255),w,b
  7826  001B8A  0B80               	andlw	128
  7827  001B8C  6F96               	movwf	___flmul@sign& (0+255),b
  7828  001B8E  518D               	movf	(___flmul@b+3)& (0+255),w,b
  7829  001B90  258D               	addwf	(___flmul@b+3)& (0+255),w,b
  7830  001B92  6F9C               	movwf	___flmul@bexp& (0+255),b
  7831  001B94                     
  7832                           ; BSR set to: 0
  7833  001B94  AF8C               	btfss	(___flmul@b+2)& (0+255),7,b
  7834  001B96  EFCF  F00D         	goto	u7121
  7835  001B9A  EFD1  F00D         	goto	u7120
  7836  001B9E                     u7121:
  7837  001B9E  EFD2  F00D         	goto	l5464
  7838  001BA2                     u7120:
  7839  001BA2                     
  7840                           ; BSR set to: 0
  7841  001BA2  819C               	bsf	___flmul@bexp& (0+255),0,b
  7842  001BA4                     l5464:
  7843                           
  7844                           ; BSR set to: 0
  7845  001BA4  519C               	movf	___flmul@bexp& (0+255),w,b
  7846  001BA6  B4D8               	btfsc	status,2,c
  7847  001BA8  EFD8  F00D         	goto	u7131
  7848  001BAC  EFDA  F00D         	goto	u7130
  7849  001BB0                     u7131:
  7850  001BB0  EFED  F00D         	goto	l5472
  7851  001BB4                     u7130:
  7852  001BB4                     
  7853                           ; BSR set to: 0
  7854  001BB4  299C               	incf	___flmul@bexp& (0+255),w,b
  7855  001BB6  A4D8               	btfss	status,2,c
  7856  001BB8  EFE0  F00D         	goto	u7141
  7857  001BBC  EFE2  F00D         	goto	u7140
  7858  001BC0                     u7141:
  7859  001BC0  EFEA  F00D         	goto	l5470
  7860  001BC4                     u7140:
  7861  001BC4                     
  7862                           ; BSR set to: 0
  7863  001BC4  0E00               	movlw	0
  7864  001BC6  6F8A               	movwf	___flmul@b& (0+255),b
  7865  001BC8  0E00               	movlw	0
  7866  001BCA  6F8B               	movwf	(___flmul@b+1)& (0+255),b
  7867  001BCC  0E00               	movlw	0
  7868  001BCE  6F8C               	movwf	(___flmul@b+2)& (0+255),b
  7869  001BD0  0E00               	movlw	0
  7870  001BD2  6F8D               	movwf	(___flmul@b+3)& (0+255),b
  7871  001BD4                     l5470:
  7872                           
  7873                           ; BSR set to: 0
  7874  001BD4  8F8C               	bsf	(___flmul@b+2)& (0+255),7,b
  7875  001BD6  EFF5  F00D         	goto	l5474
  7876  001BDA                     l5472:
  7877                           
  7878                           ; BSR set to: 0
  7879  001BDA  0E00               	movlw	0
  7880  001BDC  6F8A               	movwf	___flmul@b& (0+255),b
  7881  001BDE  0E00               	movlw	0
  7882  001BE0  6F8B               	movwf	(___flmul@b+1)& (0+255),b
  7883  001BE2  0E00               	movlw	0
  7884  001BE4  6F8C               	movwf	(___flmul@b+2)& (0+255),b
  7885  001BE6  0E00               	movlw	0
  7886  001BE8  6F8D               	movwf	(___flmul@b+3)& (0+255),b
  7887  001BEA                     l5474:
  7888                           
  7889                           ; BSR set to: 0
  7890  001BEA  5191               	movf	(___flmul@a+3)& (0+255),w,b
  7891  001BEC  0B80               	andlw	128
  7892  001BEE  1B96               	xorwf	___flmul@sign& (0+255),f,b
  7893  001BF0                     
  7894                           ; BSR set to: 0
  7895  001BF0  5191               	movf	(___flmul@a+3)& (0+255),w,b
  7896  001BF2  2591               	addwf	(___flmul@a+3)& (0+255),w,b
  7897  001BF4  6F97               	movwf	___flmul@aexp& (0+255),b
  7898  001BF6                     
  7899                           ; BSR set to: 0
  7900  001BF6  AF90               	btfss	(___flmul@a+2)& (0+255),7,b
  7901  001BF8  EF00  F00E         	goto	u7151
  7902  001BFC  EF02  F00E         	goto	u7150
  7903  001C00                     u7151:
  7904  001C00  EF03  F00E         	goto	l5482
  7905  001C04                     u7150:
  7906  001C04                     
  7907                           ; BSR set to: 0
  7908  001C04  8197               	bsf	___flmul@aexp& (0+255),0,b
  7909  001C06                     l5482:
  7910                           
  7911                           ; BSR set to: 0
  7912  001C06  5197               	movf	___flmul@aexp& (0+255),w,b
  7913  001C08  B4D8               	btfsc	status,2,c
  7914  001C0A  EF09  F00E         	goto	u7161
  7915  001C0E  EF0B  F00E         	goto	u7160
  7916  001C12                     u7161:
  7917  001C12  EF1E  F00E         	goto	l5490
  7918  001C16                     u7160:
  7919  001C16                     
  7920                           ; BSR set to: 0
  7921  001C16  2997               	incf	___flmul@aexp& (0+255),w,b
  7922  001C18  A4D8               	btfss	status,2,c
  7923  001C1A  EF11  F00E         	goto	u7171
  7924  001C1E  EF13  F00E         	goto	u7170
  7925  001C22                     u7171:
  7926  001C22  EF1B  F00E         	goto	l5488
  7927  001C26                     u7170:
  7928  001C26                     
  7929                           ; BSR set to: 0
  7930  001C26  0E00               	movlw	0
  7931  001C28  6F8E               	movwf	___flmul@a& (0+255),b
  7932  001C2A  0E00               	movlw	0
  7933  001C2C  6F8F               	movwf	(___flmul@a+1)& (0+255),b
  7934  001C2E  0E00               	movlw	0
  7935  001C30  6F90               	movwf	(___flmul@a+2)& (0+255),b
  7936  001C32  0E00               	movlw	0
  7937  001C34  6F91               	movwf	(___flmul@a+3)& (0+255),b
  7938  001C36                     l5488:
  7939                           
  7940                           ; BSR set to: 0
  7941  001C36  8F90               	bsf	(___flmul@a+2)& (0+255),7,b
  7942  001C38  EF26  F00E         	goto	l780
  7943  001C3C                     l5490:
  7944                           
  7945                           ; BSR set to: 0
  7946  001C3C  0E00               	movlw	0
  7947  001C3E  6F8E               	movwf	___flmul@a& (0+255),b
  7948  001C40  0E00               	movlw	0
  7949  001C42  6F8F               	movwf	(___flmul@a+1)& (0+255),b
  7950  001C44  0E00               	movlw	0
  7951  001C46  6F90               	movwf	(___flmul@a+2)& (0+255),b
  7952  001C48  0E00               	movlw	0
  7953  001C4A  6F91               	movwf	(___flmul@a+3)& (0+255),b
  7954  001C4C                     l780:
  7955                           
  7956                           ; BSR set to: 0
  7957  001C4C  5197               	movf	___flmul@aexp& (0+255),w,b
  7958  001C4E  B4D8               	btfsc	status,2,c
  7959  001C50  EF2C  F00E         	goto	u7181
  7960  001C54  EF2E  F00E         	goto	u7180
  7961  001C58                     u7181:
  7962  001C58  EF36  F00E         	goto	l5494
  7963  001C5C                     u7180:
  7964  001C5C                     
  7965                           ; BSR set to: 0
  7966  001C5C  519C               	movf	___flmul@bexp& (0+255),w,b
  7967  001C5E  A4D8               	btfss	status,2,c
  7968  001C60  EF34  F00E         	goto	u7191
  7969  001C64  EF36  F00E         	goto	u7190
  7970  001C68                     u7191:
  7971  001C68  EF40  F00E         	goto	l5498
  7972  001C6C                     u7190:
  7973  001C6C                     l5494:
  7974                           
  7975                           ; BSR set to: 0
  7976  001C6C  0E00               	movlw	0
  7977  001C6E  6F8A               	movwf	?___flmul& (0+255),b
  7978  001C70  0E00               	movlw	0
  7979  001C72  6F8B               	movwf	(?___flmul+1)& (0+255),b
  7980  001C74  0E00               	movlw	0
  7981  001C76  6F8C               	movwf	(?___flmul+2)& (0+255),b
  7982  001C78  0E00               	movlw	0
  7983  001C7A  6F8D               	movwf	(?___flmul+3)& (0+255),b
  7984  001C7C  EFD8  F00F         	goto	l784
  7985  001C80                     l5498:
  7986                           
  7987                           ; BSR set to: 0
  7988  001C80  5190               	movf	(___flmul@a+2)& (0+255),w,b
  7989  001C82  038A               	mulwf	___flmul@b& (0+255),b
  7990  001C84  CFF3 F0A1          	movff	prodl,___flmul@temp
  7991  001C88  CFF4 F0A2          	movff	prodh,___flmul@temp+1
  7992  001C8C                     
  7993                           ; BSR set to: 0
  7994  001C8C  51A1               	movf	___flmul@temp& (0+255),w,b
  7995  001C8E  6F98               	movwf	___flmul@grs& (0+255),b
  7996  001C90  6B99               	clrf	(___flmul@grs+1)& (0+255),b
  7997  001C92  6B9A               	clrf	(___flmul@grs+2)& (0+255),b
  7998  001C94  6B9B               	clrf	(___flmul@grs+3)& (0+255),b
  7999  001C96                     
  8000                           ; BSR set to: 0
  8001  001C96  51A2               	movf	(___flmul@temp+1)& (0+255),w,b
  8002  001C98  6F9D               	movwf	___flmul@prod& (0+255),b
  8003  001C9A  6B9E               	clrf	(___flmul@prod+1)& (0+255),b
  8004  001C9C  6B9F               	clrf	(___flmul@prod+2)& (0+255),b
  8005  001C9E  6BA0               	clrf	(___flmul@prod+3)& (0+255),b
  8006  001CA0  518F               	movf	(___flmul@a+1)& (0+255),w,b
  8007  001CA2  038B               	mulwf	(___flmul@b+1)& (0+255),b
  8008  001CA4  CFF3 F0A1          	movff	prodl,___flmul@temp
  8009  001CA8  CFF4 F0A2          	movff	prodh,___flmul@temp+1
  8010  001CAC                     
  8011                           ; BSR set to: 0
  8012  001CAC  51A1               	movf	___flmul@temp& (0+255),w,b
  8013  001CAE  2798               	addwf	___flmul@grs& (0+255),f,b
  8014  001CB0  0E00               	movlw	0
  8015  001CB2  2399               	addwfc	(___flmul@grs+1)& (0+255),f,b
  8016  001CB4  239A               	addwfc	(___flmul@grs+2)& (0+255),f,b
  8017  001CB6  239B               	addwfc	(___flmul@grs+3)& (0+255),f,b
  8018  001CB8                     
  8019                           ; BSR set to: 0
  8020  001CB8  51A2               	movf	(___flmul@temp+1)& (0+255),w,b
  8021  001CBA  279D               	addwf	___flmul@prod& (0+255),f,b
  8022  001CBC  0E00               	movlw	0
  8023  001CBE  239E               	addwfc	(___flmul@prod+1)& (0+255),f,b
  8024  001CC0  239F               	addwfc	(___flmul@prod+2)& (0+255),f,b
  8025  001CC2  23A0               	addwfc	(___flmul@prod+3)& (0+255),f,b
  8026  001CC4  518E               	movf	___flmul@a& (0+255),w,b
  8027  001CC6  038C               	mulwf	(___flmul@b+2)& (0+255),b
  8028  001CC8  CFF3 F0A1          	movff	prodl,___flmul@temp
  8029  001CCC  CFF4 F0A2          	movff	prodh,___flmul@temp+1
  8030  001CD0                     
  8031                           ; BSR set to: 0
  8032  001CD0  51A1               	movf	___flmul@temp& (0+255),w,b
  8033  001CD2  2798               	addwf	___flmul@grs& (0+255),f,b
  8034  001CD4  0E00               	movlw	0
  8035  001CD6  2399               	addwfc	(___flmul@grs+1)& (0+255),f,b
  8036  001CD8  239A               	addwfc	(___flmul@grs+2)& (0+255),f,b
  8037  001CDA  239B               	addwfc	(___flmul@grs+3)& (0+255),f,b
  8038  001CDC                     
  8039                           ; BSR set to: 0
  8040  001CDC  51A2               	movf	(___flmul@temp+1)& (0+255),w,b
  8041  001CDE  279D               	addwf	___flmul@prod& (0+255),f,b
  8042  001CE0  0E00               	movlw	0
  8043  001CE2  239E               	addwfc	(___flmul@prod+1)& (0+255),f,b
  8044  001CE4  239F               	addwfc	(___flmul@prod+2)& (0+255),f,b
  8045  001CE6  23A0               	addwfc	(___flmul@prod+3)& (0+255),f,b
  8046  001CE8                     
  8047                           ; BSR set to: 0
  8048  001CE8  C09A  F09B         	movff	___flmul@grs+2,___flmul@grs+3
  8049  001CEC  C099  F09A         	movff	___flmul@grs+1,___flmul@grs+2
  8050  001CF0  C098  F099         	movff	___flmul@grs,___flmul@grs+1
  8051  001CF4  6B98               	clrf	___flmul@grs& (0+255),b
  8052  001CF6                     
  8053                           ; BSR set to: 0
  8054  001CF6  518E               	movf	___flmul@a& (0+255),w,b
  8055  001CF8  038B               	mulwf	(___flmul@b+1)& (0+255),b
  8056  001CFA  CFF3 F0A1          	movff	prodl,___flmul@temp
  8057  001CFE  CFF4 F0A2          	movff	prodh,___flmul@temp+1
  8058  001D02                     
  8059                           ; BSR set to: 0
  8060  001D02  51A1               	movf	___flmul@temp& (0+255),w,b
  8061  001D04  2798               	addwf	___flmul@grs& (0+255),f,b
  8062  001D06  51A2               	movf	(___flmul@temp+1)& (0+255),w,b
  8063  001D08  2399               	addwfc	(___flmul@grs+1)& (0+255),f,b
  8064  001D0A  0E00               	movlw	0
  8065  001D0C  239A               	addwfc	(___flmul@grs+2)& (0+255),f,b
  8066  001D0E  0E00               	movlw	0
  8067  001D10  239B               	addwfc	(___flmul@grs+3)& (0+255),f,b
  8068  001D12                     
  8069                           ; BSR set to: 0
  8070  001D12  518F               	movf	(___flmul@a+1)& (0+255),w,b
  8071  001D14  038A               	mulwf	___flmul@b& (0+255),b
  8072  001D16  CFF3 F0A1          	movff	prodl,___flmul@temp
  8073  001D1A  CFF4 F0A2          	movff	prodh,___flmul@temp+1
  8074  001D1E                     
  8075                           ; BSR set to: 0
  8076  001D1E  51A1               	movf	___flmul@temp& (0+255),w,b
  8077  001D20  2798               	addwf	___flmul@grs& (0+255),f,b
  8078  001D22  51A2               	movf	(___flmul@temp+1)& (0+255),w,b
  8079  001D24  2399               	addwfc	(___flmul@grs+1)& (0+255),f,b
  8080  001D26  0E00               	movlw	0
  8081  001D28  239A               	addwfc	(___flmul@grs+2)& (0+255),f,b
  8082  001D2A  0E00               	movlw	0
  8083  001D2C  239B               	addwfc	(___flmul@grs+3)& (0+255),f,b
  8084  001D2E                     
  8085                           ; BSR set to: 0
  8086  001D2E  C09A  F09B         	movff	___flmul@grs+2,___flmul@grs+3
  8087  001D32  C099  F09A         	movff	___flmul@grs+1,___flmul@grs+2
  8088  001D36  C098  F099         	movff	___flmul@grs,___flmul@grs+1
  8089  001D3A  6B98               	clrf	___flmul@grs& (0+255),b
  8090  001D3C  518E               	movf	___flmul@a& (0+255),w,b
  8091  001D3E  038A               	mulwf	___flmul@b& (0+255),b
  8092  001D40  CFF3 F0A1          	movff	prodl,___flmul@temp
  8093  001D44  CFF4 F0A2          	movff	prodh,___flmul@temp+1
  8094  001D48                     
  8095                           ; BSR set to: 0
  8096  001D48  51A1               	movf	___flmul@temp& (0+255),w,b
  8097  001D4A  2798               	addwf	___flmul@grs& (0+255),f,b
  8098  001D4C  51A2               	movf	(___flmul@temp+1)& (0+255),w,b
  8099  001D4E  2399               	addwfc	(___flmul@grs+1)& (0+255),f,b
  8100  001D50  0E00               	movlw	0
  8101  001D52  239A               	addwfc	(___flmul@grs+2)& (0+255),f,b
  8102  001D54  0E00               	movlw	0
  8103  001D56  239B               	addwfc	(___flmul@grs+3)& (0+255),f,b
  8104  001D58                     
  8105                           ; BSR set to: 0
  8106  001D58  5190               	movf	(___flmul@a+2)& (0+255),w,b
  8107  001D5A  038B               	mulwf	(___flmul@b+1)& (0+255),b
  8108  001D5C  CFF3 F0A1          	movff	prodl,___flmul@temp
  8109  001D60  CFF4 F0A2          	movff	prodh,___flmul@temp+1
  8110  001D64  51A1               	movf	___flmul@temp& (0+255),w,b
  8111  001D66  279D               	addwf	___flmul@prod& (0+255),f,b
  8112  001D68  51A2               	movf	(___flmul@temp+1)& (0+255),w,b
  8113  001D6A  239E               	addwfc	(___flmul@prod+1)& (0+255),f,b
  8114  001D6C  0E00               	movlw	0
  8115  001D6E  239F               	addwfc	(___flmul@prod+2)& (0+255),f,b
  8116  001D70  0E00               	movlw	0
  8117  001D72  23A0               	addwfc	(___flmul@prod+3)& (0+255),f,b
  8118  001D74                     
  8119                           ; BSR set to: 0
  8120  001D74  518F               	movf	(___flmul@a+1)& (0+255),w,b
  8121  001D76  038C               	mulwf	(___flmul@b+2)& (0+255),b
  8122  001D78  CFF3 F0A1          	movff	prodl,___flmul@temp
  8123  001D7C  CFF4 F0A2          	movff	prodh,___flmul@temp+1
  8124  001D80                     
  8125                           ; BSR set to: 0
  8126  001D80  51A1               	movf	___flmul@temp& (0+255),w,b
  8127  001D82  279D               	addwf	___flmul@prod& (0+255),f,b
  8128  001D84  51A2               	movf	(___flmul@temp+1)& (0+255),w,b
  8129  001D86  239E               	addwfc	(___flmul@prod+1)& (0+255),f,b
  8130  001D88  0E00               	movlw	0
  8131  001D8A  239F               	addwfc	(___flmul@prod+2)& (0+255),f,b
  8132  001D8C  0E00               	movlw	0
  8133  001D8E  23A0               	addwfc	(___flmul@prod+3)& (0+255),f,b
  8134  001D90  5190               	movf	(___flmul@a+2)& (0+255),w,b
  8135  001D92  038C               	mulwf	(___flmul@b+2)& (0+255),b
  8136  001D94  CFF3 F0A1          	movff	prodl,___flmul@temp
  8137  001D98  CFF4 F0A2          	movff	prodh,___flmul@temp+1
  8138  001D9C                     
  8139                           ; BSR set to: 0
  8140  001D9C  51A1               	movf	___flmul@temp& (0+255),w,b
  8141  001D9E  6F92               	movwf	??___flmul& (0+255),b
  8142  001DA0  51A2               	movf	(___flmul@temp+1)& (0+255),w,b
  8143  001DA2  6F93               	movwf	(??___flmul+1)& (0+255),b
  8144  001DA4  6B94               	clrf	(??___flmul+2)& (0+255),b
  8145  001DA6  6B95               	clrf	(??___flmul+3)& (0+255),b
  8146  001DA8  C094  F095         	movff	??___flmul+2,??___flmul+3
  8147  001DAC  C093  F094         	movff	??___flmul+1,??___flmul+2
  8148  001DB0  C092  F093         	movff	??___flmul,??___flmul+1
  8149  001DB4  6B92               	clrf	??___flmul& (0+255),b
  8150  001DB6  5192               	movf	??___flmul& (0+255),w,b
  8151  001DB8  279D               	addwf	___flmul@prod& (0+255),f,b
  8152  001DBA  5193               	movf	(??___flmul+1)& (0+255),w,b
  8153  001DBC  239E               	addwfc	(___flmul@prod+1)& (0+255),f,b
  8154  001DBE  5194               	movf	(??___flmul+2)& (0+255),w,b
  8155  001DC0  239F               	addwfc	(___flmul@prod+2)& (0+255),f,b
  8156  001DC2  5195               	movf	(??___flmul+3)& (0+255),w,b
  8157  001DC4  23A0               	addwfc	(___flmul@prod+3)& (0+255),f,b
  8158  001DC6                     
  8159                           ; BSR set to: 0
  8160  001DC6  C098  F092         	movff	___flmul@grs,??___flmul
  8161  001DCA  C099  F093         	movff	___flmul@grs+1,??___flmul+1
  8162  001DCE  C09A  F094         	movff	___flmul@grs+2,??___flmul+2
  8163  001DD2  C09B  F095         	movff	___flmul@grs+3,??___flmul+3
  8164  001DD6  0E19               	movlw	25
  8165  001DD8  EFF3  F00E         	goto	u7200
  8166  001DDC                     u7205:
  8167  001DDC  90D8               	bcf	status,0,c
  8168  001DDE  3395               	rrcf	(??___flmul+3)& (0+255),f,b
  8169  001DE0  3394               	rrcf	(??___flmul+2)& (0+255),f,b
  8170  001DE2  3393               	rrcf	(??___flmul+1)& (0+255),f,b
  8171  001DE4  3392               	rrcf	??___flmul& (0+255),f,b
  8172  001DE6                     u7200:
  8173  001DE6  2EE8               	decfsz	wreg,f,c
  8174  001DE8  EFEE  F00E         	goto	u7205
  8175  001DEC  5192               	movf	??___flmul& (0+255),w,b
  8176  001DEE  279D               	addwf	___flmul@prod& (0+255),f,b
  8177  001DF0  5193               	movf	(??___flmul+1)& (0+255),w,b
  8178  001DF2  239E               	addwfc	(___flmul@prod+1)& (0+255),f,b
  8179  001DF4  5194               	movf	(??___flmul+2)& (0+255),w,b
  8180  001DF6  239F               	addwfc	(___flmul@prod+2)& (0+255),f,b
  8181  001DF8  5195               	movf	(??___flmul+3)& (0+255),w,b
  8182  001DFA  23A0               	addwfc	(___flmul@prod+3)& (0+255),f,b
  8183  001DFC                     
  8184                           ; BSR set to: 0
  8185  001DFC  C09A  F09B         	movff	___flmul@grs+2,___flmul@grs+3
  8186  001E00  C099  F09A         	movff	___flmul@grs+1,___flmul@grs+2
  8187  001E04  C098  F099         	movff	___flmul@grs,___flmul@grs+1
  8188  001E08  6B98               	clrf	___flmul@grs& (0+255),b
  8189  001E0A                     
  8190                           ; BSR set to: 0
  8191  001E0A  5197               	movf	___flmul@aexp& (0+255),w,b
  8192  001E0C  C09C  F092         	movff	___flmul@bexp,??___flmul
  8193  001E10  6B93               	clrf	(??___flmul+1)& (0+255),b
  8194  001E12  2792               	addwf	??___flmul& (0+255),f,b
  8195  001E14  0E00               	movlw	0
  8196  001E16  2393               	addwfc	(??___flmul+1)& (0+255),f,b
  8197  001E18  0E82               	movlw	130
  8198  001E1A  2592               	addwf	??___flmul& (0+255),w,b
  8199  001E1C  6FA1               	movwf	___flmul@temp& (0+255),b
  8200  001E1E  0EFF               	movlw	255
  8201  001E20  2193               	addwfc	(??___flmul+1)& (0+255),w,b
  8202  001E22  6FA2               	movwf	(___flmul@temp+1)& (0+255),b
  8203  001E24  EF29  F00F         	goto	l5546
  8204  001E28                     l5540:
  8205                           
  8206                           ; BSR set to: 0
  8207  001E28  90D8               	bcf	status,0,c
  8208  001E2A  379D               	rlcf	___flmul@prod& (0+255),f,b
  8209  001E2C  379E               	rlcf	(___flmul@prod+1)& (0+255),f,b
  8210  001E2E  379F               	rlcf	(___flmul@prod+2)& (0+255),f,b
  8211  001E30  37A0               	rlcf	(___flmul@prod+3)& (0+255),f,b
  8212  001E32                     
  8213                           ; BSR set to: 0
  8214  001E32  AF9B               	btfss	(___flmul@grs+3)& (0+255),7,b
  8215  001E34  EF1E  F00F         	goto	u7211
  8216  001E38  EF20  F00F         	goto	u7210
  8217  001E3C                     u7211:
  8218  001E3C  EF21  F00F         	goto	l787
  8219  001E40                     u7210:
  8220  001E40                     
  8221                           ; BSR set to: 0
  8222  001E40  819D               	bsf	___flmul@prod& (0+255),0,b
  8223  001E42                     l787:
  8224                           
  8225                           ; BSR set to: 0
  8226  001E42  90D8               	bcf	status,0,c
  8227  001E44  3798               	rlcf	___flmul@grs& (0+255),f,b
  8228  001E46  3799               	rlcf	(___flmul@grs+1)& (0+255),f,b
  8229  001E48  379A               	rlcf	(___flmul@grs+2)& (0+255),f,b
  8230  001E4A  379B               	rlcf	(___flmul@grs+3)& (0+255),f,b
  8231  001E4C  07A1               	decf	___flmul@temp& (0+255),f,b
  8232  001E4E  A0D8               	btfss	status,0,c
  8233  001E50  07A2               	decf	(___flmul@temp+1)& (0+255),f,b
  8234  001E52                     l5546:
  8235                           
  8236                           ; BSR set to: 0
  8237  001E52  AF9F               	btfss	(___flmul@prod+2)& (0+255),7,b
  8238  001E54  EF2E  F00F         	goto	u7221
  8239  001E58  EF30  F00F         	goto	u7220
  8240  001E5C                     u7221:
  8241  001E5C  EF14  F00F         	goto	l5540
  8242  001E60                     u7220:
  8243  001E60                     
  8244                           ; BSR set to: 0
  8245  001E60  0E00               	movlw	0
  8246  001E62  6F97               	movwf	___flmul@aexp& (0+255),b
  8247  001E64                     
  8248                           ; BSR set to: 0
  8249  001E64  AF9B               	btfss	(___flmul@grs+3)& (0+255),7,b
  8250  001E66  EF37  F00F         	goto	u7231
  8251  001E6A  EF39  F00F         	goto	u7230
  8252  001E6E                     u7231:
  8253  001E6E  EF5D  F00F         	goto	l789
  8254  001E72                     u7230:
  8255  001E72                     
  8256                           ; BSR set to: 0
  8257  001E72  0EFF               	movlw	255
  8258  001E74  1598               	andwf	___flmul@grs& (0+255),w,b
  8259  001E76  6F92               	movwf	??___flmul& (0+255),b
  8260  001E78  0EFF               	movlw	255
  8261  001E7A  1599               	andwf	(___flmul@grs+1)& (0+255),w,b
  8262  001E7C  6F93               	movwf	(??___flmul+1)& (0+255),b
  8263  001E7E  0EFF               	movlw	255
  8264  001E80  159A               	andwf	(___flmul@grs+2)& (0+255),w,b
  8265  001E82  6F94               	movwf	(??___flmul+2)& (0+255),b
  8266  001E84  0E7F               	movlw	127
  8267  001E86  159B               	andwf	(___flmul@grs+3)& (0+255),w,b
  8268  001E88  6F95               	movwf	(??___flmul+3)& (0+255),b
  8269  001E8A  5192               	movf	??___flmul& (0+255),w,b
  8270  001E8C  1193               	iorwf	(??___flmul+1)& (0+255),w,b
  8271  001E8E  1194               	iorwf	(??___flmul+2)& (0+255),w,b
  8272  001E90  1195               	iorwf	(??___flmul+3)& (0+255),w,b
  8273  001E92  B4D8               	btfsc	status,2,c
  8274  001E94  EF4E  F00F         	goto	u7241
  8275  001E98  EF50  F00F         	goto	u7240
  8276  001E9C                     u7241:
  8277  001E9C  EF54  F00F         	goto	l790
  8278  001EA0                     u7240:
  8279  001EA0                     l5554:
  8280                           
  8281                           ; BSR set to: 0
  8282  001EA0  0E01               	movlw	1
  8283  001EA2  6F97               	movwf	___flmul@aexp& (0+255),b
  8284  001EA4  EF5D  F00F         	goto	l789
  8285  001EA8                     l790:
  8286                           
  8287                           ; BSR set to: 0
  8288  001EA8  A19D               	btfss	___flmul@prod& (0+255),0,b
  8289  001EAA  EF59  F00F         	goto	u7251
  8290  001EAE  EF5B  F00F         	goto	u7250
  8291  001EB2                     u7251:
  8292  001EB2  EF5D  F00F         	goto	l789
  8293  001EB6                     u7250:
  8294  001EB6  EF50  F00F         	goto	l5554
  8295  001EBA                     l789:
  8296                           
  8297                           ; BSR set to: 0
  8298  001EBA  5197               	movf	___flmul@aexp& (0+255),w,b
  8299  001EBC  B4D8               	btfsc	status,2,c
  8300  001EBE  EF63  F00F         	goto	u7261
  8301  001EC2  EF65  F00F         	goto	u7260
  8302  001EC6                     u7261:
  8303  001EC6  EF89  F00F         	goto	l5566
  8304  001ECA                     u7260:
  8305  001ECA                     
  8306                           ; BSR set to: 0
  8307  001ECA  0E01               	movlw	1
  8308  001ECC  279D               	addwf	___flmul@prod& (0+255),f,b
  8309  001ECE  0E00               	movlw	0
  8310  001ED0  239E               	addwfc	(___flmul@prod+1)& (0+255),f,b
  8311  001ED2  239F               	addwfc	(___flmul@prod+2)& (0+255),f,b
  8312  001ED4  23A0               	addwfc	(___flmul@prod+3)& (0+255),f,b
  8313  001ED6                     
  8314                           ; BSR set to: 0
  8315  001ED6  A1A0               	btfss	(___flmul@prod+3)& (0+255),0,b
  8316  001ED8  EF70  F00F         	goto	u7271
  8317  001EDC  EF72  F00F         	goto	u7270
  8318  001EE0                     u7271:
  8319  001EE0  EF89  F00F         	goto	l5566
  8320  001EE4                     u7270:
  8321  001EE4                     
  8322                           ; BSR set to: 0
  8323  001EE4  C09D  F092         	movff	___flmul@prod,??___flmul
  8324  001EE8  C09E  F093         	movff	___flmul@prod+1,??___flmul+1
  8325  001EEC  C09F  F094         	movff	___flmul@prod+2,??___flmul+2
  8326  001EF0  C0A0  F095         	movff	___flmul@prod+3,??___flmul+3
  8327  001EF4  3595               	rlcf	(??___flmul+3)& (0+255),w,b
  8328  001EF6  3395               	rrcf	(??___flmul+3)& (0+255),f,b
  8329  001EF8  3394               	rrcf	(??___flmul+2)& (0+255),f,b
  8330  001EFA  3393               	rrcf	(??___flmul+1)& (0+255),f,b
  8331  001EFC  3392               	rrcf	??___flmul& (0+255),f,b
  8332  001EFE  C092  F09D         	movff	??___flmul,___flmul@prod
  8333  001F02  C093  F09E         	movff	??___flmul+1,___flmul@prod+1
  8334  001F06  C094  F09F         	movff	??___flmul+2,___flmul@prod+2
  8335  001F0A  C095  F0A0         	movff	??___flmul+3,___flmul@prod+3
  8336  001F0E                     
  8337                           ; BSR set to: 0
  8338  001F0E  4BA1               	infsnz	___flmul@temp& (0+255),f,b
  8339  001F10  2BA2               	incf	(___flmul@temp+1)& (0+255),f,b
  8340  001F12                     l5566:
  8341                           
  8342                           ; BSR set to: 0
  8343  001F12  BFA2               	btfsc	(___flmul@temp+1)& (0+255),7,b
  8344  001F14  EF94  F00F         	goto	u7281
  8345  001F18  51A2               	movf	(___flmul@temp+1)& (0+255),w,b
  8346  001F1A  E108               	bnz	u7280
  8347  001F1C  29A1               	incf	___flmul@temp& (0+255),w,b
  8348  001F1E  A0D8               	btfss	status,0,c
  8349  001F20  EF94  F00F         	goto	u7281
  8350  001F24  EF96  F00F         	goto	u7280
  8351  001F28                     u7281:
  8352  001F28  EFA0  F00F         	goto	l5570
  8353  001F2C                     u7280:
  8354  001F2C                     
  8355                           ; BSR set to: 0
  8356  001F2C  0E00               	movlw	0
  8357  001F2E  6F9D               	movwf	___flmul@prod& (0+255),b
  8358  001F30  0E00               	movlw	0
  8359  001F32  6F9E               	movwf	(___flmul@prod+1)& (0+255),b
  8360  001F34  0E80               	movlw	128
  8361  001F36  6F9F               	movwf	(___flmul@prod+2)& (0+255),b
  8362  001F38  0E7F               	movlw	127
  8363  001F3A  6FA0               	movwf	(___flmul@prod+3)& (0+255),b
  8364  001F3C  EFCE  F00F         	goto	l5582
  8365  001F40                     l5570:
  8366                           
  8367                           ; BSR set to: 0
  8368  001F40  BFA2               	btfsc	(___flmul@temp+1)& (0+255),7,b
  8369  001F42  EFAD  F00F         	goto	u7290
  8370  001F46  51A2               	movf	(___flmul@temp+1)& (0+255),w,b
  8371  001F48  E106               	bnz	u7291
  8372  001F4A  05A1               	decf	___flmul@temp& (0+255),w,b
  8373  001F4C  B0D8               	btfsc	status,0,c
  8374  001F4E  EFAB  F00F         	goto	u7291
  8375  001F52  EFAD  F00F         	goto	u7290
  8376  001F56                     u7291:
  8377  001F56  EFB9  F00F         	goto	l797
  8378  001F5A                     u7290:
  8379  001F5A                     
  8380                           ; BSR set to: 0
  8381  001F5A  0E00               	movlw	0
  8382  001F5C  6F9D               	movwf	___flmul@prod& (0+255),b
  8383  001F5E  0E00               	movlw	0
  8384  001F60  6F9E               	movwf	(___flmul@prod+1)& (0+255),b
  8385  001F62  0E00               	movlw	0
  8386  001F64  6F9F               	movwf	(___flmul@prod+2)& (0+255),b
  8387  001F66  0E00               	movlw	0
  8388  001F68  6FA0               	movwf	(___flmul@prod+3)& (0+255),b
  8389  001F6A  0E00               	movlw	0
  8390  001F6C  6F96               	movwf	___flmul@sign& (0+255),b
  8391  001F6E  EFCE  F00F         	goto	l5582
  8392  001F72                     l797:
  8393                           
  8394                           ; BSR set to: 0
  8395  001F72  C0A1  F09C         	movff	___flmul@temp,___flmul@bexp
  8396  001F76                     
  8397                           ; BSR set to: 0
  8398  001F76  0EFF               	movlw	255
  8399  001F78  179D               	andwf	___flmul@prod& (0+255),f,b
  8400  001F7A  0EFF               	movlw	255
  8401  001F7C  179E               	andwf	(___flmul@prod+1)& (0+255),f,b
  8402  001F7E  0E7F               	movlw	127
  8403  001F80  179F               	andwf	(___flmul@prod+2)& (0+255),f,b
  8404  001F82  0E00               	movlw	0
  8405  001F84  17A0               	andwf	(___flmul@prod+3)& (0+255),f,b
  8406  001F86                     
  8407                           ; BSR set to: 0
  8408  001F86  A19C               	btfss	___flmul@bexp& (0+255),0,b
  8409  001F88  EFC8  F00F         	goto	u7301
  8410  001F8C  EFCA  F00F         	goto	u7300
  8411  001F90                     u7301:
  8412  001F90  EFCB  F00F         	goto	l5580
  8413  001F94                     u7300:
  8414  001F94                     
  8415                           ; BSR set to: 0
  8416  001F94  8F9F               	bsf	(___flmul@prod+2)& (0+255),7,b
  8417  001F96                     l5580:
  8418                           
  8419                           ; BSR set to: 0
  8420  001F96  90D8               	bcf	status,0,c
  8421  001F98  319C               	rrcf	___flmul@bexp& (0+255),w,b
  8422  001F9A  6FA0               	movwf	(___flmul@prod+3)& (0+255),b
  8423  001F9C                     l5582:
  8424                           
  8425                           ; BSR set to: 0
  8426  001F9C  5196               	movf	___flmul@sign& (0+255),w,b
  8427  001F9E  13A0               	iorwf	(___flmul@prod+3)& (0+255),f,b
  8428  001FA0                     
  8429                           ; BSR set to: 0
  8430  001FA0  C09D  F08A         	movff	___flmul@prod,?___flmul
  8431  001FA4  C09E  F08B         	movff	___flmul@prod+1,?___flmul+1
  8432  001FA8  C09F  F08C         	movff	___flmul@prod+2,?___flmul+2
  8433  001FAC  C0A0  F08D         	movff	___flmul@prod+3,?___flmul+3
  8434  001FB0                     l784:
  8435                           
  8436                           ; BSR set to: 0
  8437  001FB0  0012               	return		;funcret
  8438  001FB2                     __end_of___flmul:
  8439                           	callstack 0
  8440                           
  8441 ;; *************** function ___flge *****************
  8442 ;; Defined at:
  8443 ;;		line 4 in file "C:\Program Files\Microchip\xc8\v2.36\pic\sources\c99\common\flge.c"
  8444 ;; Parameters:    Size  Location     Type
  8445 ;;  ff1             4   35[BANK0 ] unsigned char 
  8446 ;;  ff2             4   39[BANK0 ] unsigned char 
  8447 ;; Auto vars:     Size  Location     Type
  8448 ;;		None
  8449 ;; Return value:  Size  Location     Type
  8450 ;;		None               void
  8451 ;; Registers used:
  8452 ;;		wreg, status,2, status,0
  8453 ;; Tracked objects:
  8454 ;;		On entry : 0/0
  8455 ;;		On exit  : 0/0
  8456 ;;		Unchanged: 0/0
  8457 ;; Data sizes:     COMRAM   BANK0   BANK1   BANK2   BANK3   BANK4   BANK5
  8458 ;;      Params:         0       8       0       0       0       0       0
  8459 ;;      Locals:         0       0       0       0       0       0       0
  8460 ;;      Temps:          0       4       0       0       0       0       0
  8461 ;;      Totals:         0      12       0       0       0       0       0
  8462 ;;Total ram usage:       12 bytes
  8463 ;; Hardware stack levels used: 1
  8464 ;; Hardware stack levels required when called: 5
  8465 ;; This function calls:
  8466 ;;		Nothing
  8467 ;; This function is called by:
  8468 ;;		_control_HIGH
  8469 ;;		_control_LOW
  8470 ;;		_efgtoa
  8471 ;; This function uses a non-reentrant model
  8472 ;;
  8473                           
  8474                           	psect	text32
  8475  0037F4                     __ptext32:
  8476                           	callstack 0
  8477  0037F4                     ___flge:
  8478                           	callstack 24
  8479  0037F4  0E00               	movlw	0
  8480  0037F6  0100               	movlb	0	; () banked
  8481  0037F8  15A3               	andwf	___flge@ff1& (0+255),w,b
  8482  0037FA  6FAB               	movwf	??___flge& (0+255),b
  8483  0037FC  0E00               	movlw	0
  8484  0037FE  15A4               	andwf	(___flge@ff1+1)& (0+255),w,b
  8485  003800  6FAC               	movwf	(??___flge+1)& (0+255),b
  8486  003802  0E80               	movlw	128
  8487  003804  15A5               	andwf	(___flge@ff1+2)& (0+255),w,b
  8488  003806  6FAD               	movwf	(??___flge+2)& (0+255),b
  8489  003808  0E7F               	movlw	127
  8490  00380A  15A6               	andwf	(___flge@ff1+3)& (0+255),w,b
  8491  00380C  6FAE               	movwf	(??___flge+3)& (0+255),b
  8492  00380E  51AB               	movf	??___flge& (0+255),w,b
  8493  003810  11AC               	iorwf	(??___flge+1)& (0+255),w,b
  8494  003812  11AD               	iorwf	(??___flge+2)& (0+255),w,b
  8495  003814  11AE               	iorwf	(??___flge+3)& (0+255),w,b
  8496  003816  A4D8               	btfss	status,2,c
  8497  003818  EF10  F01C         	goto	u7461
  8498  00381C  EF12  F01C         	goto	u7460
  8499  003820                     u7461:
  8500  003820  EF1A  F01C         	goto	l5694
  8501  003824                     u7460:
  8502  003824                     
  8503                           ; BSR set to: 0
  8504  003824  0E00               	movlw	0
  8505  003826  6FA3               	movwf	___flge@ff1& (0+255),b
  8506  003828  0E00               	movlw	0
  8507  00382A  6FA4               	movwf	(___flge@ff1+1)& (0+255),b
  8508  00382C  0E00               	movlw	0
  8509  00382E  6FA5               	movwf	(___flge@ff1+2)& (0+255),b
  8510  003830  0E00               	movlw	0
  8511  003832  6FA6               	movwf	(___flge@ff1+3)& (0+255),b
  8512  003834                     l5694:
  8513                           
  8514                           ; BSR set to: 0
  8515  003834  0E00               	movlw	0
  8516  003836  15A7               	andwf	___flge@ff2& (0+255),w,b
  8517  003838  6FAB               	movwf	??___flge& (0+255),b
  8518  00383A  0E00               	movlw	0
  8519  00383C  15A8               	andwf	(___flge@ff2+1)& (0+255),w,b
  8520  00383E  6FAC               	movwf	(??___flge+1)& (0+255),b
  8521  003840  0E80               	movlw	128
  8522  003842  15A9               	andwf	(___flge@ff2+2)& (0+255),w,b
  8523  003844  6FAD               	movwf	(??___flge+2)& (0+255),b
  8524  003846  0E7F               	movlw	127
  8525  003848  15AA               	andwf	(___flge@ff2+3)& (0+255),w,b
  8526  00384A  6FAE               	movwf	(??___flge+3)& (0+255),b
  8527  00384C  51AB               	movf	??___flge& (0+255),w,b
  8528  00384E  11AC               	iorwf	(??___flge+1)& (0+255),w,b
  8529  003850  11AD               	iorwf	(??___flge+2)& (0+255),w,b
  8530  003852  11AE               	iorwf	(??___flge+3)& (0+255),w,b
  8531  003854  A4D8               	btfss	status,2,c
  8532  003856  EF2F  F01C         	goto	u7471
  8533  00385A  EF31  F01C         	goto	u7470
  8534  00385E                     u7471:
  8535  00385E  EF39  F01C         	goto	l5698
  8536  003862                     u7470:
  8537  003862                     
  8538                           ; BSR set to: 0
  8539  003862  0E00               	movlw	0
  8540  003864  6FA7               	movwf	___flge@ff2& (0+255),b
  8541  003866  0E00               	movlw	0
  8542  003868  6FA8               	movwf	(___flge@ff2+1)& (0+255),b
  8543  00386A  0E00               	movlw	0
  8544  00386C  6FA9               	movwf	(___flge@ff2+2)& (0+255),b
  8545  00386E  0E00               	movlw	0
  8546  003870  6FAA               	movwf	(___flge@ff2+3)& (0+255),b
  8547  003872                     l5698:
  8548                           
  8549                           ; BSR set to: 0
  8550  003872  AFA6               	btfss	(___flge@ff1+3)& (0+255),7,b
  8551  003874  EF3E  F01C         	goto	u7481
  8552  003878  EF40  F01C         	goto	u7480
  8553  00387C                     u7481:
  8554  00387C  EF49  F01C         	goto	l5702
  8555  003880                     u7480:
  8556  003880                     
  8557                           ; BSR set to: 0
  8558  003880  6DA3               	negf	___flge@ff1& (0+255),b
  8559  003882  1FA4               	comf	(___flge@ff1+1)& (0+255),f,b
  8560  003884  B0D8               	btfsc	status,0,c
  8561  003886  2BA4               	incf	(___flge@ff1+1)& (0+255),f,b
  8562  003888  1FA5               	comf	(___flge@ff1+2)& (0+255),f,b
  8563  00388A  B0D8               	btfsc	status,0,c
  8564  00388C  2BA5               	incf	(___flge@ff1+2)& (0+255),f,b
  8565  00388E  0E80               	movlw	128
  8566  003890  57A6               	subfwb	(___flge@ff1+3)& (0+255),f,b
  8567  003892                     l5702:
  8568                           
  8569                           ; BSR set to: 0
  8570  003892  AFAA               	btfss	(___flge@ff2+3)& (0+255),7,b
  8571  003894  EF4E  F01C         	goto	u7491
  8572  003898  EF50  F01C         	goto	u7490
  8573  00389C                     u7491:
  8574  00389C  EF59  F01C         	goto	l431
  8575  0038A0                     u7490:
  8576  0038A0                     
  8577                           ; BSR set to: 0
  8578  0038A0  6DA7               	negf	___flge@ff2& (0+255),b
  8579  0038A2  1FA8               	comf	(___flge@ff2+1)& (0+255),f,b
  8580  0038A4  B0D8               	btfsc	status,0,c
  8581  0038A6  2BA8               	incf	(___flge@ff2+1)& (0+255),f,b
  8582  0038A8  1FA9               	comf	(___flge@ff2+2)& (0+255),f,b
  8583  0038AA  B0D8               	btfsc	status,0,c
  8584  0038AC  2BA9               	incf	(___flge@ff2+2)& (0+255),f,b
  8585  0038AE  0E80               	movlw	128
  8586  0038B0  57AA               	subfwb	(___flge@ff2+3)& (0+255),f,b
  8587  0038B2                     l431:
  8588                           
  8589                           ; BSR set to: 0
  8590  0038B2  0E00               	movlw	0
  8591  0038B4  1BA3               	xorwf	___flge@ff1& (0+255),f,b
  8592  0038B6  0E00               	movlw	0
  8593  0038B8  1BA4               	xorwf	(___flge@ff1+1)& (0+255),f,b
  8594  0038BA  0E00               	movlw	0
  8595  0038BC  1BA5               	xorwf	(___flge@ff1+2)& (0+255),f,b
  8596  0038BE  0E80               	movlw	128
  8597  0038C0  1BA6               	xorwf	(___flge@ff1+3)& (0+255),f,b
  8598  0038C2  0E00               	movlw	0
  8599  0038C4  1BA7               	xorwf	___flge@ff2& (0+255),f,b
  8600  0038C6  0E00               	movlw	0
  8601  0038C8  1BA8               	xorwf	(___flge@ff2+1)& (0+255),f,b
  8602  0038CA  0E00               	movlw	0
  8603  0038CC  1BA9               	xorwf	(___flge@ff2+2)& (0+255),f,b
  8604  0038CE  0E80               	movlw	128
  8605  0038D0  1BAA               	xorwf	(___flge@ff2+3)& (0+255),f,b
  8606  0038D2  51A7               	movf	___flge@ff2& (0+255),w,b
  8607  0038D4  5DA3               	subwf	___flge@ff1& (0+255),w,b
  8608  0038D6  51A8               	movf	(___flge@ff2+1)& (0+255),w,b
  8609  0038D8  59A4               	subwfb	(___flge@ff1+1)& (0+255),w,b
  8610  0038DA  51A9               	movf	(___flge@ff2+2)& (0+255),w,b
  8611  0038DC  59A5               	subwfb	(___flge@ff1+2)& (0+255),w,b
  8612  0038DE  51AA               	movf	(___flge@ff2+3)& (0+255),w,b
  8613  0038E0  59A6               	subwfb	(___flge@ff1+3)& (0+255),w,b
  8614  0038E2  B0D8               	btfsc	status,0,c
  8615  0038E4  EF76  F01C         	goto	u7501
  8616  0038E8  EF78  F01C         	goto	u7500
  8617  0038EC                     u7501:
  8618  0038EC  EF7B  F01C         	goto	l5708
  8619  0038F0                     u7500:
  8620  0038F0                     
  8621                           ; BSR set to: 0
  8622  0038F0  90D8               	bcf	status,0,c
  8623  0038F2  EF7C  F01C         	goto	l436
  8624  0038F6                     l5708:
  8625                           
  8626                           ; BSR set to: 0
  8627  0038F6  80D8               	bsf	status,0,c
  8628  0038F8                     l436:
  8629                           
  8630                           ; BSR set to: 0
  8631  0038F8  0012               	return		;funcret
  8632  0038FA                     __end_of___flge:
  8633                           	callstack 0
  8634                           
  8635 ;; *************** function ___fleq *****************
  8636 ;; Defined at:
  8637 ;;		line 4 in file "C:\Program Files\Microchip\xc8\v2.36\pic\sources\c99\common\fleq.c"
  8638 ;; Parameters:    Size  Location     Type
  8639 ;;  ff1             4    0[BANK0 ] unsigned char 
  8640 ;;  ff2             4    4[BANK0 ] unsigned char 
  8641 ;; Auto vars:     Size  Location     Type
  8642 ;;		None
  8643 ;; Return value:  Size  Location     Type
  8644 ;;		None               void
  8645 ;; Registers used:
  8646 ;;		wreg, status,2, status,0
  8647 ;; Tracked objects:
  8648 ;;		On entry : 0/0
  8649 ;;		On exit  : 0/0
  8650 ;;		Unchanged: 0/0
  8651 ;; Data sizes:     COMRAM   BANK0   BANK1   BANK2   BANK3   BANK4   BANK5
  8652 ;;      Params:         0       8       0       0       0       0       0
  8653 ;;      Locals:         0       0       0       0       0       0       0
  8654 ;;      Temps:          4       0       0       0       0       0       0
  8655 ;;      Totals:         4       8       0       0       0       0       0
  8656 ;;Total ram usage:       12 bytes
  8657 ;; Hardware stack levels used: 1
  8658 ;; Hardware stack levels required when called: 5
  8659 ;; This function calls:
  8660 ;;		Nothing
  8661 ;; This function is called by:
  8662 ;;		_control_HIGH
  8663 ;;		_control_LOW
  8664 ;;		_efgtoa
  8665 ;; This function uses a non-reentrant model
  8666 ;;
  8667                           
  8668                           	psect	text33
  8669  0041A6                     __ptext33:
  8670                           	callstack 0
  8671  0041A6                     ___fleq:
  8672                           	callstack 24
  8673  0041A6  0E00               	movlw	0
  8674  0041A8  0100               	movlb	0	; () banked
  8675  0041AA  1580               	andwf	___fleq@ff1& (0+255),w,b
  8676  0041AC  6E32               	movwf	??___fleq^0,c
  8677  0041AE  0E00               	movlw	0
  8678  0041B0  1581               	andwf	(___fleq@ff1+1)& (0+255),w,b
  8679  0041B2  6E33               	movwf	(??___fleq+1)^0,c
  8680  0041B4  0E80               	movlw	128
  8681  0041B6  1582               	andwf	(___fleq@ff1+2)& (0+255),w,b
  8682  0041B8  6E34               	movwf	(??___fleq+2)^0,c
  8683  0041BA  0E7F               	movlw	127
  8684  0041BC  1583               	andwf	(___fleq@ff1+3)& (0+255),w,b
  8685  0041BE  6E35               	movwf	(??___fleq+3)^0,c
  8686  0041C0  5032               	movf	??___fleq^0,w,c
  8687  0041C2  1033               	iorwf	(??___fleq+1)^0,w,c
  8688  0041C4  1034               	iorwf	(??___fleq+2)^0,w,c
  8689  0041C6  1035               	iorwf	(??___fleq+3)^0,w,c
  8690  0041C8  A4D8               	btfss	status,2,c
  8691  0041CA  EFE9  F020         	goto	u7431
  8692  0041CE  EFEB  F020         	goto	u7430
  8693  0041D2                     u7431:
  8694  0041D2  EFF3  F020         	goto	l5678
  8695  0041D6                     u7430:
  8696  0041D6                     
  8697                           ; BSR set to: 0
  8698  0041D6  0E00               	movlw	0
  8699  0041D8  6F80               	movwf	___fleq@ff1& (0+255),b
  8700  0041DA  0E00               	movlw	0
  8701  0041DC  6F81               	movwf	(___fleq@ff1+1)& (0+255),b
  8702  0041DE  0E00               	movlw	0
  8703  0041E0  6F82               	movwf	(___fleq@ff1+2)& (0+255),b
  8704  0041E2  0E00               	movlw	0
  8705  0041E4  6F83               	movwf	(___fleq@ff1+3)& (0+255),b
  8706  0041E6                     l5678:
  8707                           
  8708                           ; BSR set to: 0
  8709  0041E6  0E00               	movlw	0
  8710  0041E8  1584               	andwf	___fleq@ff2& (0+255),w,b
  8711  0041EA  6E32               	movwf	??___fleq^0,c
  8712  0041EC  0E00               	movlw	0
  8713  0041EE  1585               	andwf	(___fleq@ff2+1)& (0+255),w,b
  8714  0041F0  6E33               	movwf	(??___fleq+1)^0,c
  8715  0041F2  0E80               	movlw	128
  8716  0041F4  1586               	andwf	(___fleq@ff2+2)& (0+255),w,b
  8717  0041F6  6E34               	movwf	(??___fleq+2)^0,c
  8718  0041F8  0E7F               	movlw	127
  8719  0041FA  1587               	andwf	(___fleq@ff2+3)& (0+255),w,b
  8720  0041FC  6E35               	movwf	(??___fleq+3)^0,c
  8721  0041FE  5032               	movf	??___fleq^0,w,c
  8722  004200  1033               	iorwf	(??___fleq+1)^0,w,c
  8723  004202  1034               	iorwf	(??___fleq+2)^0,w,c
  8724  004204  1035               	iorwf	(??___fleq+3)^0,w,c
  8725  004206  A4D8               	btfss	status,2,c
  8726  004208  EF08  F021         	goto	u7441
  8727  00420C  EF0A  F021         	goto	u7440
  8728  004210                     u7441:
  8729  004210  EF12  F021         	goto	l5682
  8730  004214                     u7440:
  8731  004214                     
  8732                           ; BSR set to: 0
  8733  004214  0E00               	movlw	0
  8734  004216  6F84               	movwf	___fleq@ff2& (0+255),b
  8735  004218  0E00               	movlw	0
  8736  00421A  6F85               	movwf	(___fleq@ff2+1)& (0+255),b
  8737  00421C  0E00               	movlw	0
  8738  00421E  6F86               	movwf	(___fleq@ff2+2)& (0+255),b
  8739  004220  0E00               	movlw	0
  8740  004222  6F87               	movwf	(___fleq@ff2+3)& (0+255),b
  8741  004224                     l5682:
  8742                           
  8743                           ; BSR set to: 0
  8744  004224  5184               	movf	___fleq@ff2& (0+255),w,b
  8745  004226  1980               	xorwf	___fleq@ff1& (0+255),w,b
  8746  004228  E10F               	bnz	u7450
  8747  00422A  5185               	movf	(___fleq@ff2+1)& (0+255),w,b
  8748  00422C  1981               	xorwf	(___fleq@ff1+1)& (0+255),w,b
  8749  00422E  E10C               	bnz	u7450
  8750  004230  5186               	movf	(___fleq@ff2+2)& (0+255),w,b
  8751  004232  1982               	xorwf	(___fleq@ff1+2)& (0+255),w,b
  8752  004234  E109               	bnz	u7450
  8753  004236  5187               	movf	(___fleq@ff2+3)& (0+255),w,b
  8754  004238  1983               	xorwf	(___fleq@ff1+3)& (0+255),w,b
  8755  00423A  B4D8               	btfsc	status,2,c
  8756  00423C  EF22  F021         	goto	u7451
  8757  004240  EF24  F021         	goto	u7450
  8758  004244                     u7451:
  8759  004244  EF27  F021         	goto	l5686
  8760  004248                     u7450:
  8761  004248                     
  8762                           ; BSR set to: 0
  8763  004248  90D8               	bcf	status,0,c
  8764  00424A  EF28  F021         	goto	l425
  8765  00424E                     l5686:
  8766                           
  8767                           ; BSR set to: 0
  8768  00424E  80D8               	bsf	status,0,c
  8769  004250                     l425:
  8770                           
  8771                           ; BSR set to: 0
  8772  004250  0012               	return		;funcret
  8773  004252                     __end_of___fleq:
  8774                           	callstack 0
  8775                           
  8776 ;; *************** function ___fldiv *****************
  8777 ;; Defined at:
  8778 ;;		line 11 in file "C:\Program Files\Microchip\xc8\v2.36\pic\sources\c99\common\sprcdiv.c"
  8779 ;; Parameters:    Size  Location     Type
  8780 ;;  b               4    0[BANK0 ] unsigned char 
  8781 ;;  a               4    4[BANK0 ] unsigned char 
  8782 ;; Auto vars:     Size  Location     Type
  8783 ;;  grs             4   15[BANK0 ] unsigned long 
  8784 ;;  rem             4    8[BANK0 ] unsigned long 
  8785 ;;  new_exp         2   13[BANK0 ] short 
  8786 ;;  aexp            1   20[BANK0 ] unsigned char 
  8787 ;;  bexp            1   19[BANK0 ] unsigned char 
  8788 ;;  sign            1   12[BANK0 ] unsigned char 
  8789 ;; Return value:  Size  Location     Type
  8790 ;;                  4    0[BANK0 ] unsigned char 
  8791 ;; Registers used:
  8792 ;;		wreg, status,2, status,0
  8793 ;; Tracked objects:
  8794 ;;		On entry : 0/0
  8795 ;;		On exit  : 0/0
  8796 ;;		Unchanged: 0/0
  8797 ;; Data sizes:     COMRAM   BANK0   BANK1   BANK2   BANK3   BANK4   BANK5
  8798 ;;      Params:         0       8       0       0       0       0       0
  8799 ;;      Locals:         0      13       0       0       0       0       0
  8800 ;;      Temps:          4       0       0       0       0       0       0
  8801 ;;      Totals:         4      21       0       0       0       0       0
  8802 ;;Total ram usage:       25 bytes
  8803 ;; Hardware stack levels used: 1
  8804 ;; Hardware stack levels required when called: 5
  8805 ;; This function calls:
  8806 ;;		Nothing
  8807 ;; This function is called by:
  8808 ;;		_equation_SENSOR
  8809 ;;		_efgtoa
  8810 ;; This function uses a non-reentrant model
  8811 ;;
  8812                           
  8813                           	psect	text34
  8814  0023DC                     __ptext34:
  8815                           	callstack 0
  8816  0023DC                     ___fldiv:
  8817                           	callstack 24
  8818  0023DC  0100               	movlb	0	; () banked
  8819  0023DE  5183               	movf	(___fldiv@b+3)& (0+255),w,b
  8820  0023E0  0B80               	andlw	128
  8821  0023E2  6F8C               	movwf	___fldiv@sign& (0+255),b
  8822  0023E4  5183               	movf	(___fldiv@b+3)& (0+255),w,b
  8823  0023E6  2583               	addwf	(___fldiv@b+3)& (0+255),w,b
  8824  0023E8  6F93               	movwf	___fldiv@bexp& (0+255),b
  8825  0023EA                     
  8826                           ; BSR set to: 0
  8827  0023EA  AF82               	btfss	(___fldiv@b+2)& (0+255),7,b
  8828  0023EC  EFFA  F011         	goto	u6891
  8829  0023F0  EFFC  F011         	goto	u6890
  8830  0023F4                     u6891:
  8831  0023F4  EFFD  F011         	goto	l5326
  8832  0023F8                     u6890:
  8833  0023F8                     
  8834                           ; BSR set to: 0
  8835  0023F8  8193               	bsf	___fldiv@bexp& (0+255),0,b
  8836  0023FA                     l5326:
  8837                           
  8838                           ; BSR set to: 0
  8839  0023FA  5193               	movf	___fldiv@bexp& (0+255),w,b
  8840  0023FC  B4D8               	btfsc	status,2,c
  8841  0023FE  EF03  F012         	goto	u6901
  8842  002402  EF05  F012         	goto	u6900
  8843  002406                     u6901:
  8844  002406  EF1A  F012         	goto	l5336
  8845  00240A                     u6900:
  8846  00240A                     
  8847                           ; BSR set to: 0
  8848  00240A  2993               	incf	___fldiv@bexp& (0+255),w,b
  8849  00240C  A4D8               	btfss	status,2,c
  8850  00240E  EF0B  F012         	goto	u6911
  8851  002412  EF0D  F012         	goto	u6910
  8852  002416                     u6911:
  8853  002416  EF15  F012         	goto	l5332
  8854  00241A                     u6910:
  8855  00241A                     
  8856                           ; BSR set to: 0
  8857  00241A  0E00               	movlw	0
  8858  00241C  6F80               	movwf	___fldiv@b& (0+255),b
  8859  00241E  0E00               	movlw	0
  8860  002420  6F81               	movwf	(___fldiv@b+1)& (0+255),b
  8861  002422  0E00               	movlw	0
  8862  002424  6F82               	movwf	(___fldiv@b+2)& (0+255),b
  8863  002426  0E00               	movlw	0
  8864  002428  6F83               	movwf	(___fldiv@b+3)& (0+255),b
  8865  00242A                     l5332:
  8866                           
  8867                           ; BSR set to: 0
  8868  00242A  8F82               	bsf	(___fldiv@b+2)& (0+255),7,b
  8869  00242C                     
  8870                           ; BSR set to: 0
  8871  00242C  0E00               	movlw	0
  8872  00242E  6F83               	movwf	(___fldiv@b+3)& (0+255),b
  8873  002430  EF22  F012         	goto	l5338
  8874  002434                     l5336:
  8875                           
  8876                           ; BSR set to: 0
  8877  002434  0E00               	movlw	0
  8878  002436  6F80               	movwf	___fldiv@b& (0+255),b
  8879  002438  0E00               	movlw	0
  8880  00243A  6F81               	movwf	(___fldiv@b+1)& (0+255),b
  8881  00243C  0E00               	movlw	0
  8882  00243E  6F82               	movwf	(___fldiv@b+2)& (0+255),b
  8883  002440  0E00               	movlw	0
  8884  002442  6F83               	movwf	(___fldiv@b+3)& (0+255),b
  8885  002444                     l5338:
  8886                           
  8887                           ; BSR set to: 0
  8888  002444  5187               	movf	(___fldiv@a+3)& (0+255),w,b
  8889  002446  0B80               	andlw	128
  8890  002448  1B8C               	xorwf	___fldiv@sign& (0+255),f,b
  8891  00244A                     
  8892                           ; BSR set to: 0
  8893  00244A  5187               	movf	(___fldiv@a+3)& (0+255),w,b
  8894  00244C  2587               	addwf	(___fldiv@a+3)& (0+255),w,b
  8895  00244E  6F94               	movwf	___fldiv@aexp& (0+255),b
  8896  002450                     
  8897                           ; BSR set to: 0
  8898  002450  AF86               	btfss	(___fldiv@a+2)& (0+255),7,b
  8899  002452  EF2D  F012         	goto	u6921
  8900  002456  EF2F  F012         	goto	u6920
  8901  00245A                     u6921:
  8902  00245A  EF30  F012         	goto	l5346
  8903  00245E                     u6920:
  8904  00245E                     
  8905                           ; BSR set to: 0
  8906  00245E  8194               	bsf	___fldiv@aexp& (0+255),0,b
  8907  002460                     l5346:
  8908                           
  8909                           ; BSR set to: 0
  8910  002460  5194               	movf	___fldiv@aexp& (0+255),w,b
  8911  002462  B4D8               	btfsc	status,2,c
  8912  002464  EF36  F012         	goto	u6931
  8913  002468  EF38  F012         	goto	u6930
  8914  00246C                     u6931:
  8915  00246C  EF4D  F012         	goto	l5356
  8916  002470                     u6930:
  8917  002470                     
  8918                           ; BSR set to: 0
  8919  002470  2994               	incf	___fldiv@aexp& (0+255),w,b
  8920  002472  A4D8               	btfss	status,2,c
  8921  002474  EF3E  F012         	goto	u6941
  8922  002478  EF40  F012         	goto	u6940
  8923  00247C                     u6941:
  8924  00247C  EF48  F012         	goto	l5352
  8925  002480                     u6940:
  8926  002480                     
  8927                           ; BSR set to: 0
  8928  002480  0E00               	movlw	0
  8929  002482  6F84               	movwf	___fldiv@a& (0+255),b
  8930  002484  0E00               	movlw	0
  8931  002486  6F85               	movwf	(___fldiv@a+1)& (0+255),b
  8932  002488  0E00               	movlw	0
  8933  00248A  6F86               	movwf	(___fldiv@a+2)& (0+255),b
  8934  00248C  0E00               	movlw	0
  8935  00248E  6F87               	movwf	(___fldiv@a+3)& (0+255),b
  8936  002490                     l5352:
  8937                           
  8938                           ; BSR set to: 0
  8939  002490  8F86               	bsf	(___fldiv@a+2)& (0+255),7,b
  8940  002492                     
  8941                           ; BSR set to: 0
  8942  002492  0E00               	movlw	0
  8943  002494  6F87               	movwf	(___fldiv@a+3)& (0+255),b
  8944  002496  EF55  F012         	goto	l5358
  8945  00249A                     l5356:
  8946                           
  8947                           ; BSR set to: 0
  8948  00249A  0E00               	movlw	0
  8949  00249C  6F84               	movwf	___fldiv@a& (0+255),b
  8950  00249E  0E00               	movlw	0
  8951  0024A0  6F85               	movwf	(___fldiv@a+1)& (0+255),b
  8952  0024A2  0E00               	movlw	0
  8953  0024A4  6F86               	movwf	(___fldiv@a+2)& (0+255),b
  8954  0024A6  0E00               	movlw	0
  8955  0024A8  6F87               	movwf	(___fldiv@a+3)& (0+255),b
  8956  0024AA                     l5358:
  8957                           
  8958                           ; BSR set to: 0
  8959  0024AA  5184               	movf	___fldiv@a& (0+255),w,b
  8960  0024AC  1185               	iorwf	(___fldiv@a+1)& (0+255),w,b
  8961  0024AE  1186               	iorwf	(___fldiv@a+2)& (0+255),w,b
  8962  0024B0  1187               	iorwf	(___fldiv@a+3)& (0+255),w,b
  8963  0024B2  A4D8               	btfss	status,2,c
  8964  0024B4  EF5E  F012         	goto	u6951
  8965  0024B8  EF60  F012         	goto	u6950
  8966  0024BC                     u6951:
  8967  0024BC  EF78  F012         	goto	l5370
  8968  0024C0                     u6950:
  8969  0024C0                     
  8970                           ; BSR set to: 0
  8971  0024C0  0E00               	movlw	0
  8972  0024C2  6F80               	movwf	___fldiv@b& (0+255),b
  8973  0024C4  0E00               	movlw	0
  8974  0024C6  6F81               	movwf	(___fldiv@b+1)& (0+255),b
  8975  0024C8  0E00               	movlw	0
  8976  0024CA  6F82               	movwf	(___fldiv@b+2)& (0+255),b
  8977  0024CC  0E00               	movlw	0
  8978  0024CE  6F83               	movwf	(___fldiv@b+3)& (0+255),b
  8979  0024D0                     
  8980                           ; BSR set to: 0
  8981  0024D0  0E80               	movlw	128
  8982  0024D2  1382               	iorwf	(___fldiv@b+2)& (0+255),f,b
  8983  0024D4  0E7F               	movlw	127
  8984  0024D6  1383               	iorwf	(___fldiv@b+3)& (0+255),f,b
  8985  0024D8                     l5364:
  8986                           
  8987                           ; BSR set to: 0
  8988  0024D8  518C               	movf	___fldiv@sign& (0+255),w,b
  8989  0024DA  1383               	iorwf	(___fldiv@b+3)& (0+255),f,b
  8990  0024DC                     
  8991                           ; BSR set to: 0
  8992  0024DC  C080  F080         	movff	___fldiv@b,?___fldiv
  8993  0024E0  C081  F081         	movff	___fldiv@b+1,?___fldiv+1
  8994  0024E4  C082  F082         	movff	___fldiv@b+2,?___fldiv+2
  8995  0024E8  C083  F083         	movff	___fldiv@b+3,?___fldiv+3
  8996  0024EC  EFBB  F013         	goto	l748
  8997  0024F0                     l5370:
  8998                           
  8999                           ; BSR set to: 0
  9000  0024F0  5193               	movf	___fldiv@bexp& (0+255),w,b
  9001  0024F2  A4D8               	btfss	status,2,c
  9002  0024F4  EF7E  F012         	goto	u6961
  9003  0024F8  EF80  F012         	goto	u6960
  9004  0024FC                     u6961:
  9005  0024FC  EF8A  F012         	goto	l5378
  9006  002500                     u6960:
  9007  002500                     
  9008                           ; BSR set to: 0
  9009  002500  0E00               	movlw	0
  9010  002502  6F80               	movwf	?___fldiv& (0+255),b
  9011  002504  0E00               	movlw	0
  9012  002506  6F81               	movwf	(?___fldiv+1)& (0+255),b
  9013  002508  0E00               	movlw	0
  9014  00250A  6F82               	movwf	(?___fldiv+2)& (0+255),b
  9015  00250C  0E00               	movlw	0
  9016  00250E  6F83               	movwf	(?___fldiv+3)& (0+255),b
  9017  002510  EFBB  F013         	goto	l748
  9018  002514                     l5378:
  9019                           
  9020                           ; BSR set to: 0
  9021  002514  5194               	movf	___fldiv@aexp& (0+255),w,b
  9022  002516  C093  F032         	movff	___fldiv@bexp,??___fldiv
  9023  00251A  6A33               	clrf	(??___fldiv+1)^0,c
  9024  00251C  5E32               	subwf	??___fldiv^0,f,c
  9025  00251E  0E00               	movlw	0
  9026  002520  5A33               	subwfb	(??___fldiv+1)^0,f,c
  9027  002522  0E7F               	movlw	127
  9028  002524  2432               	addwf	??___fldiv^0,w,c
  9029  002526  6F8D               	movwf	___fldiv@new_exp& (0+255),b
  9030  002528  0E00               	movlw	0
  9031  00252A  2033               	addwfc	(??___fldiv+1)^0,w,c
  9032  00252C  6F8E               	movwf	(___fldiv@new_exp+1)& (0+255),b
  9033  00252E                     
  9034                           ; BSR set to: 0
  9035  00252E  C080  F088         	movff	___fldiv@b,___fldiv@rem
  9036  002532  C081  F089         	movff	___fldiv@b+1,___fldiv@rem+1
  9037  002536  C082  F08A         	movff	___fldiv@b+2,___fldiv@rem+2
  9038  00253A  C083  F08B         	movff	___fldiv@b+3,___fldiv@rem+3
  9039  00253E                     
  9040                           ; BSR set to: 0
  9041  00253E  0E00               	movlw	0
  9042  002540  6F80               	movwf	___fldiv@b& (0+255),b
  9043  002542  0E00               	movlw	0
  9044  002544  6F81               	movwf	(___fldiv@b+1)& (0+255),b
  9045  002546  0E00               	movlw	0
  9046  002548  6F82               	movwf	(___fldiv@b+2)& (0+255),b
  9047  00254A  0E00               	movlw	0
  9048  00254C  6F83               	movwf	(___fldiv@b+3)& (0+255),b
  9049  00254E                     
  9050                           ; BSR set to: 0
  9051  00254E  0E00               	movlw	0
  9052  002550  6F8F               	movwf	___fldiv@grs& (0+255),b
  9053  002552  0E00               	movlw	0
  9054  002554  6F90               	movwf	(___fldiv@grs+1)& (0+255),b
  9055  002556  0E00               	movlw	0
  9056  002558  6F91               	movwf	(___fldiv@grs+2)& (0+255),b
  9057  00255A  0E00               	movlw	0
  9058  00255C  6F92               	movwf	(___fldiv@grs+3)& (0+255),b
  9059  00255E                     
  9060                           ; BSR set to: 0
  9061  00255E  0E00               	movlw	0
  9062  002560  6F94               	movwf	___fldiv@aexp& (0+255),b
  9063  002562  EFEB  F012         	goto	l750
  9064  002566                     l5388:
  9065                           
  9066                           ; BSR set to: 0
  9067  002566  5194               	movf	___fldiv@aexp& (0+255),w,b
  9068  002568  B4D8               	btfsc	status,2,c
  9069  00256A  EFB9  F012         	goto	u6971
  9070  00256E  EFBB  F012         	goto	u6970
  9071  002572                     u6971:
  9072  002572  EFD2  F012         	goto	l5396
  9073  002576                     u6970:
  9074  002576                     
  9075                           ; BSR set to: 0
  9076  002576  90D8               	bcf	status,0,c
  9077  002578  3788               	rlcf	___fldiv@rem& (0+255),f,b
  9078  00257A  3789               	rlcf	(___fldiv@rem+1)& (0+255),f,b
  9079  00257C  378A               	rlcf	(___fldiv@rem+2)& (0+255),f,b
  9080  00257E  378B               	rlcf	(___fldiv@rem+3)& (0+255),f,b
  9081  002580  90D8               	bcf	status,0,c
  9082  002582  3780               	rlcf	___fldiv@b& (0+255),f,b
  9083  002584  3781               	rlcf	(___fldiv@b+1)& (0+255),f,b
  9084  002586  3782               	rlcf	(___fldiv@b+2)& (0+255),f,b
  9085  002588  3783               	rlcf	(___fldiv@b+3)& (0+255),f,b
  9086  00258A                     
  9087                           ; BSR set to: 0
  9088  00258A  AF92               	btfss	(___fldiv@grs+3)& (0+255),7,b
  9089  00258C  EFCA  F012         	goto	u6981
  9090  002590  EFCC  F012         	goto	u6980
  9091  002594                     u6981:
  9092  002594  EFCD  F012         	goto	l753
  9093  002598                     u6980:
  9094  002598                     
  9095                           ; BSR set to: 0
  9096  002598  8180               	bsf	___fldiv@b& (0+255),0,b
  9097  00259A                     l753:
  9098                           
  9099                           ; BSR set to: 0
  9100  00259A  90D8               	bcf	status,0,c
  9101  00259C  378F               	rlcf	___fldiv@grs& (0+255),f,b
  9102  00259E  3790               	rlcf	(___fldiv@grs+1)& (0+255),f,b
  9103  0025A0  3791               	rlcf	(___fldiv@grs+2)& (0+255),f,b
  9104  0025A2  3792               	rlcf	(___fldiv@grs+3)& (0+255),f,b
  9105  0025A4                     l5396:
  9106                           
  9107                           ; BSR set to: 0
  9108  0025A4  5184               	movf	___fldiv@a& (0+255),w,b
  9109  0025A6  5D88               	subwf	___fldiv@rem& (0+255),w,b
  9110  0025A8  5185               	movf	(___fldiv@a+1)& (0+255),w,b
  9111  0025AA  5989               	subwfb	(___fldiv@rem+1)& (0+255),w,b
  9112  0025AC  5186               	movf	(___fldiv@a+2)& (0+255),w,b
  9113  0025AE  598A               	subwfb	(___fldiv@rem+2)& (0+255),w,b
  9114  0025B0  5187               	movf	(___fldiv@a+3)& (0+255),w,b
  9115  0025B2  598B               	subwfb	(___fldiv@rem+3)& (0+255),w,b
  9116  0025B4  A0D8               	btfss	status,0,c
  9117  0025B6  EFDF  F012         	goto	u6991
  9118  0025BA  EFE1  F012         	goto	u6990
  9119  0025BE                     u6991:
  9120  0025BE  EFEA  F012         	goto	l5402
  9121  0025C2                     u6990:
  9122  0025C2                     
  9123                           ; BSR set to: 0
  9124  0025C2  8D92               	bsf	(___fldiv@grs+3)& (0+255),6,b
  9125  0025C4                     
  9126                           ; BSR set to: 0
  9127  0025C4  5184               	movf	___fldiv@a& (0+255),w,b
  9128  0025C6  5F88               	subwf	___fldiv@rem& (0+255),f,b
  9129  0025C8  5185               	movf	(___fldiv@a+1)& (0+255),w,b
  9130  0025CA  5B89               	subwfb	(___fldiv@rem+1)& (0+255),f,b
  9131  0025CC  5186               	movf	(___fldiv@a+2)& (0+255),w,b
  9132  0025CE  5B8A               	subwfb	(___fldiv@rem+2)& (0+255),f,b
  9133  0025D0  5187               	movf	(___fldiv@a+3)& (0+255),w,b
  9134  0025D2  5B8B               	subwfb	(___fldiv@rem+3)& (0+255),f,b
  9135  0025D4                     l5402:
  9136                           
  9137                           ; BSR set to: 0
  9138  0025D4  2B94               	incf	___fldiv@aexp& (0+255),f,b
  9139  0025D6                     l750:
  9140                           
  9141                           ; BSR set to: 0
  9142  0025D6  0E19               	movlw	25
  9143  0025D8  6594               	cpfsgt	___fldiv@aexp& (0+255),b
  9144  0025DA  EFF1  F012         	goto	u7001
  9145  0025DE  EFF3  F012         	goto	u7000
  9146  0025E2                     u7001:
  9147  0025E2  EFB3  F012         	goto	l5388
  9148  0025E6                     u7000:
  9149  0025E6                     
  9150                           ; BSR set to: 0
  9151  0025E6  5188               	movf	___fldiv@rem& (0+255),w,b
  9152  0025E8  1189               	iorwf	(___fldiv@rem+1)& (0+255),w,b
  9153  0025EA  118A               	iorwf	(___fldiv@rem+2)& (0+255),w,b
  9154  0025EC  118B               	iorwf	(___fldiv@rem+3)& (0+255),w,b
  9155  0025EE  B4D8               	btfsc	status,2,c
  9156  0025F0  EFFC  F012         	goto	u7011
  9157  0025F4  EFFE  F012         	goto	u7010
  9158  0025F8                     u7011:
  9159  0025F8  EF16  F013         	goto	l5414
  9160  0025FC                     u7010:
  9161  0025FC                     
  9162                           ; BSR set to: 0
  9163  0025FC  818F               	bsf	___fldiv@grs& (0+255),0,b
  9164  0025FE  EF16  F013         	goto	l5414
  9165  002602                     l5408:
  9166                           
  9167                           ; BSR set to: 0
  9168  002602  90D8               	bcf	status,0,c
  9169  002604  3780               	rlcf	___fldiv@b& (0+255),f,b
  9170  002606  3781               	rlcf	(___fldiv@b+1)& (0+255),f,b
  9171  002608  3782               	rlcf	(___fldiv@b+2)& (0+255),f,b
  9172  00260A  3783               	rlcf	(___fldiv@b+3)& (0+255),f,b
  9173  00260C                     
  9174                           ; BSR set to: 0
  9175  00260C  AF92               	btfss	(___fldiv@grs+3)& (0+255),7,b
  9176  00260E  EF0B  F013         	goto	u7021
  9177  002612  EF0D  F013         	goto	u7020
  9178  002616                     u7021:
  9179  002616  EF0E  F013         	goto	l759
  9180  00261A                     u7020:
  9181  00261A                     
  9182                           ; BSR set to: 0
  9183  00261A  8180               	bsf	___fldiv@b& (0+255),0,b
  9184  00261C                     l759:
  9185                           
  9186                           ; BSR set to: 0
  9187  00261C  90D8               	bcf	status,0,c
  9188  00261E  378F               	rlcf	___fldiv@grs& (0+255),f,b
  9189  002620  3790               	rlcf	(___fldiv@grs+1)& (0+255),f,b
  9190  002622  3791               	rlcf	(___fldiv@grs+2)& (0+255),f,b
  9191  002624  3792               	rlcf	(___fldiv@grs+3)& (0+255),f,b
  9192  002626  078D               	decf	___fldiv@new_exp& (0+255),f,b
  9193  002628  A0D8               	btfss	status,0,c
  9194  00262A  078E               	decf	(___fldiv@new_exp+1)& (0+255),f,b
  9195  00262C                     l5414:
  9196                           
  9197                           ; BSR set to: 0
  9198  00262C  AF82               	btfss	(___fldiv@b+2)& (0+255),7,b
  9199  00262E  EF1B  F013         	goto	u7031
  9200  002632  EF1D  F013         	goto	u7030
  9201  002636                     u7031:
  9202  002636  EF01  F013         	goto	l5408
  9203  00263A                     u7030:
  9204  00263A                     
  9205                           ; BSR set to: 0
  9206  00263A  0E00               	movlw	0
  9207  00263C  6F94               	movwf	___fldiv@aexp& (0+255),b
  9208  00263E                     
  9209                           ; BSR set to: 0
  9210  00263E  AF92               	btfss	(___fldiv@grs+3)& (0+255),7,b
  9211  002640  EF24  F013         	goto	u7041
  9212  002644  EF26  F013         	goto	u7040
  9213  002648                     u7041:
  9214  002648  EF4A  F013         	goto	l761
  9215  00264C                     u7040:
  9216  00264C                     
  9217                           ; BSR set to: 0
  9218  00264C  0EFF               	movlw	255
  9219  00264E  158F               	andwf	___fldiv@grs& (0+255),w,b
  9220  002650  6E32               	movwf	??___fldiv^0,c
  9221  002652  0EFF               	movlw	255
  9222  002654  1590               	andwf	(___fldiv@grs+1)& (0+255),w,b
  9223  002656  6E33               	movwf	(??___fldiv+1)^0,c
  9224  002658  0EFF               	movlw	255
  9225  00265A  1591               	andwf	(___fldiv@grs+2)& (0+255),w,b
  9226  00265C  6E34               	movwf	(??___fldiv+2)^0,c
  9227  00265E  0E7F               	movlw	127
  9228  002660  1592               	andwf	(___fldiv@grs+3)& (0+255),w,b
  9229  002662  6E35               	movwf	(??___fldiv+3)^0,c
  9230  002664  5032               	movf	??___fldiv^0,w,c
  9231  002666  1033               	iorwf	(??___fldiv+1)^0,w,c
  9232  002668  1034               	iorwf	(??___fldiv+2)^0,w,c
  9233  00266A  1035               	iorwf	(??___fldiv+3)^0,w,c
  9234  00266C  B4D8               	btfsc	status,2,c
  9235  00266E  EF3B  F013         	goto	u7051
  9236  002672  EF3D  F013         	goto	u7050
  9237  002676                     u7051:
  9238  002676  EF41  F013         	goto	l762
  9239  00267A                     u7050:
  9240  00267A                     l5422:
  9241                           
  9242                           ; BSR set to: 0
  9243  00267A  0E01               	movlw	1
  9244  00267C  6F94               	movwf	___fldiv@aexp& (0+255),b
  9245  00267E  EF4A  F013         	goto	l761
  9246  002682                     l762:
  9247                           
  9248                           ; BSR set to: 0
  9249  002682  A180               	btfss	___fldiv@b& (0+255),0,b
  9250  002684  EF46  F013         	goto	u7061
  9251  002688  EF48  F013         	goto	u7060
  9252  00268C                     u7061:
  9253  00268C  EF4A  F013         	goto	l761
  9254  002690                     u7060:
  9255  002690  EF3D  F013         	goto	l5422
  9256  002694                     l761:
  9257                           
  9258                           ; BSR set to: 0
  9259  002694  5194               	movf	___fldiv@aexp& (0+255),w,b
  9260  002696  B4D8               	btfsc	status,2,c
  9261  002698  EF50  F013         	goto	u7071
  9262  00269C  EF52  F013         	goto	u7070
  9263  0026A0                     u7071:
  9264  0026A0  EF76  F013         	goto	l5434
  9265  0026A4                     u7070:
  9266  0026A4                     
  9267                           ; BSR set to: 0
  9268  0026A4  0E01               	movlw	1
  9269  0026A6  2780               	addwf	___fldiv@b& (0+255),f,b
  9270  0026A8  0E00               	movlw	0
  9271  0026AA  2381               	addwfc	(___fldiv@b+1)& (0+255),f,b
  9272  0026AC  2382               	addwfc	(___fldiv@b+2)& (0+255),f,b
  9273  0026AE  2383               	addwfc	(___fldiv@b+3)& (0+255),f,b
  9274  0026B0                     
  9275                           ; BSR set to: 0
  9276  0026B0  A183               	btfss	(___fldiv@b+3)& (0+255),0,b
  9277  0026B2  EF5D  F013         	goto	u7081
  9278  0026B6  EF5F  F013         	goto	u7080
  9279  0026BA                     u7081:
  9280  0026BA  EF76  F013         	goto	l5434
  9281  0026BE                     u7080:
  9282  0026BE                     
  9283                           ; BSR set to: 0
  9284  0026BE  C080  F032         	movff	___fldiv@b,??___fldiv
  9285  0026C2  C081  F033         	movff	___fldiv@b+1,??___fldiv+1
  9286  0026C6  C082  F034         	movff	___fldiv@b+2,??___fldiv+2
  9287  0026CA  C083  F035         	movff	___fldiv@b+3,??___fldiv+3
  9288  0026CE  3435               	rlcf	(??___fldiv+3)^0,w,c
  9289  0026D0  3235               	rrcf	(??___fldiv+3)^0,f,c
  9290  0026D2  3234               	rrcf	(??___fldiv+2)^0,f,c
  9291  0026D4  3233               	rrcf	(??___fldiv+1)^0,f,c
  9292  0026D6  3232               	rrcf	??___fldiv^0,f,c
  9293  0026D8  C032  F080         	movff	??___fldiv,___fldiv@b
  9294  0026DC  C033  F081         	movff	??___fldiv+1,___fldiv@b+1
  9295  0026E0  C034  F082         	movff	??___fldiv+2,___fldiv@b+2
  9296  0026E4  C035  F083         	movff	??___fldiv+3,___fldiv@b+3
  9297  0026E8                     
  9298                           ; BSR set to: 0
  9299  0026E8  4B8D               	infsnz	___fldiv@new_exp& (0+255),f,b
  9300  0026EA  2B8E               	incf	(___fldiv@new_exp+1)& (0+255),f,b
  9301  0026EC                     l5434:
  9302                           
  9303                           ; BSR set to: 0
  9304  0026EC  BF8E               	btfsc	(___fldiv@new_exp+1)& (0+255),7,b
  9305  0026EE  EF81  F013         	goto	u7091
  9306  0026F2  518E               	movf	(___fldiv@new_exp+1)& (0+255),w,b
  9307  0026F4  E108               	bnz	u7090
  9308  0026F6  298D               	incf	___fldiv@new_exp& (0+255),w,b
  9309  0026F8  A0D8               	btfss	status,0,c
  9310  0026FA  EF81  F013         	goto	u7091
  9311  0026FE  EF83  F013         	goto	u7090
  9312  002702                     u7091:
  9313  002702  EF8E  F013         	goto	l5438
  9314  002706                     u7090:
  9315  002706                     
  9316                           ; BSR set to: 0
  9317  002706  0E00               	movlw	0
  9318  002708  6F8E               	movwf	(___fldiv@new_exp+1)& (0+255),b
  9319  00270A  698D               	setf	___fldiv@new_exp& (0+255),b
  9320  00270C  0E00               	movlw	0
  9321  00270E  6F80               	movwf	___fldiv@b& (0+255),b
  9322  002710  0E00               	movlw	0
  9323  002712  6F81               	movwf	(___fldiv@b+1)& (0+255),b
  9324  002714  0E00               	movlw	0
  9325  002716  6F82               	movwf	(___fldiv@b+2)& (0+255),b
  9326  002718  0E00               	movlw	0
  9327  00271A  6F83               	movwf	(___fldiv@b+3)& (0+255),b
  9328  00271C                     l5438:
  9329                           
  9330                           ; BSR set to: 0
  9331  00271C  BF8E               	btfsc	(___fldiv@new_exp+1)& (0+255),7,b
  9332  00271E  EF9B  F013         	goto	u7100
  9333  002722  518E               	movf	(___fldiv@new_exp+1)& (0+255),w,b
  9334  002724  E106               	bnz	u7101
  9335  002726  058D               	decf	___fldiv@new_exp& (0+255),w,b
  9336  002728  B0D8               	btfsc	status,0,c
  9337  00272A  EF99  F013         	goto	u7101
  9338  00272E  EF9B  F013         	goto	u7100
  9339  002732                     u7101:
  9340  002732  EFA9  F013         	goto	l5442
  9341  002736                     u7100:
  9342  002736                     
  9343                           ; BSR set to: 0
  9344  002736  0E00               	movlw	0
  9345  002738  6F8E               	movwf	(___fldiv@new_exp+1)& (0+255),b
  9346  00273A  0E00               	movlw	0
  9347  00273C  6F8D               	movwf	___fldiv@new_exp& (0+255),b
  9348  00273E  0E00               	movlw	0
  9349  002740  6F80               	movwf	___fldiv@b& (0+255),b
  9350  002742  0E00               	movlw	0
  9351  002744  6F81               	movwf	(___fldiv@b+1)& (0+255),b
  9352  002746  0E00               	movlw	0
  9353  002748  6F82               	movwf	(___fldiv@b+2)& (0+255),b
  9354  00274A  0E00               	movlw	0
  9355  00274C  6F83               	movwf	(___fldiv@b+3)& (0+255),b
  9356  00274E  0E00               	movlw	0
  9357  002750  6F8C               	movwf	___fldiv@sign& (0+255),b
  9358  002752                     l5442:
  9359                           
  9360                           ; BSR set to: 0
  9361  002752  C08D  F093         	movff	___fldiv@new_exp,___fldiv@bexp
  9362  002756                     
  9363                           ; BSR set to: 0
  9364  002756  A193               	btfss	___fldiv@bexp& (0+255),0,b
  9365  002758  EFB0  F013         	goto	u7111
  9366  00275C  EFB2  F013         	goto	u7110
  9367  002760                     u7111:
  9368  002760  EFB5  F013         	goto	l5448
  9369  002764                     u7110:
  9370  002764                     
  9371                           ; BSR set to: 0
  9372  002764  8F82               	bsf	(___fldiv@b+2)& (0+255),7,b
  9373  002766  EFB6  F013         	goto	l5450
  9374  00276A                     l5448:
  9375                           
  9376                           ; BSR set to: 0
  9377  00276A  9F82               	bcf	(___fldiv@b+2)& (0+255),7,b
  9378  00276C                     l5450:
  9379                           
  9380                           ; BSR set to: 0
  9381  00276C  90D8               	bcf	status,0,c
  9382  00276E  3193               	rrcf	___fldiv@bexp& (0+255),w,b
  9383  002770  6F83               	movwf	(___fldiv@b+3)& (0+255),b
  9384  002772  EF6C  F012         	goto	l5364
  9385  002776                     l748:
  9386                           
  9387                           ; BSR set to: 0
  9388  002776  0012               	return		;funcret
  9389  002778                     __end_of___fldiv:
  9390                           	callstack 0
  9391                           
  9392 ;; *************** function ___awmod *****************
  9393 ;; Defined at:
  9394 ;;		line 7 in file "C:\Program Files\Microchip\xc8\v2.36\pic\sources\c99\common\awmod.c"
  9395 ;; Parameters:    Size  Location     Type
  9396 ;;  dividend        2   49[COMRAM] int 
  9397 ;;  divisor         2   51[COMRAM] int 
  9398 ;; Auto vars:     Size  Location     Type
  9399 ;;  sign            1   54[COMRAM] unsigned char 
  9400 ;;  counter         1   53[COMRAM] unsigned char 
  9401 ;; Return value:  Size  Location     Type
  9402 ;;                  2   49[COMRAM] int 
  9403 ;; Registers used:
  9404 ;;		wreg, status,2, status,0
  9405 ;; Tracked objects:
  9406 ;;		On entry : 0/0
  9407 ;;		On exit  : 0/0
  9408 ;;		Unchanged: 0/0
  9409 ;; Data sizes:     COMRAM   BANK0   BANK1   BANK2   BANK3   BANK4   BANK5
  9410 ;;      Params:         4       0       0       0       0       0       0
  9411 ;;      Locals:         2       0       0       0       0       0       0
  9412 ;;      Temps:          0       0       0       0       0       0       0
  9413 ;;      Totals:         6       0       0       0       0       0       0
  9414 ;;Total ram usage:        6 bytes
  9415 ;; Hardware stack levels used: 1
  9416 ;; Hardware stack levels required when called: 5
  9417 ;; This function calls:
  9418 ;;		Nothing
  9419 ;; This function is called by:
  9420 ;;		_efgtoa
  9421 ;; This function uses a non-reentrant model
  9422 ;;
  9423                           
  9424                           	psect	text35
  9425  0040F6                     __ptext35:
  9426                           	callstack 0
  9427  0040F6                     ___awmod:
  9428                           	callstack 20
  9429  0040F6  0E00               	movlw	0
  9430  0040F8  6E37               	movwf	___awmod@sign^0,c
  9431  0040FA  BE33               	btfsc	(___awmod@dividend+1)^0,7,c
  9432  0040FC  EF84  F020         	goto	u7370
  9433  004100  EF82  F020         	goto	u7371
  9434  004104                     u7371:
  9435  004104  EF8A  F020         	goto	l5646
  9436  004108                     u7370:
  9437  004108  6C32               	negf	___awmod@dividend^0,c
  9438  00410A  1E33               	comf	(___awmod@dividend+1)^0,f,c
  9439  00410C  B0D8               	btfsc	status,0,c
  9440  00410E  2A33               	incf	(___awmod@dividend+1)^0,f,c
  9441  004110  0E01               	movlw	1
  9442  004112  6E37               	movwf	___awmod@sign^0,c
  9443  004114                     l5646:
  9444  004114  BE35               	btfsc	(___awmod@divisor+1)^0,7,c
  9445  004116  EF91  F020         	goto	u7380
  9446  00411A  EF8F  F020         	goto	u7381
  9447  00411E                     u7381:
  9448  00411E  EF95  F020         	goto	l5650
  9449  004122                     u7380:
  9450  004122  6C34               	negf	___awmod@divisor^0,c
  9451  004124  1E35               	comf	(___awmod@divisor+1)^0,f,c
  9452  004126  B0D8               	btfsc	status,0,c
  9453  004128  2A35               	incf	(___awmod@divisor+1)^0,f,c
  9454  00412A                     l5650:
  9455  00412A  5034               	movf	___awmod@divisor^0,w,c
  9456  00412C  1035               	iorwf	(___awmod@divisor+1)^0,w,c
  9457  00412E  B4D8               	btfsc	status,2,c
  9458  004130  EF9C  F020         	goto	u7391
  9459  004134  EF9E  F020         	goto	u7390
  9460  004138                     u7391:
  9461  004138  EFC2  F020         	goto	l5666
  9462  00413C                     u7390:
  9463  00413C  0E01               	movlw	1
  9464  00413E  6E36               	movwf	___awmod@counter^0,c
  9465  004140  EFA6  F020         	goto	l5656
  9466  004144                     l5654:
  9467  004144  90D8               	bcf	status,0,c
  9468  004146  3634               	rlcf	___awmod@divisor^0,f,c
  9469  004148  3635               	rlcf	(___awmod@divisor+1)^0,f,c
  9470  00414A  2A36               	incf	___awmod@counter^0,f,c
  9471  00414C                     l5656:
  9472  00414C  AE35               	btfss	(___awmod@divisor+1)^0,7,c
  9473  00414E  EFAB  F020         	goto	u7401
  9474  004152  EFAD  F020         	goto	u7400
  9475  004156                     u7401:
  9476  004156  EFA2  F020         	goto	l5654
  9477  00415A                     u7400:
  9478  00415A                     l5658:
  9479  00415A  5034               	movf	___awmod@divisor^0,w,c
  9480  00415C  5C32               	subwf	___awmod@dividend^0,w,c
  9481  00415E  5035               	movf	(___awmod@divisor+1)^0,w,c
  9482  004160  5833               	subwfb	(___awmod@dividend+1)^0,w,c
  9483  004162  A0D8               	btfss	status,0,c
  9484  004164  EFB6  F020         	goto	u7411
  9485  004168  EFB8  F020         	goto	u7410
  9486  00416C                     u7411:
  9487  00416C  EFBC  F020         	goto	l5662
  9488  004170                     u7410:
  9489  004170  5034               	movf	___awmod@divisor^0,w,c
  9490  004172  5E32               	subwf	___awmod@dividend^0,f,c
  9491  004174  5035               	movf	(___awmod@divisor+1)^0,w,c
  9492  004176  5A33               	subwfb	(___awmod@dividend+1)^0,f,c
  9493  004178                     l5662:
  9494  004178  90D8               	bcf	status,0,c
  9495  00417A  3235               	rrcf	(___awmod@divisor+1)^0,f,c
  9496  00417C  3234               	rrcf	___awmod@divisor^0,f,c
  9497  00417E  2E36               	decfsz	___awmod@counter^0,f,c
  9498  004180  EFAD  F020         	goto	l5658
  9499  004184                     l5666:
  9500  004184  5037               	movf	___awmod@sign^0,w,c
  9501  004186  B4D8               	btfsc	status,2,c
  9502  004188  EFC8  F020         	goto	u7421
  9503  00418C  EFCA  F020         	goto	u7420
  9504  004190                     u7421:
  9505  004190  EFCE  F020         	goto	l5670
  9506  004194                     u7420:
  9507  004194  6C32               	negf	___awmod@dividend^0,c
  9508  004196  1E33               	comf	(___awmod@dividend+1)^0,f,c
  9509  004198  B0D8               	btfsc	status,0,c
  9510  00419A  2A33               	incf	(___awmod@dividend+1)^0,f,c
  9511  00419C                     l5670:
  9512  00419C  C032  F032         	movff	___awmod@dividend,?___awmod
  9513  0041A0  C033  F033         	movff	___awmod@dividend+1,?___awmod+1
  9514  0041A4  0012               	return		;funcret
  9515  0041A6                     __end_of___awmod:
  9516                           	callstack 0
  9517                           
  9518 ;; *************** function ___awdiv *****************
  9519 ;; Defined at:
  9520 ;;		line 7 in file "C:\Program Files\Microchip\xc8\v2.36\pic\sources\c99\common\awdiv.c"
  9521 ;; Parameters:    Size  Location     Type
  9522 ;;  dividend        2   49[COMRAM] int 
  9523 ;;  divisor         2   51[COMRAM] int 
  9524 ;; Auto vars:     Size  Location     Type
  9525 ;;  quotient        2    2[BANK0 ] int 
  9526 ;;  sign            1    1[BANK0 ] unsigned char 
  9527 ;;  counter         1    0[BANK0 ] unsigned char 
  9528 ;; Return value:  Size  Location     Type
  9529 ;;                  2   49[COMRAM] int 
  9530 ;; Registers used:
  9531 ;;		wreg, status,2, status,0
  9532 ;; Tracked objects:
  9533 ;;		On entry : 0/0
  9534 ;;		On exit  : 0/0
  9535 ;;		Unchanged: 0/0
  9536 ;; Data sizes:     COMRAM   BANK0   BANK1   BANK2   BANK3   BANK4   BANK5
  9537 ;;      Params:         4       0       0       0       0       0       0
  9538 ;;      Locals:         0       4       0       0       0       0       0
  9539 ;;      Temps:          0       0       0       0       0       0       0
  9540 ;;      Totals:         4       4       0       0       0       0       0
  9541 ;;Total ram usage:        8 bytes
  9542 ;; Hardware stack levels used: 1
  9543 ;; Hardware stack levels required when called: 5
  9544 ;; This function calls:
  9545 ;;		Nothing
  9546 ;; This function is called by:
  9547 ;;		_efgtoa
  9548 ;; This function uses a non-reentrant model
  9549 ;;
  9550                           
  9551                           	psect	text36
  9552  004030                     __ptext36:
  9553                           	callstack 0
  9554  004030                     ___awdiv:
  9555                           	callstack 20
  9556  004030  0E00               	movlw	0
  9557  004032  0100               	movlb	0	; () banked
  9558  004034  6F81               	movwf	___awdiv@sign& (0+255),b
  9559  004036                     
  9560                           ; BSR set to: 0
  9561  004036  BE35               	btfsc	(___awdiv@divisor+1)^0,7,c
  9562  004038  EF22  F020         	goto	u7310
  9563  00403C  EF20  F020         	goto	u7311
  9564  004040                     u7311:
  9565  004040  EF28  F020         	goto	l5602
  9566  004044                     u7310:
  9567  004044                     
  9568                           ; BSR set to: 0
  9569  004044  6C34               	negf	___awdiv@divisor^0,c
  9570  004046  1E35               	comf	(___awdiv@divisor+1)^0,f,c
  9571  004048  B0D8               	btfsc	status,0,c
  9572  00404A  2A35               	incf	(___awdiv@divisor+1)^0,f,c
  9573  00404C                     
  9574                           ; BSR set to: 0
  9575  00404C  0E01               	movlw	1
  9576  00404E  6F81               	movwf	___awdiv@sign& (0+255),b
  9577  004050                     l5602:
  9578                           
  9579                           ; BSR set to: 0
  9580  004050  BE33               	btfsc	(___awdiv@dividend+1)^0,7,c
  9581  004052  EF2F  F020         	goto	u7320
  9582  004056  EF2D  F020         	goto	u7321
  9583  00405A                     u7321:
  9584  00405A  EF35  F020         	goto	l5608
  9585  00405E                     u7320:
  9586  00405E                     
  9587                           ; BSR set to: 0
  9588  00405E  6C32               	negf	___awdiv@dividend^0,c
  9589  004060  1E33               	comf	(___awdiv@dividend+1)^0,f,c
  9590  004062  B0D8               	btfsc	status,0,c
  9591  004064  2A33               	incf	(___awdiv@dividend+1)^0,f,c
  9592  004066                     
  9593                           ; BSR set to: 0
  9594  004066  0E01               	movlw	1
  9595  004068  1B81               	xorwf	___awdiv@sign& (0+255),f,b
  9596  00406A                     l5608:
  9597                           
  9598                           ; BSR set to: 0
  9599  00406A  0E00               	movlw	0
  9600  00406C  6F83               	movwf	(___awdiv@quotient+1)& (0+255),b
  9601  00406E  0E00               	movlw	0
  9602  004070  6F82               	movwf	___awdiv@quotient& (0+255),b
  9603  004072                     
  9604                           ; BSR set to: 0
  9605  004072  5034               	movf	___awdiv@divisor^0,w,c
  9606  004074  1035               	iorwf	(___awdiv@divisor+1)^0,w,c
  9607  004076  B4D8               	btfsc	status,2,c
  9608  004078  EF40  F020         	goto	u7331
  9609  00407C  EF42  F020         	goto	u7330
  9610  004080                     u7331:
  9611  004080  EF6A  F020         	goto	l5630
  9612  004084                     u7330:
  9613  004084                     
  9614                           ; BSR set to: 0
  9615  004084  0E01               	movlw	1
  9616  004086  6F80               	movwf	___awdiv@counter& (0+255),b
  9617  004088  EF4A  F020         	goto	l5616
  9618  00408C                     l5614:
  9619                           
  9620                           ; BSR set to: 0
  9621  00408C  90D8               	bcf	status,0,c
  9622  00408E  3634               	rlcf	___awdiv@divisor^0,f,c
  9623  004090  3635               	rlcf	(___awdiv@divisor+1)^0,f,c
  9624  004092  2B80               	incf	___awdiv@counter& (0+255),f,b
  9625  004094                     l5616:
  9626                           
  9627                           ; BSR set to: 0
  9628  004094  AE35               	btfss	(___awdiv@divisor+1)^0,7,c
  9629  004096  EF4F  F020         	goto	u7341
  9630  00409A  EF51  F020         	goto	u7340
  9631  00409E                     u7341:
  9632  00409E  EF46  F020         	goto	l5614
  9633  0040A2                     u7340:
  9634  0040A2                     l5618:
  9635                           
  9636                           ; BSR set to: 0
  9637  0040A2  90D8               	bcf	status,0,c
  9638  0040A4  3782               	rlcf	___awdiv@quotient& (0+255),f,b
  9639  0040A6  3783               	rlcf	(___awdiv@quotient+1)& (0+255),f,b
  9640  0040A8                     
  9641                           ; BSR set to: 0
  9642  0040A8  5034               	movf	___awdiv@divisor^0,w,c
  9643  0040AA  5C32               	subwf	___awdiv@dividend^0,w,c
  9644  0040AC  5035               	movf	(___awdiv@divisor+1)^0,w,c
  9645  0040AE  5833               	subwfb	(___awdiv@dividend+1)^0,w,c
  9646  0040B0  A0D8               	btfss	status,0,c
  9647  0040B2  EF5D  F020         	goto	u7351
  9648  0040B6  EF5F  F020         	goto	u7350
  9649  0040BA                     u7351:
  9650  0040BA  EF64  F020         	goto	l5626
  9651  0040BE                     u7350:
  9652  0040BE                     
  9653                           ; BSR set to: 0
  9654  0040BE  5034               	movf	___awdiv@divisor^0,w,c
  9655  0040C0  5E32               	subwf	___awdiv@dividend^0,f,c
  9656  0040C2  5035               	movf	(___awdiv@divisor+1)^0,w,c
  9657  0040C4  5A33               	subwfb	(___awdiv@dividend+1)^0,f,c
  9658  0040C6                     
  9659                           ; BSR set to: 0
  9660  0040C6  8182               	bsf	___awdiv@quotient& (0+255),0,b
  9661  0040C8                     l5626:
  9662                           
  9663                           ; BSR set to: 0
  9664  0040C8  90D8               	bcf	status,0,c
  9665  0040CA  3235               	rrcf	(___awdiv@divisor+1)^0,f,c
  9666  0040CC  3234               	rrcf	___awdiv@divisor^0,f,c
  9667  0040CE                     
  9668                           ; BSR set to: 0
  9669  0040CE  2F80               	decfsz	___awdiv@counter& (0+255),f,b
  9670  0040D0  EF51  F020         	goto	l5618
  9671  0040D4                     l5630:
  9672                           
  9673                           ; BSR set to: 0
  9674  0040D4  5181               	movf	___awdiv@sign& (0+255),w,b
  9675  0040D6  B4D8               	btfsc	status,2,c
  9676  0040D8  EF70  F020         	goto	u7361
  9677  0040DC  EF72  F020         	goto	u7360
  9678  0040E0                     u7361:
  9679  0040E0  EF76  F020         	goto	l5634
  9680  0040E4                     u7360:
  9681  0040E4                     
  9682                           ; BSR set to: 0
  9683  0040E4  6D82               	negf	___awdiv@quotient& (0+255),b
  9684  0040E6  1F83               	comf	(___awdiv@quotient+1)& (0+255),f,b
  9685  0040E8  B0D8               	btfsc	status,0,c
  9686  0040EA  2B83               	incf	(___awdiv@quotient+1)& (0+255),f,b
  9687  0040EC                     l5634:
  9688                           
  9689                           ; BSR set to: 0
  9690  0040EC  C082  F032         	movff	___awdiv@quotient,?___awdiv
  9691  0040F0  C083  F033         	movff	___awdiv@quotient+1,?___awdiv+1
  9692  0040F4                     
  9693                           ; BSR set to: 0
  9694  0040F4  0012               	return		;funcret
  9695  0040F6                     __end_of___awdiv:
  9696                           	callstack 0
  9697                           
  9698 ;; *************** function _atoi *****************
  9699 ;; Defined at:
  9700 ;;		line 4 in file "C:\Program Files\Microchip\xc8\v2.36\pic\sources\c99\common\atoi.c"
  9701 ;; Parameters:    Size  Location     Type
  9702 ;;  s               2    1[BANK0 ] PTR const unsigned char 
  9703 ;;		 -> STR_2(16), STR_1(16), 
  9704 ;; Auto vars:     Size  Location     Type
  9705 ;;  n               2    9[BANK0 ] int 
  9706 ;;  neg             2    7[BANK0 ] int 
  9707 ;; Return value:  Size  Location     Type
  9708 ;;                  2    1[BANK0 ] int 
  9709 ;; Registers used:
  9710 ;;		wreg, status,2, status,0, tblptrl, tblptrh, tblptru, prodl, prodh, cstack
  9711 ;; Tracked objects:
  9712 ;;		On entry : 0/0
  9713 ;;		On exit  : 0/0
  9714 ;;		Unchanged: 0/0
  9715 ;; Data sizes:     COMRAM   BANK0   BANK1   BANK2   BANK3   BANK4   BANK5
  9716 ;;      Params:         0       2       0       0       0       0       0
  9717 ;;      Locals:         0       4       0       0       0       0       0
  9718 ;;      Temps:          0       4       0       0       0       0       0
  9719 ;;      Totals:         0      10       0       0       0       0       0
  9720 ;;Total ram usage:       10 bytes
  9721 ;; Hardware stack levels used: 1
  9722 ;; Hardware stack levels required when called: 6
  9723 ;; This function calls:
  9724 ;;		___wmul
  9725 ;;		_isdigit
  9726 ;;		_isspace
  9727 ;; This function is called by:
  9728 ;;		_vfpfcnvrt
  9729 ;; This function uses a non-reentrant model
  9730 ;;
  9731                           
  9732                           	psect	text37
  9733  003592                     __ptext37:
  9734                           	callstack 0
  9735  003592                     _atoi:
  9736                           	callstack 20
  9737  003592  0E00               	movlw	0
  9738  003594  0100               	movlb	0	; () banked
  9739  003596  6F8A               	movwf	(atoi@n+1)& (0+255),b
  9740  003598  0E00               	movlw	0
  9741  00359A  6F89               	movwf	atoi@n& (0+255),b
  9742  00359C  0E00               	movlw	0
  9743  00359E  6F88               	movwf	(atoi@neg+1)& (0+255),b
  9744  0035A0  0E00               	movlw	0
  9745  0035A2  6F87               	movwf	atoi@neg& (0+255),b
  9746  0035A4  EFD6  F01A         	goto	l6190
  9747  0035A8                     l6186:
  9748                           
  9749                           ; BSR set to: 0
  9750  0035A8  4B81               	infsnz	atoi@s& (0+255),f,b
  9751  0035AA  2B82               	incf	(atoi@s+1)& (0+255),f,b
  9752  0035AC                     l6190:
  9753                           
  9754                           ; BSR set to: 0
  9755  0035AC  C081  FFF6         	movff	atoi@s,tblptrl
  9756  0035B0  C082  FFF7         	movff	atoi@s+1,tblptrh
  9757  0035B4                     	if	0	;tblptru may be non-zero
  9758  0035B4                     	endif
  9759  0035B4                     	if	0	;tblptru may be non-zero
  9760  0035B4                     	endif
  9761  0035B4  0008               	tblrd		*
  9762  0035B6  50F5               	movf	tablat,w,c
  9763  0035B8  0A20               	xorlw	32
  9764  0035BA  B4D8               	btfsc	status,2,c
  9765  0035BC  EFE2  F01A         	goto	u8361
  9766  0035C0  EFE4  F01A         	goto	u8360
  9767  0035C4                     u8361:
  9768  0035C4  EFD4  F01A         	goto	l6186
  9769  0035C8                     u8360:
  9770  0035C8                     
  9771                           ; BSR set to: 0
  9772  0035C8  0EF7               	movlw	247
  9773  0035CA  6F83               	movwf	??_atoi& (0+255),b
  9774  0035CC  0EFF               	movlw	255
  9775  0035CE  6F84               	movwf	(??_atoi+1)& (0+255),b
  9776  0035D0  C081  FFF6         	movff	atoi@s,tblptrl
  9777  0035D4  C082  FFF7         	movff	atoi@s+1,tblptrh
  9778  0035D8                     	if	0	;tblptru may be non-zero
  9779  0035D8                     	endif
  9780  0035D8                     	if	0	;tblptru may be non-zero
  9781  0035D8                     	endif
  9782  0035D8  0008               	tblrd		*
  9783  0035DA  50F5               	movf	tablat,w,c
  9784  0035DC  6F85               	movwf	(??_atoi+2)& (0+255),b
  9785  0035DE  6B86               	clrf	(??_atoi+3)& (0+255),b
  9786  0035E0  5183               	movf	??_atoi& (0+255),w,b
  9787  0035E2  2785               	addwf	(??_atoi+2)& (0+255),f,b
  9788  0035E4  5184               	movf	(??_atoi+1)& (0+255),w,b
  9789  0035E6  2386               	addwfc	(??_atoi+3)& (0+255),f,b
  9790  0035E8  5186               	movf	(??_atoi+3)& (0+255),w,b
  9791  0035EA  E109               	bnz	u8370
  9792  0035EC  0E05               	movlw	5
  9793  0035EE  5D85               	subwf	(??_atoi+2)& (0+255),w,b
  9794  0035F0  A0D8               	btfss	status,0,c
  9795  0035F2  EFFD  F01A         	goto	u8371
  9796  0035F6  EFFF  F01A         	goto	u8370
  9797  0035FA                     u8371:
  9798  0035FA  EFD4  F01A         	goto	l6186
  9799  0035FE                     u8370:
  9800  0035FE  EF09  F01B         	goto	l6198
  9801  003602                     l6194:
  9802                           
  9803                           ; BSR set to: 0
  9804  003602  0E00               	movlw	0
  9805  003604  6F88               	movwf	(atoi@neg+1)& (0+255),b
  9806  003606  0E01               	movlw	1
  9807  003608  6F87               	movwf	atoi@neg& (0+255),b
  9808  00360A                     l6196:
  9809                           
  9810                           ; BSR set to: 0
  9811  00360A  4B81               	infsnz	atoi@s& (0+255),f,b
  9812  00360C  2B82               	incf	(atoi@s+1)& (0+255),f,b
  9813  00360E  EF3F  F01B         	goto	l6206
  9814  003612                     l6198:
  9815                           
  9816                           ; BSR set to: 0
  9817  003612  C081  FFF6         	movff	atoi@s,tblptrl
  9818  003616  C082  FFF7         	movff	atoi@s+1,tblptrh
  9819  00361A                     	if	0	;tblptru may be non-zero
  9820  00361A                     	endif
  9821  00361A                     	if	0	;tblptru may be non-zero
  9822  00361A                     	endif
  9823  00361A  0008               	tblrd		*
  9824  00361C  50F5               	movf	tablat,w,c
  9825  00361E  6F83               	movwf	??_atoi& (0+255),b
  9826  003620  6B84               	clrf	(??_atoi+1)& (0+255),b
  9827                           
  9828                           ; Switch on 2 bytes has been partitioned into a top level switch of size 1, and 1 sub-sw
      +                          itches
  9829                           ; Switch size 1, requested type "simple"
  9830                           ; Number of cases is 1, Range of values is 0 to 0
  9831                           ; switch strategies available:
  9832                           ; Name         Instructions Cycles
  9833                           ; simple_byte            4     3 (average)
  9834                           ;	Chosen strategy is simple_byte
  9835  003622  5184               	movf	(??_atoi+1)& (0+255),w,b
  9836  003624  0A00               	xorlw	0	; case 0
  9837  003626  B4D8               	btfsc	status,2,c
  9838  003628  EF18  F01B         	goto	l6604
  9839  00362C  EF3F  F01B         	goto	l6206
  9840  003630                     l6604:
  9841                           
  9842                           ; BSR set to: 0
  9843                           ; Switch size 1, requested type "simple"
  9844                           ; Number of cases is 2, Range of values is 43 to 45
  9845                           ; switch strategies available:
  9846                           ; Name         Instructions Cycles
  9847                           ; simple_byte            7     4 (average)
  9848                           ;	Chosen strategy is simple_byte
  9849  003630  5183               	movf	??_atoi& (0+255),w,b
  9850  003632  0A2B               	xorlw	43	; case 43
  9851  003634  B4D8               	btfsc	status,2,c
  9852  003636  EF05  F01B         	goto	l6196
  9853  00363A  0A06               	xorlw	6	; case 45
  9854  00363C  B4D8               	btfsc	status,2,c
  9855  00363E  EF01  F01B         	goto	l6194
  9856  003642  EF3F  F01B         	goto	l6206
  9857  003646                     l6200:
  9858                           
  9859                           ; BSR set to: 0
  9860  003646  C089  F032         	movff	atoi@n,___wmul@multiplier
  9861  00364A  C08A  F033         	movff	atoi@n+1,___wmul@multiplier+1
  9862  00364E  0E00               	movlw	0
  9863  003650  6E35               	movwf	(___wmul@multiplicand+1)^0,c
  9864  003652  0E0A               	movlw	10
  9865  003654  6E34               	movwf	___wmul@multiplicand^0,c
  9866  003656  ECC6  F024         	call	___wmul	;wreg free
  9867  00365A  C081  FFF6         	movff	atoi@s,tblptrl
  9868  00365E  C082  FFF7         	movff	atoi@s+1,tblptrh
  9869  003662                     	if	0	;tblptru may be non-zero
  9870  003662                     	endif
  9871  003662                     	if	0	;tblptru may be non-zero
  9872  003662                     	endif
  9873  003662  0008               	tblrd		*
  9874  003664  50F5               	movf	tablat,w,c
  9875  003666  5E32               	subwf	?___wmul^0,f,c
  9876  003668  0E00               	movlw	0
  9877  00366A  5A33               	subwfb	(?___wmul+1)^0,f,c
  9878  00366C  0E30               	movlw	48
  9879  00366E  2432               	addwf	?___wmul^0,w,c
  9880  003670  0100               	movlb	0	; () banked
  9881  003672  6F89               	movwf	atoi@n& (0+255),b
  9882  003674  0E00               	movlw	0
  9883  003676  2033               	addwfc	(?___wmul+1)^0,w,c
  9884  003678  6F8A               	movwf	(atoi@n+1)& (0+255),b
  9885  00367A  EF05  F01B         	goto	l6196
  9886  00367E                     l6206:
  9887                           
  9888                           ; BSR set to: 0
  9889  00367E  0ED0               	movlw	208
  9890  003680  6F83               	movwf	??_atoi& (0+255),b
  9891  003682  0EFF               	movlw	255
  9892  003684  6F84               	movwf	(??_atoi+1)& (0+255),b
  9893  003686  C081  FFF6         	movff	atoi@s,tblptrl
  9894  00368A  C082  FFF7         	movff	atoi@s+1,tblptrh
  9895  00368E                     	if	0	;tblptru may be non-zero
  9896  00368E                     	endif
  9897  00368E                     	if	0	;tblptru may be non-zero
  9898  00368E                     	endif
  9899  00368E  0008               	tblrd		*
  9900  003690  50F5               	movf	tablat,w,c
  9901  003692  6F85               	movwf	(??_atoi+2)& (0+255),b
  9902  003694  6B86               	clrf	(??_atoi+3)& (0+255),b
  9903  003696  5183               	movf	??_atoi& (0+255),w,b
  9904  003698  2785               	addwf	(??_atoi+2)& (0+255),f,b
  9905  00369A  5184               	movf	(??_atoi+1)& (0+255),w,b
  9906  00369C  2386               	addwfc	(??_atoi+3)& (0+255),f,b
  9907  00369E  5186               	movf	(??_atoi+3)& (0+255),w,b
  9908  0036A0  E109               	bnz	u8380
  9909  0036A2  0E0A               	movlw	10
  9910  0036A4  5D85               	subwf	(??_atoi+2)& (0+255),w,b
  9911  0036A6  A0D8               	btfss	status,0,c
  9912  0036A8  EF58  F01B         	goto	u8381
  9913  0036AC  EF5A  F01B         	goto	u8380
  9914  0036B0                     u8381:
  9915  0036B0  EF23  F01B         	goto	l6200
  9916  0036B4                     u8380:
  9917  0036B4                     
  9918                           ; BSR set to: 0
  9919  0036B4  5187               	movf	atoi@neg& (0+255),w,b
  9920  0036B6  1188               	iorwf	(atoi@neg+1)& (0+255),w,b
  9921  0036B8  A4D8               	btfss	status,2,c
  9922  0036BA  EF61  F01B         	goto	u8391
  9923  0036BE  EF63  F01B         	goto	u8390
  9924  0036C2                     u8391:
  9925  0036C2  EF71  F01B         	goto	l1037
  9926  0036C6                     u8390:
  9927  0036C6                     
  9928                           ; BSR set to: 0
  9929  0036C6  C089  F083         	movff	atoi@n,??_atoi
  9930  0036CA  C08A  F084         	movff	atoi@n+1,??_atoi+1
  9931  0036CE  1F83               	comf	??_atoi& (0+255),f,b
  9932  0036D0  1F84               	comf	(??_atoi+1)& (0+255),f,b
  9933  0036D2  4B83               	infsnz	??_atoi& (0+255),f,b
  9934  0036D4  2B84               	incf	(??_atoi+1)& (0+255),f,b
  9935  0036D6  C083  F081         	movff	??_atoi,?_atoi
  9936  0036DA  C084  F082         	movff	??_atoi+1,?_atoi+1
  9937  0036DE  EF75  F01B         	goto	l1040
  9938  0036E2                     l1037:
  9939                           
  9940                           ; BSR set to: 0
  9941  0036E2  C089  F081         	movff	atoi@n,?_atoi
  9942  0036E6  C08A  F082         	movff	atoi@n+1,?_atoi+1
  9943  0036EA                     l1040:
  9944                           
  9945                           ; BSR set to: 0
  9946  0036EA  0012               	return		;funcret
  9947  0036EC                     __end_of_atoi:
  9948                           	callstack 0
  9949                           
  9950 ;; *************** function _isspace *****************
  9951 ;; Defined at:
  9952 ;;		line 5 in file "C:\Program Files\Microchip\xc8\v2.36\pic\sources\c99\common\isspace.c"
  9953 ;; Parameters:    Size  Location     Type
  9954 ;;  c               2   49[COMRAM] int 
  9955 ;; Auto vars:     Size  Location     Type
  9956 ;;		None
  9957 ;; Return value:  Size  Location     Type
  9958 ;;                  2   49[COMRAM] int 
  9959 ;; Registers used:
  9960 ;;		wreg, status,2, status,0
  9961 ;; Tracked objects:
  9962 ;;		On entry : 0/0
  9963 ;;		On exit  : 0/0
  9964 ;;		Unchanged: 0/0
  9965 ;; Data sizes:     COMRAM   BANK0   BANK1   BANK2   BANK3   BANK4   BANK5
  9966 ;;      Params:         2       0       0       0       0       0       0
  9967 ;;      Locals:         0       1       0       0       0       0       0
  9968 ;;      Temps:          4       0       0       0       0       0       0
  9969 ;;      Totals:         6       1       0       0       0       0       0
  9970 ;;Total ram usage:        7 bytes
  9971 ;; Hardware stack levels used: 1
  9972 ;; Hardware stack levels required when called: 5
  9973 ;; This function calls:
  9974 ;;		Nothing
  9975 ;; This function is called by:
  9976 ;;		_atoi
  9977 ;; This function uses a non-reentrant model
  9978 ;;
  9979                           
  9980                           	psect	text38
  9981  004668                     __ptext38:
  9982                           	callstack 0
  9983  004668                     _isspace:
  9984                           	callstack 20
  9985  004668  0E01               	movlw	1
  9986  00466A  0100               	movlb	0	; () banked
  9987  00466C  6F80               	movwf	_isspace$1204& (0+255),b
  9988  00466E                     
  9989                           ; BSR set to: 0
  9990  00466E  0E20               	movlw	32
  9991  004670  1832               	xorwf	isspace@c^0,w,c
  9992  004672  1033               	iorwf	(isspace@c+1)^0,w,c
  9993  004674  B4D8               	btfsc	status,2,c
  9994  004676  EF3F  F023         	goto	u7851
  9995  00467A  EF41  F023         	goto	u7850
  9996  00467E                     u7851:
  9997  00467E  EF5A  F023         	goto	l5862
  9998  004682                     u7850:
  9999  004682                     
 10000                           ; BSR set to: 0
 10001  004682  0EF7               	movlw	247
 10002  004684  6E34               	movwf	??_isspace^0,c
 10003  004686  0EFF               	movlw	255
 10004  004688  6E35               	movwf	(??_isspace+1)^0,c
 10005  00468A  C032  F036         	movff	isspace@c,??_isspace+2
 10006  00468E  C033  F037         	movff	isspace@c+1,??_isspace+3
 10007  004692  5034               	movf	??_isspace^0,w,c
 10008  004694  2636               	addwf	(??_isspace+2)^0,f,c
 10009  004696  5035               	movf	(??_isspace+1)^0,w,c
 10010  004698  2237               	addwfc	(??_isspace+3)^0,f,c
 10011  00469A  5037               	movf	(??_isspace+3)^0,w,c
 10012  00469C  E109               	bnz	u7860
 10013  00469E  0E05               	movlw	5
 10014  0046A0  5C36               	subwf	(??_isspace+2)^0,w,c
 10015  0046A2  A0D8               	btfss	status,0,c
 10016  0046A4  EF56  F023         	goto	u7861
 10017  0046A8  EF58  F023         	goto	u7860
 10018  0046AC                     u7861:
 10019  0046AC  EF5A  F023         	goto	l5862
 10020  0046B0                     u7860:
 10021  0046B0                     
 10022                           ; BSR set to: 0
 10023  0046B0  0E00               	movlw	0
 10024  0046B2  6F80               	movwf	_isspace$1204& (0+255),b
 10025  0046B4                     l5862:
 10026                           
 10027                           ; BSR set to: 0
 10028  0046B4  C080  F032         	movff	_isspace$1204,?_isspace
 10029  0046B8  6A33               	clrf	(?_isspace+1)^0,c
 10030  0046BA                     
 10031                           ; BSR set to: 0
 10032  0046BA  0012               	return		;funcret
 10033  0046BC                     __end_of_isspace:
 10034                           	callstack 0
 10035                           
 10036 ;; *************** function _isdigit *****************
 10037 ;; Defined at:
 10038 ;;		line 5 in file "C:\Program Files\Microchip\xc8\v2.36\pic\sources\c99\common\isdigit.c"
 10039 ;; Parameters:    Size  Location     Type
 10040 ;;  c               2   49[COMRAM] int 
 10041 ;; Auto vars:     Size  Location     Type
 10042 ;;		None
 10043 ;; Return value:  Size  Location     Type
 10044 ;;                  2   49[COMRAM] int 
 10045 ;; Registers used:
 10046 ;;		wreg, status,2, status,0
 10047 ;; Tracked objects:
 10048 ;;		On entry : 0/0
 10049 ;;		On exit  : 0/0
 10050 ;;		Unchanged: 0/0
 10051 ;; Data sizes:     COMRAM   BANK0   BANK1   BANK2   BANK3   BANK4   BANK5
 10052 ;;      Params:         2       0       0       0       0       0       0
 10053 ;;      Locals:         0       0       0       0       0       0       0
 10054 ;;      Temps:          4       0       0       0       0       0       0
 10055 ;;      Totals:         6       0       0       0       0       0       0
 10056 ;;Total ram usage:        6 bytes
 10057 ;; Hardware stack levels used: 1
 10058 ;; Hardware stack levels required when called: 5
 10059 ;; This function calls:
 10060 ;;		Nothing
 10061 ;; This function is called by:
 10062 ;;		_vfpfcnvrt
 10063 ;;		_atoi
 10064 ;; This function uses a non-reentrant model
 10065 ;;
 10066                           
 10067                           	psect	text39
 10068  004856                     __ptext39:
 10069                           	callstack 0
 10070  004856                     _isdigit:
 10071                           	callstack 21
 10072  004856  0ED0               	movlw	208
 10073  004858  6E34               	movwf	??_isdigit^0,c
 10074  00485A  0EFF               	movlw	255
 10075  00485C  6E35               	movwf	(??_isdigit+1)^0,c
 10076  00485E  C032  F036         	movff	isdigit@c,??_isdigit+2
 10077  004862  C033  F037         	movff	isdigit@c+1,??_isdigit+3
 10078  004866  5034               	movf	??_isdigit^0,w,c
 10079  004868  2636               	addwf	(??_isdigit+2)^0,f,c
 10080  00486A  5035               	movf	(??_isdigit+1)^0,w,c
 10081  00486C  2237               	addwfc	(??_isdigit+3)^0,f,c
 10082  00486E  5037               	movf	(??_isdigit+3)^0,w,c
 10083  004870  E10A               	bnz	u7830
 10084  004872  0E0A               	movlw	10
 10085  004874  5C36               	subwf	(??_isdigit+2)^0,w,c
 10086  004876  A0D8               	btfss	status,0,c
 10087  004878  EF40  F024         	goto	u7831
 10088  00487C  EF43  F024         	goto	u7830
 10089  004880                     u7831:
 10090  004880  0E01               	movlw	1
 10091  004882  EF44  F024         	goto	u7840
 10092  004886                     u7830:
 10093  004886  0E00               	movlw	0
 10094  004888                     u7840:
 10095  004888  6E32               	movwf	?_isdigit^0,c
 10096  00488A  6A33               	clrf	(?_isdigit+1)^0,c
 10097  00488C  0012               	return		;funcret
 10098  00488E                     __end_of_isdigit:
 10099                           	callstack 0
 10100                           
 10101 ;; *************** function ___wmul *****************
 10102 ;; Defined at:
 10103 ;;		line 15 in file "C:\Program Files\Microchip\xc8\v2.36\pic\sources\c99\common\Umul16.c"
 10104 ;; Parameters:    Size  Location     Type
 10105 ;;  multiplier      2   49[COMRAM] unsigned int 
 10106 ;;  multiplicand    2   51[COMRAM] unsigned int 
 10107 ;; Auto vars:     Size  Location     Type
 10108 ;;  product         2   53[COMRAM] unsigned int 
 10109 ;; Return value:  Size  Location     Type
 10110 ;;                  2   49[COMRAM] unsigned int 
 10111 ;; Registers used:
 10112 ;;		wreg, status,2, status,0, prodl, prodh
 10113 ;; Tracked objects:
 10114 ;;		On entry : 0/0
 10115 ;;		On exit  : 0/0
 10116 ;;		Unchanged: 0/0
 10117 ;; Data sizes:     COMRAM   BANK0   BANK1   BANK2   BANK3   BANK4   BANK5
 10118 ;;      Params:         4       0       0       0       0       0       0
 10119 ;;      Locals:         2       0       0       0       0       0       0
 10120 ;;      Temps:          0       0       0       0       0       0       0
 10121 ;;      Totals:         6       0       0       0       0       0       0
 10122 ;;Total ram usage:        6 bytes
 10123 ;; Hardware stack levels used: 1
 10124 ;; Hardware stack levels required when called: 5
 10125 ;; This function calls:
 10126 ;;		Nothing
 10127 ;; This function is called by:
 10128 ;;		_atoi
 10129 ;; This function uses a non-reentrant model
 10130 ;;
 10131                           
 10132                           	psect	text40
 10133  00498C                     __ptext40:
 10134                           	callstack 0
 10135  00498C                     ___wmul:
 10136                           	callstack 20
 10137  00498C  5032               	movf	___wmul@multiplier^0,w,c
 10138  00498E  0234               	mulwf	___wmul@multiplicand^0,c
 10139  004990  CFF3 F036          	movff	prodl,___wmul@product
 10140  004994  CFF4 F037          	movff	prodh,___wmul@product+1
 10141  004998  5032               	movf	___wmul@multiplier^0,w,c
 10142  00499A  0235               	mulwf	(___wmul@multiplicand+1)^0,c
 10143  00499C  50F3               	movf	243,w,c
 10144  00499E  2637               	addwf	(___wmul@product+1)^0,f,c
 10145  0049A0  5033               	movf	(___wmul@multiplier+1)^0,w,c
 10146  0049A2  0234               	mulwf	___wmul@multiplicand^0,c
 10147  0049A4  50F3               	movf	243,w,c
 10148  0049A6  2637               	addwf	(___wmul@product+1)^0,f,c
 10149  0049A8  C036  F032         	movff	___wmul@product,?___wmul
 10150  0049AC  C037  F033         	movff	___wmul@product+1,?___wmul+1
 10151  0049B0  0012               	return		;funcret
 10152  0049B2                     __end_of___wmul:
 10153                           	callstack 0
 10154                           
 10155 ;; *************** function _lcd_write *****************
 10156 ;; Defined at:
 10157 ;;		line 77 in file "LCD4b_EXSTO.c"
 10158 ;; Parameters:    Size  Location     Type
 10159 ;;  lin             1    wreg     unsigned char 
 10160 ;;  col             1    0[BANK0 ] unsigned char 
 10161 ;;  str             2    1[BANK0 ] PTR unsigned char 
 10162 ;;		 -> STR_6(16), STR_5(16), STR_4(18), STR_3(16), 
 10163 ;;		 -> BufferLevel(32), BufferVoltage(32), 
 10164 ;; Auto vars:     Size  Location     Type
 10165 ;;  lin             1    4[BANK0 ] unsigned char 
 10166 ;;  end             1    3[BANK0 ] unsigned char 
 10167 ;; Return value:  Size  Location     Type
 10168 ;;                  1    wreg      void 
 10169 ;; Registers used:
 10170 ;;		wreg, fsr1l, fsr1h, status,2, status,0, tblptrl, tblptrh, tblptru, cstack
 10171 ;; Tracked objects:
 10172 ;;		On entry : 0/0
 10173 ;;		On exit  : 0/0
 10174 ;;		Unchanged: 0/0
 10175 ;; Data sizes:     COMRAM   BANK0   BANK1   BANK2   BANK3   BANK4   BANK5
 10176 ;;      Params:         0       3       0       0       0       0       0
 10177 ;;      Locals:         0       2       0       0       0       0       0
 10178 ;;      Temps:          0       0       0       0       0       0       0
 10179 ;;      Totals:         0       5       0       0       0       0       0
 10180 ;;Total ram usage:        5 bytes
 10181 ;; Hardware stack levels used: 1
 10182 ;; Hardware stack levels required when called: 8
 10183 ;; This function calls:
 10184 ;;		_lcd_send_byte
 10185 ;; This function is called by:
 10186 ;;		_Lcd_Print
 10187 ;;		_lcd_clear
 10188 ;; This function uses a non-reentrant model
 10189 ;;
 10190                           
 10191                           	psect	text41
 10192  004252                     __ptext41:
 10193                           	callstack 0
 10194  004252                     _lcd_write:
 10195                           	callstack 21
 10196                           
 10197                           ;incstack = 0
 10198                           ;lcd_write@lin stored from wreg
 10199  004252  0100               	movlb	0	; () banked
 10200  004254  6F84               	movwf	lcd_write@lin& (0+255),b
 10201  004256                     
 10202                           ;LCD4b_EXSTO.c: 77: void lcd_write(char lin, char col, char *str);LCD4b_EXSTO.c: 78: {;L
      +                          CD4b_EXSTO.c: 79:     char end;;LCD4b_EXSTO.c: 81:     if(lin == 1)
 10203  004256  0100               	movlb	0	; () banked
 10204  004258  0584               	decf	lcd_write@lin& (0+255),w,b
 10205  00425A  A4D8               	btfss	status,2,c
 10206  00425C  EF32  F021         	goto	u8571
 10207  004260  EF34  F021         	goto	u8570
 10208  004264                     u8571:
 10209  004264  EF39  F021         	goto	l6376
 10210  004268                     u8570:
 10211  004268                     
 10212                           ; BSR set to: 0
 10213                           ;LCD4b_EXSTO.c: 82:     {;LCD4b_EXSTO.c: 83:         end = col + 0X80 - 1;
 10214  004268  5180               	movf	lcd_write@col& (0+255),w,b
 10215  00426A  0F7F               	addlw	127
 10216  00426C  6F83               	movwf	lcd_write@end& (0+255),b
 10217                           
 10218                           ;LCD4b_EXSTO.c: 84:     }
 10219  00426E  EF45  F021         	goto	l6380
 10220  004272                     l6376:
 10221                           
 10222                           ; BSR set to: 0
 10223  004272  0E02               	movlw	2
 10224  004274  1984               	xorwf	lcd_write@lin& (0+255),w,b
 10225  004276  A4D8               	btfss	status,2,c
 10226  004278  EF40  F021         	goto	u8581
 10227  00427C  EF42  F021         	goto	u8580
 10228  004280                     u8581:
 10229  004280  EF45  F021         	goto	l6380
 10230  004284                     u8580:
 10231  004284                     
 10232                           ; BSR set to: 0
 10233                           ;LCD4b_EXSTO.c: 86:     {;LCD4b_EXSTO.c: 87:         end = col + 0xC0 - 1;
 10234  004284  5180               	movf	lcd_write@col& (0+255),w,b
 10235  004286  0FBF               	addlw	191
 10236  004288  6F83               	movwf	lcd_write@end& (0+255),b
 10237  00428A                     l6380:
 10238                           
 10239                           ; BSR set to: 0
 10240                           ;LCD4b_EXSTO.c: 89:     lcd_send_byte(0,end);
 10241  00428A  C083  F036         	movff	lcd_write@end,lcd_send_byte@data
 10242  00428E  0E00               	movlw	0
 10243  004290  ECF9  F024         	call	_lcd_send_byte
 10244                           
 10245                           ;LCD4b_EXSTO.c: 91:     while(*str)
 10246  004294  EF63  F021         	goto	l6386
 10247  004298                     l6382:
 10248                           
 10249                           ;LCD4b_EXSTO.c: 92:     {;LCD4b_EXSTO.c: 93:         lcd_send_byte(1,*str);
 10250  004298  C081  FFF6         	movff	lcd_write@str,tblptrl
 10251  00429C  C082  FFF7         	movff	lcd_write@str+1,tblptrh
 10252  0042A0  6AF8               	clrf	tblptru,c
 10253  0042A2  0E05               	movlw	(high __ramtop+-1)
 10254  0042A4  64F7               	cpfsgt	tblptrh,c
 10255  0042A6  D003               	bra	u8597
 10256  0042A8  0008               	tblrd		*
 10257  0042AA  50F5               	movf	tablat,w,c
 10258  0042AC  D005               	bra	u8590
 10259  0042AE                     u8597:
 10260  0042AE  CFF6 FFE1          	movff	tblptrl,fsr1l
 10261  0042B2  CFF7 FFE2          	movff	tblptrh,fsr1h
 10262  0042B6  50E7               	movf	indf1,w,c
 10263  0042B8                     u8590:
 10264  0042B8  6E36               	movwf	lcd_send_byte@data^0,c
 10265  0042BA  0E01               	movlw	1
 10266  0042BC  ECF9  F024         	call	_lcd_send_byte
 10267  0042C0                     
 10268                           ;LCD4b_EXSTO.c: 94:         str++;
 10269  0042C0  0100               	movlb	0	; () banked
 10270  0042C2  4B81               	infsnz	lcd_write@str& (0+255),f,b
 10271  0042C4  2B82               	incf	(lcd_write@str+1)& (0+255),f,b
 10272  0042C6                     l6386:
 10273                           
 10274                           ;LCD4b_EXSTO.c: 91:     while(*str)
 10275  0042C6  C081  FFF6         	movff	lcd_write@str,tblptrl
 10276  0042CA  C082  FFF7         	movff	lcd_write@str+1,tblptrh
 10277  0042CE  6AF8               	clrf	tblptru,c
 10278  0042D0  0E05               	movlw	(high __ramtop+-1)
 10279  0042D2  64F7               	cpfsgt	tblptrh,c
 10280  0042D4  D003               	bra	u8607
 10281  0042D6  0008               	tblrd		*
 10282  0042D8  50F5               	movf	tablat,w,c
 10283  0042DA  D005               	bra	u8600
 10284  0042DC                     u8607:
 10285  0042DC  CFF6 FFE1          	movff	tblptrl,fsr1l
 10286  0042E0  CFF7 FFE2          	movff	tblptrh,fsr1h
 10287  0042E4  50E7               	movf	indf1,w,c
 10288  0042E6                     u8600:
 10289  0042E6  0900               	iorlw	0
 10290  0042E8  A4D8               	btfss	status,2,c
 10291  0042EA  EF79  F021         	goto	u8611
 10292  0042EE  EF7B  F021         	goto	u8610
 10293  0042F2                     u8611:
 10294  0042F2  EF4C  F021         	goto	l6382
 10295  0042F6                     u8610:
 10296  0042F6  0012               	return		;funcret
 10297  0042F8                     __end_of_lcd_write:
 10298                           	callstack 0
 10299                           
 10300 ;; *************** function _lcd_send_byte *****************
 10301 ;; Defined at:
 10302 ;;		line 63 in file "LCD4b_EXSTO.c"
 10303 ;; Parameters:    Size  Location     Type
 10304 ;;  level           1    wreg     unsigned char 
 10305 ;;  data            1   53[COMRAM] unsigned char 
 10306 ;; Auto vars:     Size  Location     Type
 10307 ;;  level           1   54[COMRAM] unsigned char 
 10308 ;; Return value:  Size  Location     Type
 10309 ;;                  1    wreg      void 
 10310 ;; Registers used:
 10311 ;;		wreg, status,2, status,0, cstack
 10312 ;; Tracked objects:
 10313 ;;		On entry : 0/0
 10314 ;;		On exit  : 0/0
 10315 ;;		Unchanged: 0/0
 10316 ;; Data sizes:     COMRAM   BANK0   BANK1   BANK2   BANK3   BANK4   BANK5
 10317 ;;      Params:         1       0       0       0       0       0       0
 10318 ;;      Locals:         1       0       0       0       0       0       0
 10319 ;;      Temps:          0       0       0       0       0       0       0
 10320 ;;      Totals:         2       0       0       0       0       0       0
 10321 ;;Total ram usage:        2 bytes
 10322 ;; Hardware stack levels used: 1
 10323 ;; Hardware stack levels required when called: 7
 10324 ;; This function calls:
 10325 ;;		_lcd_cmd
 10326 ;; This function is called by:
 10327 ;;		_lcd_write
 10328 ;; This function uses a non-reentrant model
 10329 ;;
 10330                           
 10331                           	psect	text42
 10332  0049F2                     __ptext42:
 10333                           	callstack 0
 10334  0049F2                     _lcd_send_byte:
 10335                           	callstack 21
 10336                           
 10337                           ;incstack = 0
 10338                           ;lcd_send_byte@level stored from wreg
 10339  0049F2  6E37               	movwf	lcd_send_byte@level^0,c
 10340  0049F4                     
 10341                           ;LCD4b_EXSTO.c: 63: void lcd_send_byte(char level, char data);LCD4b_EXSTO.c: 64: {;LCD4b
      +                          _EXSTO.c: 65:     PORTEbits.RE0 = level;
 10342  0049F4  B037               	btfsc	lcd_send_byte@level^0,0,c
 10343  0049F6  D002               	bra	u8555
 10344  0049F8  9084               	bcf	132,0,c	;volatile
 10345  0049FA  D001               	bra	u8556
 10346  0049FC                     u8555:
 10347  0049FC  8084               	bsf	132,0,c	;volatile
 10348  0049FE                     u8556:
 10349  0049FE                     
 10350                           ;LCD4b_EXSTO.c: 66:     _delay((unsigned long)((100)*(8000000/4000000.0)));
 10351  0049FE  0E42               	movlw	66
 10352  004A00                     u9037:
 10353  004A00  2EE8               	decfsz	wreg,f,c
 10354  004A02  D7FE               	bra	u9037
 10355  004A04  D000               	nop2	
 10356  004A06                     
 10357                           ;LCD4b_EXSTO.c: 67:     PORTEbits.RE2 = 0;
 10358  004A06  9484               	bcf	132,2,c	;volatile
 10359  004A08                     
 10360                           ;LCD4b_EXSTO.c: 68:     lcd_cmd(data);
 10361  004A08  5036               	movf	lcd_send_byte@data^0,w,c
 10362  004A0A  ECFC  F01D         	call	_lcd_cmd
 10363  004A0E  0012               	return		;funcret
 10364  004A10                     __end_of_lcd_send_byte:
 10365                           	callstack 0
 10366                           
 10367 ;; *************** function _lcd_cmd *****************
 10368 ;; Defined at:
 10369 ;;		line 42 in file "LCD4b_EXSTO.c"
 10370 ;; Parameters:    Size  Location     Type
 10371 ;;  cmd             1    wreg     unsigned char 
 10372 ;; Auto vars:     Size  Location     Type
 10373 ;;  cmd             1   52[COMRAM] unsigned char 
 10374 ;; Return value:  Size  Location     Type
 10375 ;;                  1    wreg      void 
 10376 ;; Registers used:
 10377 ;;		wreg, status,2, status,0, cstack
 10378 ;; Tracked objects:
 10379 ;;		On entry : 0/0
 10380 ;;		On exit  : 0/0
 10381 ;;		Unchanged: 0/0
 10382 ;; Data sizes:     COMRAM   BANK0   BANK1   BANK2   BANK3   BANK4   BANK5
 10383 ;;      Params:         0       0       0       0       0       0       0
 10384 ;;      Locals:         1       0       0       0       0       0       0
 10385 ;;      Temps:          1       0       0       0       0       0       0
 10386 ;;      Totals:         2       0       0       0       0       0       0
 10387 ;;Total ram usage:        2 bytes
 10388 ;; Hardware stack levels used: 1
 10389 ;; Hardware stack levels required when called: 6
 10390 ;; This function calls:
 10391 ;;		_set_bit
 10392 ;; This function is called by:
 10393 ;;		_lcd_init
 10394 ;;		_lcd_send_byte
 10395 ;; This function uses a non-reentrant model
 10396 ;;
 10397                           
 10398                           	psect	text43
 10399  003BF8                     __ptext43:
 10400                           	callstack 0
 10401  003BF8                     _lcd_cmd:
 10402                           	callstack 23
 10403                           
 10404                           ;incstack = 0
 10405                           ;lcd_cmd@cmd stored from wreg
 10406  003BF8  6E35               	movwf	lcd_cmd@cmd^0,c
 10407  003BFA                     
 10408                           ;LCD4b_EXSTO.c: 42: void lcd_cmd(char cmd);LCD4b_EXSTO.c: 43: {;LCD4b_EXSTO.c: 44:     P
      +                          ORTDbits.RD4 = set_bit(cmd, 0b00010000);
 10409  003BFA  0E10               	movlw	16
 10410  003BFC  6E32               	movwf	set_bit@comp^0,c
 10411  003BFE  5035               	movf	lcd_cmd@cmd^0,w,c
 10412  003C00  ECD9  F024         	call	_set_bit
 10413  003C04  6E34               	movwf	??_lcd_cmd^0,c
 10414  003C06  3A34               	swapf	??_lcd_cmd^0,f,c
 10415  003C08  5083               	movf	131,w,c	;volatile
 10416  003C0A  1834               	xorwf	??_lcd_cmd^0,w,c
 10417  003C0C  0BEF               	andlw	-17
 10418  003C0E  1834               	xorwf	??_lcd_cmd^0,w,c
 10419  003C10  6E83               	movwf	131,c	;volatile
 10420                           
 10421                           ;LCD4b_EXSTO.c: 45:     PORTDbits.RD5 = set_bit(cmd, 0b00100000);
 10422  003C12  0E20               	movlw	32
 10423  003C14  6E32               	movwf	set_bit@comp^0,c
 10424  003C16  5035               	movf	lcd_cmd@cmd^0,w,c
 10425  003C18  ECD9  F024         	call	_set_bit
 10426  003C1C  6E34               	movwf	??_lcd_cmd^0,c
 10427  003C1E  3A34               	swapf	??_lcd_cmd^0,f,c
 10428  003C20  4634               	rlncf	??_lcd_cmd^0,f,c
 10429  003C22  5083               	movf	131,w,c	;volatile
 10430  003C24  1834               	xorwf	??_lcd_cmd^0,w,c
 10431  003C26  0BDF               	andlw	-33
 10432  003C28  1834               	xorwf	??_lcd_cmd^0,w,c
 10433  003C2A  6E83               	movwf	131,c	;volatile
 10434                           
 10435                           ;LCD4b_EXSTO.c: 46:     PORTDbits.RD6 = set_bit(cmd, 0b01000000);
 10436  003C2C  0E40               	movlw	64
 10437  003C2E  6E32               	movwf	set_bit@comp^0,c
 10438  003C30  5035               	movf	lcd_cmd@cmd^0,w,c
 10439  003C32  ECD9  F024         	call	_set_bit
 10440  003C36  6E34               	movwf	??_lcd_cmd^0,c
 10441  003C38  3A34               	swapf	??_lcd_cmd^0,f,c
 10442  003C3A  4634               	rlncf	??_lcd_cmd^0,f,c
 10443  003C3C  4634               	rlncf	??_lcd_cmd^0,f,c
 10444  003C3E  5083               	movf	131,w,c	;volatile
 10445  003C40  1834               	xorwf	??_lcd_cmd^0,w,c
 10446  003C42  0BBF               	andlw	-65
 10447  003C44  1834               	xorwf	??_lcd_cmd^0,w,c
 10448  003C46  6E83               	movwf	131,c	;volatile
 10449                           
 10450                           ;LCD4b_EXSTO.c: 47:     PORTDbits.RD7 = set_bit(cmd, 0b10000000);
 10451  003C48  0E80               	movlw	128
 10452  003C4A  6E32               	movwf	set_bit@comp^0,c
 10453  003C4C  5035               	movf	lcd_cmd@cmd^0,w,c
 10454  003C4E  ECD9  F024         	call	_set_bit
 10455  003C52  6E34               	movwf	??_lcd_cmd^0,c
 10456  003C54  3234               	rrcf	??_lcd_cmd^0,f,c
 10457  003C56  3234               	rrcf	??_lcd_cmd^0,f,c
 10458  003C58  5083               	movf	131,w,c	;volatile
 10459  003C5A  1834               	xorwf	??_lcd_cmd^0,w,c
 10460  003C5C  0B7F               	andlw	-129
 10461  003C5E  1834               	xorwf	??_lcd_cmd^0,w,c
 10462  003C60  6E83               	movwf	131,c	;volatile
 10463  003C62                     
 10464                           ;LCD4b_EXSTO.c: 49:     PORTEbits.RE2 = 1;
 10465  003C62  8484               	bsf	132,2,c	;volatile
 10466  003C64                     
 10467                           ;LCD4b_EXSTO.c: 50:     PORTEbits.RE2 = 0;
 10468  003C64  9484               	bcf	132,2,c	;volatile
 10469  003C66                     
 10470                           ;LCD4b_EXSTO.c: 52:     _delay((unsigned long)((100)*(8000000/4000000.0)));
 10471  003C66  0E42               	movlw	66
 10472  003C68                     u9047:
 10473  003C68  2EE8               	decfsz	wreg,f,c
 10474  003C6A  D7FE               	bra	u9047
 10475  003C6C  D000               	nop2	
 10476  003C6E                     
 10477                           ;LCD4b_EXSTO.c: 54:     PORTDbits.RD4 = set_bit(cmd, 0b00000001);
 10478  003C6E  0E01               	movlw	1
 10479  003C70  6E32               	movwf	set_bit@comp^0,c
 10480  003C72  5035               	movf	lcd_cmd@cmd^0,w,c
 10481  003C74  ECD9  F024         	call	_set_bit
 10482  003C78  6E34               	movwf	??_lcd_cmd^0,c
 10483  003C7A  3A34               	swapf	??_lcd_cmd^0,f,c
 10484  003C7C  5083               	movf	131,w,c	;volatile
 10485  003C7E  1834               	xorwf	??_lcd_cmd^0,w,c
 10486  003C80  0BEF               	andlw	-17
 10487  003C82  1834               	xorwf	??_lcd_cmd^0,w,c
 10488  003C84  6E83               	movwf	131,c	;volatile
 10489  003C86                     
 10490                           ;LCD4b_EXSTO.c: 55:     PORTDbits.RD5 = set_bit(cmd, 0b00000010);
 10491  003C86  0E02               	movlw	2
 10492  003C88  6E32               	movwf	set_bit@comp^0,c
 10493  003C8A  5035               	movf	lcd_cmd@cmd^0,w,c
 10494  003C8C  ECD9  F024         	call	_set_bit
 10495  003C90  6E34               	movwf	??_lcd_cmd^0,c
 10496  003C92  3A34               	swapf	??_lcd_cmd^0,f,c
 10497  003C94  4634               	rlncf	??_lcd_cmd^0,f,c
 10498  003C96  5083               	movf	131,w,c	;volatile
 10499  003C98  1834               	xorwf	??_lcd_cmd^0,w,c
 10500  003C9A  0BDF               	andlw	-33
 10501  003C9C  1834               	xorwf	??_lcd_cmd^0,w,c
 10502  003C9E  6E83               	movwf	131,c	;volatile
 10503  003CA0                     
 10504                           ;LCD4b_EXSTO.c: 56:     PORTDbits.RD6 = set_bit(cmd, 0b00000100);
 10505  003CA0  0E04               	movlw	4
 10506  003CA2  6E32               	movwf	set_bit@comp^0,c
 10507  003CA4  5035               	movf	lcd_cmd@cmd^0,w,c
 10508  003CA6  ECD9  F024         	call	_set_bit
 10509  003CAA  6E34               	movwf	??_lcd_cmd^0,c
 10510  003CAC  3A34               	swapf	??_lcd_cmd^0,f,c
 10511  003CAE  4634               	rlncf	??_lcd_cmd^0,f,c
 10512  003CB0  4634               	rlncf	??_lcd_cmd^0,f,c
 10513  003CB2  5083               	movf	131,w,c	;volatile
 10514  003CB4  1834               	xorwf	??_lcd_cmd^0,w,c
 10515  003CB6  0BBF               	andlw	-65
 10516  003CB8  1834               	xorwf	??_lcd_cmd^0,w,c
 10517  003CBA  6E83               	movwf	131,c	;volatile
 10518  003CBC                     
 10519                           ;LCD4b_EXSTO.c: 57:     PORTDbits.RD7 = set_bit(cmd, 0b00001000);
 10520  003CBC  0E08               	movlw	8
 10521  003CBE  6E32               	movwf	set_bit@comp^0,c
 10522  003CC0  5035               	movf	lcd_cmd@cmd^0,w,c
 10523  003CC2  ECD9  F024         	call	_set_bit
 10524  003CC6  6E34               	movwf	??_lcd_cmd^0,c
 10525  003CC8  3234               	rrcf	??_lcd_cmd^0,f,c
 10526  003CCA  3234               	rrcf	??_lcd_cmd^0,f,c
 10527  003CCC  5083               	movf	131,w,c	;volatile
 10528  003CCE  1834               	xorwf	??_lcd_cmd^0,w,c
 10529  003CD0  0B7F               	andlw	-129
 10530  003CD2  1834               	xorwf	??_lcd_cmd^0,w,c
 10531  003CD4  6E83               	movwf	131,c	;volatile
 10532  003CD6                     
 10533                           ;LCD4b_EXSTO.c: 59:     PORTEbits.RE2 = 1;
 10534  003CD6  8484               	bsf	132,2,c	;volatile
 10535  003CD8                     
 10536                           ;LCD4b_EXSTO.c: 60:     PORTEbits.RE2 = 0;
 10537  003CD8  9484               	bcf	132,2,c	;volatile
 10538  003CDA  0012               	return		;funcret
 10539  003CDC                     __end_of_lcd_cmd:
 10540                           	callstack 0
 10541                           
 10542 ;; *************** function _set_bit *****************
 10543 ;; Defined at:
 10544 ;;		line 36 in file "LCD4b_EXSTO.c"
 10545 ;; Parameters:    Size  Location     Type
 10546 ;;  cmd             1    wreg     unsigned char 
 10547 ;;  comp            1   49[COMRAM] unsigned char 
 10548 ;; Auto vars:     Size  Location     Type
 10549 ;;  cmd             1   50[COMRAM] unsigned char 
 10550 ;; Return value:  Size  Location     Type
 10551 ;;                  1    wreg      unsigned char 
 10552 ;; Registers used:
 10553 ;;		wreg, status,2, status,0
 10554 ;; Tracked objects:
 10555 ;;		On entry : 0/0
 10556 ;;		On exit  : 0/0
 10557 ;;		Unchanged: 0/0
 10558 ;; Data sizes:     COMRAM   BANK0   BANK1   BANK2   BANK3   BANK4   BANK5
 10559 ;;      Params:         1       0       0       0       0       0       0
 10560 ;;      Locals:         1       0       0       0       0       0       0
 10561 ;;      Temps:          0       0       0       0       0       0       0
 10562 ;;      Totals:         2       0       0       0       0       0       0
 10563 ;;Total ram usage:        2 bytes
 10564 ;; Hardware stack levels used: 1
 10565 ;; Hardware stack levels required when called: 5
 10566 ;; This function calls:
 10567 ;;		Nothing
 10568 ;; This function is called by:
 10569 ;;		_lcd_cmd
 10570 ;; This function uses a non-reentrant model
 10571 ;;
 10572                           
 10573                           	psect	text44
 10574  0049B2                     __ptext44:
 10575                           	callstack 0
 10576  0049B2                     _set_bit:
 10577                           	callstack 23
 10578                           
 10579                           ;incstack = 0
 10580                           ;set_bit@cmd stored from wreg
 10581  0049B2  6E33               	movwf	set_bit@cmd^0,c
 10582  0049B4                     
 10583                           ;LCD4b_EXSTO.c: 36: char set_bit(char cmd, char comp);LCD4b_EXSTO.c: 37: {;LCD4b_EXSTO.c
      +                          : 38:     if((cmd & comp) >= 1) return 1;
 10584  0049B4  5033               	movf	set_bit@cmd^0,w,c
 10585  0049B6  1432               	andwf	set_bit@comp^0,w,c
 10586  0049B8  0900               	iorlw	0
 10587  0049BA  B4D8               	btfsc	status,2,c
 10588  0049BC  EFE2  F024         	goto	u7871
 10589  0049C0  EFE4  F024         	goto	u7870
 10590  0049C4                     u7871:
 10591  0049C4  EFE7  F024         	goto	l5874
 10592  0049C8                     u7870:
 10593  0049C8  0E01               	movlw	1
 10594  0049CA  EFE8  F024         	goto	l144
 10595  0049CE                     l5874:
 10596  0049CE  0E00               	movlw	0
 10597  0049D0                     l144:
 10598  0049D0  0012               	return		;funcret
 10599  0049D2                     __end_of_set_bit:
 10600                           	callstack 0
 10601                           
 10602 ;; *************** function _config_HighLevel *****************
 10603 ;; Defined at:
 10604 ;;		line 250 in file "Program_Interrupt_Level.c"
 10605 ;; Parameters:    Size  Location     Type
 10606 ;;		None
 10607 ;; Auto vars:     Size  Location     Type
 10608 ;;		None
 10609 ;; Return value:  Size  Location     Type
 10610 ;;                  1    wreg      void 
 10611 ;; Registers used:
 10612 ;;		wreg, fsr1l, fsr1h, status,2, status,0, tblptrl, tblptrh, tblptru, prodl, prodh, cstack
 10613 ;; Tracked objects:
 10614 ;;		On entry : 0/0
 10615 ;;		On exit  : 0/0
 10616 ;;		Unchanged: 0/0
 10617 ;; Data sizes:     COMRAM   BANK0   BANK1   BANK2   BANK3   BANK4   BANK5
 10618 ;;      Params:         0       0       0       0       0       0       0
 10619 ;;      Locals:         0       0       0       0       0       0       0
 10620 ;;      Temps:         10       0       0       0       0       0       0
 10621 ;;      Totals:        10       0       0       0       0       0       0
 10622 ;;Total ram usage:       10 bytes
 10623 ;; Hardware stack levels used: 1
 10624 ;; Hardware stack levels required when called: 4
 10625 ;; This function calls:
 10626 ;;		i2___flge
 10627 ;;		i2_conv_AN0
 10628 ;;		i2_equation_SENSOR
 10629 ;;		i2_lcd_write
 10630 ;; This function is called by:
 10631 ;;		Interrupt level 2
 10632 ;; This function uses a non-reentrant model
 10633 ;;
 10634                           
 10635                           	psect	intcode
 10636  000008                     __pintcode:
 10637                           	callstack 0
 10638  000008                     _config_HighLevel:
 10639                           	callstack 17
 10640                           
 10641                           ;incstack = 0
 10642  000008  824E               	bsf	int$flags,1,c	;set compiler interrupt flag (level 2)
 10643  00000A  ED7F  F01D         	call	int_func,f	;refresh shadow registers
 10644                           
 10645                           	psect	intcode_body
 10646  003AFE                     __pintcode_body:
 10647                           	callstack 17
 10648  003AFE                     int_func:
 10649                           	callstack 17
 10650  003AFE  0006               	pop		; remove dummy address from shadow register refresh
 10651  003B00  CFE1 F02A          	movff	fsr1l,??_config_HighLevel+2
 10652  003B04  CFE2 F02B          	movff	fsr1h,??_config_HighLevel+3
 10653  003B08  CFF3 F02C          	movff	prodl,??_config_HighLevel+4
 10654  003B0C  CFF4 F02D          	movff	prodh,??_config_HighLevel+5
 10655  003B10  CFF6 F02E          	movff	tblptrl,??_config_HighLevel+6
 10656  003B14  CFF7 F02F          	movff	tblptrh,??_config_HighLevel+7
 10657  003B18  CFF8 F030          	movff	tblptru,??_config_HighLevel+8
 10658  003B1C  CFF5 F031          	movff	tablat,??_config_HighLevel+9
 10659  003B20                     
 10660                           ;Program_Interrupt_Level.c: 252:     if(INTCONbits.INT0IF == 1)
 10661  003B20  A2F2               	btfss	242,1,c	;volatile
 10662  003B22  EF95  F01D         	goto	i2u640_41
 10663  003B26  EF97  F01D         	goto	i2u640_40
 10664  003B2A                     i2u640_41:
 10665  003B2A  EFEA  F01D         	goto	i2l111
 10666  003B2E                     i2u640_40:
 10667  003B2E  EFD0  F01D         	goto	i2l5038
 10668  003B32                     i2l5008:
 10669                           
 10670                           ;Program_Interrupt_Level.c: 255:         {;Program_Interrupt_Level.c: 256:              
      +                             conv_AN0();
 10671  003B32  EC95  F024         	call	i2_conv_AN0	;wreg free
 10672  003B36                     
 10673                           ;Program_Interrupt_Level.c: 257:                 equation_SENSOR();
 10674  003B36  EC5B  F022         	call	i2_equation_SENSOR	;wreg free
 10675  003B3A                     
 10676                           ;Program_Interrupt_Level.c: 258:                 PORTCbits.RC0 = 0;
 10677  003B3A  9082               	bcf	130,0,c	;volatile
 10678  003B3C                     
 10679                           ;Program_Interrupt_Level.c: 259:                 PORTCbits.RC1 = 0;
 10680  003B3C  9282               	bcf	130,1,c	;volatile
 10681  003B3E                     
 10682                           ;Program_Interrupt_Level.c: 260:                 PORTCbits.RC2 = 1;
 10683  003B3E  8482               	bsf	130,2,c	;volatile
 10684  003B40                     
 10685                           ;Program_Interrupt_Level.c: 261:                 PORTCbits.RC3 = 0;
 10686  003B40  9682               	bcf	130,3,c	;volatile
 10687  003B42                     
 10688                           ;Program_Interrupt_Level.c: 262:                 PORTCbits.RC4 = 0;
 10689  003B42  9882               	bcf	130,4,c	;volatile
 10690  003B44                     
 10691                           ;Program_Interrupt_Level.c: 263:                 PORTCbits.RC5 = 0;
 10692  003B44  9A82               	bcf	130,5,c	;volatile
 10693  003B46                     
 10694                           ;Program_Interrupt_Level.c: 264:                 _delay((unsigned long)((200)*(8000000/4
      +                          000.0)));
 10695  003B46  0E03               	movlw	3
 10696  003B48  6E29               	movwf	(??_config_HighLevel+1)^0,c
 10697  003B4A  0E08               	movlw	8
 10698  003B4C  6E28               	movwf	??_config_HighLevel^0,c
 10699  003B4E  0E77               	movlw	119
 10700  003B50                     i2u905_47:
 10701  003B50  2EE8               	decfsz	wreg,f,c
 10702  003B52  D7FE               	bra	i2u905_47
 10703  003B54  2E28               	decfsz	??_config_HighLevel^0,f,c
 10704  003B56  D7FC               	bra	i2u905_47
 10705  003B58  2E29               	decfsz	(??_config_HighLevel+1)^0,f,c
 10706  003B5A  D7FA               	bra	i2u905_47
 10707  003B5C  F000               	nop	
 10708  003B5E                     
 10709                           ;Program_Interrupt_Level.c: 265:                 PORTCbits.RC3 = 1;
 10710  003B5E  8682               	bsf	130,3,c	;volatile
 10711  003B60                     
 10712                           ;Program_Interrupt_Level.c: 266:                 PORTCbits.RC4 = 1;
 10713  003B60  8882               	bsf	130,4,c	;volatile
 10714  003B62                     
 10715                           ;Program_Interrupt_Level.c: 267:                 PORTCbits.RC5 = 1;
 10716  003B62  8A82               	bsf	130,5,c	;volatile
 10717  003B64                     
 10718                           ;Program_Interrupt_Level.c: 268:                 _delay((unsigned long)((200)*(8000000/4
      +                          000.0)));
 10719  003B64  0E03               	movlw	3
 10720  003B66  6E29               	movwf	(??_config_HighLevel+1)^0,c
 10721  003B68  0E08               	movlw	8
 10722  003B6A  6E28               	movwf	??_config_HighLevel^0,c
 10723  003B6C  0E77               	movlw	119
 10724  003B6E                     i2u906_47:
 10725  003B6E  2EE8               	decfsz	wreg,f,c
 10726  003B70  D7FE               	bra	i2u906_47
 10727  003B72  2E28               	decfsz	??_config_HighLevel^0,f,c
 10728  003B74  D7FC               	bra	i2u906_47
 10729  003B76  2E29               	decfsz	(??_config_HighLevel+1)^0,f,c
 10730  003B78  D7FA               	bra	i2u906_47
 10731  003B7A  F000               	nop	
 10732  003B7C                     
 10733                           ;Program_Interrupt_Level.c: 270:                 lcd_write(1,1,"     ALERTA    ");
 10734  003B7C  0E01               	movlw	1
 10735  003B7E  6E07               	movwf	i2lcd_write@col^0,c
 10736  003B80  0E23               	movlw	low STR_3
 10737  003B82  6E08               	movwf	i2lcd_write@str^0,c
 10738  003B84  0E06               	movlw	high STR_3
 10739  003B86  6E09               	movwf	(i2lcd_write@str+1)^0,c
 10740  003B88  0E01               	movlw	1
 10741  003B8A  EC7C  F021         	call	i2_lcd_write
 10742  003B8E                     
 10743                           ;Program_Interrupt_Level.c: 271:                 lcd_write(2,1,"  NIVEL CRITICO  ");
 10744  003B8E  0E01               	movlw	1
 10745  003B90  6E07               	movwf	i2lcd_write@col^0,c
 10746  003B92  0E01               	movlw	low STR_4
 10747  003B94  6E08               	movwf	i2lcd_write@str^0,c
 10748  003B96  0E06               	movlw	high STR_4
 10749  003B98  6E09               	movwf	(i2lcd_write@str+1)^0,c
 10750  003B9A  0E02               	movlw	2
 10751  003B9C  EC7C  F021         	call	i2_lcd_write
 10752  003BA0                     i2l5038:
 10753                           
 10754                           ;Program_Interrupt_Level.c: 254:         while(Level_AN0 > 0)
 10755  003BA0  0E00               	movlw	0
 10756  003BA2  6E01               	movwf	i2___flge@ff1^0,c
 10757  003BA4  0E00               	movlw	0
 10758  003BA6  6E02               	movwf	(i2___flge@ff1+1)^0,c
 10759  003BA8  0E00               	movlw	0
 10760  003BAA  6E03               	movwf	(i2___flge@ff1+2)^0,c
 10761  003BAC  0E00               	movlw	0
 10762  003BAE  6E04               	movwf	(i2___flge@ff1+3)^0,c
 10763  003BB0  C0F9  F005         	movff	_Level_AN0,i2___flge@ff2
 10764  003BB4  C0FA  F006         	movff	_Level_AN0+1,i2___flge@ff2+1
 10765  003BB8  C0FB  F007         	movff	_Level_AN0+2,i2___flge@ff2+2
 10766  003BBC  C0FC  F008         	movff	_Level_AN0+3,i2___flge@ff2+3
 10767  003BC0  EC7D  F01C         	call	i2___flge	;wreg free
 10768  003BC4  A0D8               	btfss	status,0,c
 10769  003BC6  EFE7  F01D         	goto	i2u641_41
 10770  003BCA  EFE9  F01D         	goto	i2u641_40
 10771  003BCE                     i2u641_41:
 10772  003BCE  EF99  F01D         	goto	i2l5008
 10773  003BD2                     i2u641_40:
 10774  003BD2                     
 10775                           ;Program_Interrupt_Level.c: 273:         INTCONbits.INT0IF = 0;
 10776  003BD2  92F2               	bcf	242,1,c	;volatile
 10777  003BD4                     i2l111:
 10778  003BD4  C031  FFF5         	movff	??_config_HighLevel+9,tablat
 10779  003BD8  C030  FFF8         	movff	??_config_HighLevel+8,tblptru
 10780  003BDC  C02F  FFF7         	movff	??_config_HighLevel+7,tblptrh
 10781  003BE0  C02E  FFF6         	movff	??_config_HighLevel+6,tblptrl
 10782  003BE4  C02D  FFF4         	movff	??_config_HighLevel+5,prodh
 10783  003BE8  C02C  FFF3         	movff	??_config_HighLevel+4,prodl
 10784  003BEC  C02B  FFE2         	movff	??_config_HighLevel+3,fsr1h
 10785  003BF0  C02A  FFE1         	movff	??_config_HighLevel+2,fsr1l
 10786  003BF4  924E               	bcf	int$flags,1,c	;clear compiler interrupt flag (level 2)
 10787  003BF6  0011               	retfie		f
 10788  003BF8                     __end_of_config_HighLevel:
 10789                           	callstack 0
 10790                           
 10791 ;; *************** function i2_lcd_write *****************
 10792 ;; Defined at:
 10793 ;;		line 77 in file "LCD4b_EXSTO.c"
 10794 ;; Parameters:    Size  Location     Type
 10795 ;;  lin             1    wreg     unsigned char 
 10796 ;;  col             1    6[COMRAM] unsigned char 
 10797 ;;  str             2    7[COMRAM] PTR unsigned char 
 10798 ;;		 -> STR_6(16), STR_5(16), STR_4(18), STR_3(16), 
 10799 ;;		 -> BufferLevel(32), BufferVoltage(32), 
 10800 ;; Auto vars:     Size  Location     Type
 10801 ;;  lin             1   10[COMRAM] unsigned char 
 10802 ;;  end             1    9[COMRAM] unsigned char 
 10803 ;; Return value:  Size  Location     Type
 10804 ;;                  1    wreg      void 
 10805 ;; Registers used:
 10806 ;;		wreg, fsr1l, fsr1h, status,2, status,0, tblptrl, tblptrh, tblptru, cstack
 10807 ;; Tracked objects:
 10808 ;;		On entry : 0/0
 10809 ;;		On exit  : 0/0
 10810 ;;		Unchanged: 0/0
 10811 ;; Data sizes:     COMRAM   BANK0   BANK1   BANK2   BANK3   BANK4   BANK5
 10812 ;;      Params:         3       0       0       0       0       0       0
 10813 ;;      Locals:         2       0       0       0       0       0       0
 10814 ;;      Temps:          0       0       0       0       0       0       0
 10815 ;;      Totals:         5       0       0       0       0       0       0
 10816 ;;Total ram usage:        5 bytes
 10817 ;; Hardware stack levels used: 1
 10818 ;; Hardware stack levels required when called: 3
 10819 ;; This function calls:
 10820 ;;		i2_lcd_send_byte
 10821 ;; This function is called by:
 10822 ;;		_config_HighLevel
 10823 ;; This function uses a non-reentrant model
 10824 ;;
 10825                           
 10826                           	psect	text46
 10827  0042F8                     __ptext46:
 10828                           	callstack 0
 10829  0042F8                     i2_lcd_write:
 10830                           	callstack 17
 10831                           
 10832                           ;incstack = 0
 10833                           ;i2lcd_write@lin stored from wreg
 10834  0042F8  6E0B               	movwf	i2lcd_write@lin^0,c
 10835  0042FA                     
 10836                           ;LCD4b_EXSTO.c: 77: void lcd_write(char lin, char col, char *str);LCD4b_EXSTO.c: 78: {;L
      +                          CD4b_EXSTO.c: 79:     char end;;LCD4b_EXSTO.c: 81:     if(lin == 1)
 10837  0042FA  040B               	decf	i2lcd_write@lin^0,w,c
 10838  0042FC  A4D8               	btfss	status,2,c
 10839  0042FE  EF83  F021         	goto	i2u630_41
 10840  004302  EF85  F021         	goto	i2u630_40
 10841  004306                     i2u630_41:
 10842  004306  EF8A  F021         	goto	i2l4970
 10843  00430A                     i2u630_40:
 10844  00430A                     
 10845                           ;LCD4b_EXSTO.c: 82:     {;LCD4b_EXSTO.c: 83:         end = col + 0X80 - 1;
 10846  00430A  5007               	movf	i2lcd_write@col^0,w,c
 10847  00430C  0F7F               	addlw	127
 10848  00430E  6E0A               	movwf	i2lcd_write@end^0,c
 10849                           
 10850                           ;LCD4b_EXSTO.c: 84:     }
 10851  004310  EF96  F021         	goto	i2l4974
 10852  004314                     i2l4970:
 10853  004314  0E02               	movlw	2
 10854  004316  180B               	xorwf	i2lcd_write@lin^0,w,c
 10855  004318  A4D8               	btfss	status,2,c
 10856  00431A  EF91  F021         	goto	i2u631_41
 10857  00431E  EF93  F021         	goto	i2u631_40
 10858  004322                     i2u631_41:
 10859  004322  EF96  F021         	goto	i2l4974
 10860  004326                     i2u631_40:
 10861  004326                     
 10862                           ;LCD4b_EXSTO.c: 86:     {;LCD4b_EXSTO.c: 87:         end = col + 0xC0 - 1;
 10863  004326  5007               	movf	i2lcd_write@col^0,w,c
 10864  004328  0FBF               	addlw	191
 10865  00432A  6E0A               	movwf	i2lcd_write@end^0,c
 10866  00432C                     i2l4974:
 10867                           
 10868                           ;LCD4b_EXSTO.c: 89:     lcd_send_byte(0,end);
 10869  00432C  C00A  F005         	movff	i2lcd_write@end,i2lcd_send_byte@data
 10870  004330  0E00               	movlw	0
 10871  004332  EC08  F025         	call	i2_lcd_send_byte
 10872                           
 10873                           ;LCD4b_EXSTO.c: 91:     while(*str)
 10874  004336  EFB3  F021         	goto	i2l4980
 10875  00433A                     i2l4976:
 10876                           
 10877                           ;LCD4b_EXSTO.c: 92:     {;LCD4b_EXSTO.c: 93:         lcd_send_byte(1,*str);
 10878  00433A  C008  FFF6         	movff	i2lcd_write@str,tblptrl
 10879  00433E  C009  FFF7         	movff	i2lcd_write@str+1,tblptrh
 10880  004342  6AF8               	clrf	tblptru,c
 10881  004344  0E05               	movlw	(high __ramtop+-1)
 10882  004346  64F7               	cpfsgt	tblptrh,c
 10883  004348  D003               	bra	i2u632_47
 10884  00434A  0008               	tblrd		*
 10885  00434C  50F5               	movf	tablat,w,c
 10886  00434E  D005               	bra	i2u632_40
 10887  004350                     i2u632_47:
 10888  004350  CFF6 FFE1          	movff	tblptrl,fsr1l
 10889  004354  CFF7 FFE2          	movff	tblptrh,fsr1h
 10890  004358  50E7               	movf	indf1,w,c
 10891  00435A                     i2u632_40:
 10892  00435A  6E05               	movwf	i2lcd_send_byte@data^0,c
 10893  00435C  0E01               	movlw	1
 10894  00435E  EC08  F025         	call	i2_lcd_send_byte
 10895  004362                     
 10896                           ;LCD4b_EXSTO.c: 94:         str++;
 10897  004362  4A08               	infsnz	i2lcd_write@str^0,f,c
 10898  004364  2A09               	incf	(i2lcd_write@str+1)^0,f,c
 10899  004366                     i2l4980:
 10900                           
 10901                           ;LCD4b_EXSTO.c: 91:     while(*str)
 10902  004366  C008  FFF6         	movff	i2lcd_write@str,tblptrl
 10903  00436A  C009  FFF7         	movff	i2lcd_write@str+1,tblptrh
 10904  00436E  6AF8               	clrf	tblptru,c
 10905  004370  0E05               	movlw	(high __ramtop+-1)
 10906  004372  64F7               	cpfsgt	tblptrh,c
 10907  004374  D003               	bra	i2u633_47
 10908  004376  0008               	tblrd		*
 10909  004378  50F5               	movf	tablat,w,c
 10910  00437A  D005               	bra	i2u633_40
 10911  00437C                     i2u633_47:
 10912  00437C  CFF6 FFE1          	movff	tblptrl,fsr1l
 10913  004380  CFF7 FFE2          	movff	tblptrh,fsr1h
 10914  004384  50E7               	movf	indf1,w,c
 10915  004386                     i2u633_40:
 10916  004386  0900               	iorlw	0
 10917  004388  A4D8               	btfss	status,2,c
 10918  00438A  EFC9  F021         	goto	i2u634_41
 10919  00438E  EFCB  F021         	goto	i2u634_40
 10920  004392                     i2u634_41:
 10921  004392  EF9D  F021         	goto	i2l4976
 10922  004396                     i2u634_40:
 10923  004396  0012               	return		;funcret
 10924  004398                     __end_ofi2_lcd_write:
 10925                           	callstack 0
 10926                           
 10927 ;; *************** function i2_lcd_send_byte *****************
 10928 ;; Defined at:
 10929 ;;		line 63 in file "LCD4b_EXSTO.c"
 10930 ;; Parameters:    Size  Location     Type
 10931 ;;  level           1    wreg     unsigned char 
 10932 ;;  data            1    4[COMRAM] unsigned char 
 10933 ;; Auto vars:     Size  Location     Type
 10934 ;;  level           1    5[COMRAM] unsigned char 
 10935 ;; Return value:  Size  Location     Type
 10936 ;;                  1    wreg      void 
 10937 ;; Registers used:
 10938 ;;		wreg, status,2, status,0, cstack
 10939 ;; Tracked objects:
 10940 ;;		On entry : 0/0
 10941 ;;		On exit  : 0/0
 10942 ;;		Unchanged: 0/0
 10943 ;; Data sizes:     COMRAM   BANK0   BANK1   BANK2   BANK3   BANK4   BANK5
 10944 ;;      Params:         1       0       0       0       0       0       0
 10945 ;;      Locals:         1       0       0       0       0       0       0
 10946 ;;      Temps:          0       0       0       0       0       0       0
 10947 ;;      Totals:         2       0       0       0       0       0       0
 10948 ;;Total ram usage:        2 bytes
 10949 ;; Hardware stack levels used: 1
 10950 ;; Hardware stack levels required when called: 2
 10951 ;; This function calls:
 10952 ;;		i2_lcd_cmd
 10953 ;; This function is called by:
 10954 ;;		i2_lcd_write
 10955 ;; This function uses a non-reentrant model
 10956 ;;
 10957                           
 10958                           	psect	text47
 10959  004A10                     __ptext47:
 10960                           	callstack 0
 10961  004A10                     i2_lcd_send_byte:
 10962                           	callstack 17
 10963                           
 10964                           ;incstack = 0
 10965                           ;i2lcd_send_byte@level stored from wreg
 10966  004A10  6E06               	movwf	i2lcd_send_byte@level^0,c
 10967  004A12                     
 10968                           ;LCD4b_EXSTO.c: 63: void lcd_send_byte(char level, char data);LCD4b_EXSTO.c: 64: {;LCD4b
      +                          _EXSTO.c: 65:     PORTEbits.RE0 = level;
 10969  004A12  B006               	btfsc	i2lcd_send_byte@level^0,0,c
 10970  004A14  D002               	bra	i2u553_45
 10971  004A16  9084               	bcf	132,0,c	;volatile
 10972  004A18  D001               	bra	i2u553_46
 10973  004A1A                     i2u553_45:
 10974  004A1A  8084               	bsf	132,0,c	;volatile
 10975  004A1C                     i2u553_46:
 10976  004A1C                     
 10977                           ;LCD4b_EXSTO.c: 66:     _delay((unsigned long)((100)*(8000000/4000000.0)));
 10978  004A1C  0E42               	movlw	66
 10979  004A1E                     i2u907_47:
 10980  004A1E  2EE8               	decfsz	wreg,f,c
 10981  004A20  D7FE               	bra	i2u907_47
 10982  004A22  D000               	nop2	
 10983  004A24                     
 10984                           ;LCD4b_EXSTO.c: 67:     PORTEbits.RE2 = 0;
 10985  004A24  9484               	bcf	132,2,c	;volatile
 10986  004A26                     
 10987                           ;LCD4b_EXSTO.c: 68:     lcd_cmd(data);
 10988  004A26  5005               	movf	i2lcd_send_byte@data^0,w,c
 10989  004A28  EC6E  F01E         	call	i2_lcd_cmd
 10990  004A2C  0012               	return		;funcret
 10991  004A2E                     __end_ofi2_lcd_send_byte:
 10992                           	callstack 0
 10993                           
 10994 ;; *************** function i2_lcd_cmd *****************
 10995 ;; Defined at:
 10996 ;;		line 42 in file "LCD4b_EXSTO.c"
 10997 ;; Parameters:    Size  Location     Type
 10998 ;;  cmd             1    wreg     unsigned char 
 10999 ;; Auto vars:     Size  Location     Type
 11000 ;;  cmd             1    3[COMRAM] unsigned char 
 11001 ;; Return value:  Size  Location     Type
 11002 ;;                  1    wreg      void 
 11003 ;; Registers used:
 11004 ;;		wreg, status,2, status,0, cstack
 11005 ;; Tracked objects:
 11006 ;;		On entry : 0/0
 11007 ;;		On exit  : 0/0
 11008 ;;		Unchanged: 0/0
 11009 ;; Data sizes:     COMRAM   BANK0   BANK1   BANK2   BANK3   BANK4   BANK5
 11010 ;;      Params:         0       0       0       0       0       0       0
 11011 ;;      Locals:         1       0       0       0       0       0       0
 11012 ;;      Temps:          1       0       0       0       0       0       0
 11013 ;;      Totals:         2       0       0       0       0       0       0
 11014 ;;Total ram usage:        2 bytes
 11015 ;; Hardware stack levels used: 1
 11016 ;; Hardware stack levels required when called: 1
 11017 ;; This function calls:
 11018 ;;		i2_set_bit
 11019 ;; This function is called by:
 11020 ;;		i2_lcd_send_byte
 11021 ;; This function uses a non-reentrant model
 11022 ;;
 11023                           
 11024                           	psect	text48
 11025  003CDC                     __ptext48:
 11026                           	callstack 0
 11027  003CDC                     i2_lcd_cmd:
 11028                           	callstack 17
 11029                           
 11030                           ;incstack = 0
 11031                           ;i2lcd_cmd@cmd stored from wreg
 11032  003CDC  6E04               	movwf	i2lcd_cmd@cmd^0,c
 11033  003CDE                     
 11034                           ;LCD4b_EXSTO.c: 42: void lcd_cmd(char cmd);LCD4b_EXSTO.c: 43: {;LCD4b_EXSTO.c: 44:     P
      +                          ORTDbits.RD4 = set_bit(cmd, 0b00010000);
 11035  003CDE  0E10               	movlw	16
 11036  003CE0  6E01               	movwf	i2set_bit@comp^0,c
 11037  003CE2  5004               	movf	i2lcd_cmd@cmd^0,w,c
 11038  003CE4  ECE9  F024         	call	i2_set_bit
 11039  003CE8  6E03               	movwf	??i2_lcd_cmd^0,c
 11040  003CEA  3A03               	swapf	??i2_lcd_cmd^0,f,c
 11041  003CEC  5083               	movf	131,w,c	;volatile
 11042  003CEE  1803               	xorwf	??i2_lcd_cmd^0,w,c
 11043  003CF0  0BEF               	andlw	-17
 11044  003CF2  1803               	xorwf	??i2_lcd_cmd^0,w,c
 11045  003CF4  6E83               	movwf	131,c	;volatile
 11046                           
 11047                           ;LCD4b_EXSTO.c: 45:     PORTDbits.RD5 = set_bit(cmd, 0b00100000);
 11048  003CF6  0E20               	movlw	32
 11049  003CF8  6E01               	movwf	i2set_bit@comp^0,c
 11050  003CFA  5004               	movf	i2lcd_cmd@cmd^0,w,c
 11051  003CFC  ECE9  F024         	call	i2_set_bit
 11052  003D00  6E03               	movwf	??i2_lcd_cmd^0,c
 11053  003D02  3A03               	swapf	??i2_lcd_cmd^0,f,c
 11054  003D04  4603               	rlncf	??i2_lcd_cmd^0,f,c
 11055  003D06  5083               	movf	131,w,c	;volatile
 11056  003D08  1803               	xorwf	??i2_lcd_cmd^0,w,c
 11057  003D0A  0BDF               	andlw	-33
 11058  003D0C  1803               	xorwf	??i2_lcd_cmd^0,w,c
 11059  003D0E  6E83               	movwf	131,c	;volatile
 11060                           
 11061                           ;LCD4b_EXSTO.c: 46:     PORTDbits.RD6 = set_bit(cmd, 0b01000000);
 11062  003D10  0E40               	movlw	64
 11063  003D12  6E01               	movwf	i2set_bit@comp^0,c
 11064  003D14  5004               	movf	i2lcd_cmd@cmd^0,w,c
 11065  003D16  ECE9  F024         	call	i2_set_bit
 11066  003D1A  6E03               	movwf	??i2_lcd_cmd^0,c
 11067  003D1C  3A03               	swapf	??i2_lcd_cmd^0,f,c
 11068  003D1E  4603               	rlncf	??i2_lcd_cmd^0,f,c
 11069  003D20  4603               	rlncf	??i2_lcd_cmd^0,f,c
 11070  003D22  5083               	movf	131,w,c	;volatile
 11071  003D24  1803               	xorwf	??i2_lcd_cmd^0,w,c
 11072  003D26  0BBF               	andlw	-65
 11073  003D28  1803               	xorwf	??i2_lcd_cmd^0,w,c
 11074  003D2A  6E83               	movwf	131,c	;volatile
 11075                           
 11076                           ;LCD4b_EXSTO.c: 47:     PORTDbits.RD7 = set_bit(cmd, 0b10000000);
 11077  003D2C  0E80               	movlw	128
 11078  003D2E  6E01               	movwf	i2set_bit@comp^0,c
 11079  003D30  5004               	movf	i2lcd_cmd@cmd^0,w,c
 11080  003D32  ECE9  F024         	call	i2_set_bit
 11081  003D36  6E03               	movwf	??i2_lcd_cmd^0,c
 11082  003D38  3203               	rrcf	??i2_lcd_cmd^0,f,c
 11083  003D3A  3203               	rrcf	??i2_lcd_cmd^0,f,c
 11084  003D3C  5083               	movf	131,w,c	;volatile
 11085  003D3E  1803               	xorwf	??i2_lcd_cmd^0,w,c
 11086  003D40  0B7F               	andlw	-129
 11087  003D42  1803               	xorwf	??i2_lcd_cmd^0,w,c
 11088  003D44  6E83               	movwf	131,c	;volatile
 11089  003D46                     
 11090                           ;LCD4b_EXSTO.c: 49:     PORTEbits.RE2 = 1;
 11091  003D46  8484               	bsf	132,2,c	;volatile
 11092  003D48                     
 11093                           ;LCD4b_EXSTO.c: 50:     PORTEbits.RE2 = 0;
 11094  003D48  9484               	bcf	132,2,c	;volatile
 11095  003D4A                     
 11096                           ;LCD4b_EXSTO.c: 52:     _delay((unsigned long)((100)*(8000000/4000000.0)));
 11097  003D4A  0E42               	movlw	66
 11098  003D4C                     i2u908_47:
 11099  003D4C  2EE8               	decfsz	wreg,f,c
 11100  003D4E  D7FE               	bra	i2u908_47
 11101  003D50  D000               	nop2	
 11102  003D52                     
 11103                           ;LCD4b_EXSTO.c: 54:     PORTDbits.RD4 = set_bit(cmd, 0b00000001);
 11104  003D52  0E01               	movlw	1
 11105  003D54  6E01               	movwf	i2set_bit@comp^0,c
 11106  003D56  5004               	movf	i2lcd_cmd@cmd^0,w,c
 11107  003D58  ECE9  F024         	call	i2_set_bit
 11108  003D5C  6E03               	movwf	??i2_lcd_cmd^0,c
 11109  003D5E  3A03               	swapf	??i2_lcd_cmd^0,f,c
 11110  003D60  5083               	movf	131,w,c	;volatile
 11111  003D62  1803               	xorwf	??i2_lcd_cmd^0,w,c
 11112  003D64  0BEF               	andlw	-17
 11113  003D66  1803               	xorwf	??i2_lcd_cmd^0,w,c
 11114  003D68  6E83               	movwf	131,c	;volatile
 11115  003D6A                     
 11116                           ;LCD4b_EXSTO.c: 55:     PORTDbits.RD5 = set_bit(cmd, 0b00000010);
 11117  003D6A  0E02               	movlw	2
 11118  003D6C  6E01               	movwf	i2set_bit@comp^0,c
 11119  003D6E  5004               	movf	i2lcd_cmd@cmd^0,w,c
 11120  003D70  ECE9  F024         	call	i2_set_bit
 11121  003D74  6E03               	movwf	??i2_lcd_cmd^0,c
 11122  003D76  3A03               	swapf	??i2_lcd_cmd^0,f,c
 11123  003D78  4603               	rlncf	??i2_lcd_cmd^0,f,c
 11124  003D7A  5083               	movf	131,w,c	;volatile
 11125  003D7C  1803               	xorwf	??i2_lcd_cmd^0,w,c
 11126  003D7E  0BDF               	andlw	-33
 11127  003D80  1803               	xorwf	??i2_lcd_cmd^0,w,c
 11128  003D82  6E83               	movwf	131,c	;volatile
 11129  003D84                     
 11130                           ;LCD4b_EXSTO.c: 56:     PORTDbits.RD6 = set_bit(cmd, 0b00000100);
 11131  003D84  0E04               	movlw	4
 11132  003D86  6E01               	movwf	i2set_bit@comp^0,c
 11133  003D88  5004               	movf	i2lcd_cmd@cmd^0,w,c
 11134  003D8A  ECE9  F024         	call	i2_set_bit
 11135  003D8E  6E03               	movwf	??i2_lcd_cmd^0,c
 11136  003D90  3A03               	swapf	??i2_lcd_cmd^0,f,c
 11137  003D92  4603               	rlncf	??i2_lcd_cmd^0,f,c
 11138  003D94  4603               	rlncf	??i2_lcd_cmd^0,f,c
 11139  003D96  5083               	movf	131,w,c	;volatile
 11140  003D98  1803               	xorwf	??i2_lcd_cmd^0,w,c
 11141  003D9A  0BBF               	andlw	-65
 11142  003D9C  1803               	xorwf	??i2_lcd_cmd^0,w,c
 11143  003D9E  6E83               	movwf	131,c	;volatile
 11144  003DA0                     
 11145                           ;LCD4b_EXSTO.c: 57:     PORTDbits.RD7 = set_bit(cmd, 0b00001000);
 11146  003DA0  0E08               	movlw	8
 11147  003DA2  6E01               	movwf	i2set_bit@comp^0,c
 11148  003DA4  5004               	movf	i2lcd_cmd@cmd^0,w,c
 11149  003DA6  ECE9  F024         	call	i2_set_bit
 11150  003DAA  6E03               	movwf	??i2_lcd_cmd^0,c
 11151  003DAC  3203               	rrcf	??i2_lcd_cmd^0,f,c
 11152  003DAE  3203               	rrcf	??i2_lcd_cmd^0,f,c
 11153  003DB0  5083               	movf	131,w,c	;volatile
 11154  003DB2  1803               	xorwf	??i2_lcd_cmd^0,w,c
 11155  003DB4  0B7F               	andlw	-129
 11156  003DB6  1803               	xorwf	??i2_lcd_cmd^0,w,c
 11157  003DB8  6E83               	movwf	131,c	;volatile
 11158  003DBA                     
 11159                           ;LCD4b_EXSTO.c: 59:     PORTEbits.RE2 = 1;
 11160  003DBA  8484               	bsf	132,2,c	;volatile
 11161  003DBC                     
 11162                           ;LCD4b_EXSTO.c: 60:     PORTEbits.RE2 = 0;
 11163  003DBC  9484               	bcf	132,2,c	;volatile
 11164  003DBE  0012               	return		;funcret
 11165  003DC0                     __end_ofi2_lcd_cmd:
 11166                           	callstack 0
 11167                           
 11168 ;; *************** function i2_set_bit *****************
 11169 ;; Defined at:
 11170 ;;		line 36 in file "LCD4b_EXSTO.c"
 11171 ;; Parameters:    Size  Location     Type
 11172 ;;  cmd             1    wreg     unsigned char 
 11173 ;;  comp            1    0[COMRAM] unsigned char 
 11174 ;; Auto vars:     Size  Location     Type
 11175 ;;  cmd             1    1[COMRAM] unsigned char 
 11176 ;; Return value:  Size  Location     Type
 11177 ;;                  1    wreg      unsigned char 
 11178 ;; Registers used:
 11179 ;;		wreg, status,2, status,0
 11180 ;; Tracked objects:
 11181 ;;		On entry : 0/0
 11182 ;;		On exit  : 0/0
 11183 ;;		Unchanged: 0/0
 11184 ;; Data sizes:     COMRAM   BANK0   BANK1   BANK2   BANK3   BANK4   BANK5
 11185 ;;      Params:         1       0       0       0       0       0       0
 11186 ;;      Locals:         1       0       0       0       0       0       0
 11187 ;;      Temps:          0       0       0       0       0       0       0
 11188 ;;      Totals:         2       0       0       0       0       0       0
 11189 ;;Total ram usage:        2 bytes
 11190 ;; Hardware stack levels used: 1
 11191 ;; This function calls:
 11192 ;;		Nothing
 11193 ;; This function is called by:
 11194 ;;		i2_lcd_cmd
 11195 ;; This function uses a non-reentrant model
 11196 ;;
 11197                           
 11198                           	psect	text49
 11199  0049D2                     __ptext49:
 11200                           	callstack 0
 11201  0049D2                     i2_set_bit:
 11202                           	callstack 17
 11203                           
 11204                           ;incstack = 0
 11205                           ;i2set_bit@cmd stored from wreg
 11206  0049D2  6E02               	movwf	i2set_bit@cmd^0,c
 11207  0049D4                     
 11208                           ;LCD4b_EXSTO.c: 36: char set_bit(char cmd, char comp);LCD4b_EXSTO.c: 37: {;LCD4b_EXSTO.c
      +                          : 38:     if((cmd & comp) >= 1) return 1;
 11209  0049D4  5002               	movf	i2set_bit@cmd^0,w,c
 11210  0049D6  1401               	andwf	i2set_bit@comp^0,w,c
 11211  0049D8  0900               	iorlw	0
 11212  0049DA  B4D8               	btfsc	status,2,c
 11213  0049DC  EFF2  F024         	goto	i2u535_41
 11214  0049E0  EFF4  F024         	goto	i2u535_40
 11215  0049E4                     i2u535_41:
 11216  0049E4  EFF7  F024         	goto	i2l4386
 11217  0049E8                     i2u535_40:
 11218  0049E8  0E01               	movlw	1
 11219  0049EA  EFF8  F024         	goto	i2l144
 11220  0049EE                     i2l4386:
 11221  0049EE  0E00               	movlw	0
 11222  0049F0                     i2l144:
 11223  0049F0  0012               	return		;funcret
 11224  0049F2                     __end_ofi2_set_bit:
 11225                           	callstack 0
 11226                           
 11227 ;; *************** function i2_equation_SENSOR *****************
 11228 ;; Defined at:
 11229 ;;		line 112 in file "Program_Interrupt_Level.c"
 11230 ;; Parameters:    Size  Location     Type
 11231 ;;		None
 11232 ;; Auto vars:     Size  Location     Type
 11233 ;;		None
 11234 ;; Return value:  Size  Location     Type
 11235 ;;                  1    wreg      void 
 11236 ;; Registers used:
 11237 ;;		wreg, status,2, status,0, prodl, prodh, cstack
 11238 ;; Tracked objects:
 11239 ;;		On entry : 0/0
 11240 ;;		On exit  : 0/0
 11241 ;;		Unchanged: 0/0
 11242 ;; Data sizes:     COMRAM   BANK0   BANK1   BANK2   BANK3   BANK4   BANK5
 11243 ;;      Params:         0       0       0       0       0       0       0
 11244 ;;      Locals:         0       0       0       0       0       0       0
 11245 ;;      Temps:          0       0       0       0       0       0       0
 11246 ;;      Totals:         0       0       0       0       0       0       0
 11247 ;;Total ram usage:        0 bytes
 11248 ;; Hardware stack levels used: 1
 11249 ;; Hardware stack levels required when called: 1
 11250 ;; This function calls:
 11251 ;;		i2___fldiv
 11252 ;;		i2___flmul
 11253 ;;		i2___xxtofl
 11254 ;; This function is called by:
 11255 ;;		_config_HighLevel
 11256 ;; This function uses a non-reentrant model
 11257 ;;
 11258                           
 11259                           	psect	text50
 11260  0044B6                     __ptext50:
 11261                           	callstack 0
 11262  0044B6                     i2_equation_SENSOR:
 11263                           	callstack 19
 11264  0044B6                     
 11265                           ;Program_Interrupt_Level.c: 114:     Voltage_AN0 = 0.0048875 * VdigADC_AN0;
 11266  0044B6  C04C  F001         	movff	_VdigADC_AN0,i2___xxtofl@val
 11267  0044BA  C04D  F002         	movff	_VdigADC_AN0+1,i2___xxtofl@val+1
 11268  0044BE  6A03               	clrf	(i2___xxtofl@val+2)^0,c
 11269  0044C0  6A04               	clrf	(i2___xxtofl@val+3)^0,c
 11270  0044C2  0E00               	movlw	0
 11271  0044C4  ECEF  F019         	call	i2___xxtofl
 11272  0044C8  C001  F00F         	movff	?i2___xxtofl,i2___flmul@b
 11273  0044CC  C002  F010         	movff	?i2___xxtofl+1,i2___flmul@b+1
 11274  0044D0  C003  F011         	movff	?i2___xxtofl+2,i2___flmul@b+2
 11275  0044D4  C004  F012         	movff	?i2___xxtofl+3,i2___flmul@b+3
 11276  0044D8  0E52               	movlw	82
 11277  0044DA  6E13               	movwf	i2___flmul@a^0,c
 11278  0044DC  0E27               	movlw	39
 11279  0044DE  6E14               	movwf	(i2___flmul@a+1)^0,c
 11280  0044E0  0EA0               	movlw	160
 11281  0044E2  6E15               	movwf	(i2___flmul@a+2)^0,c
 11282  0044E4  0E3B               	movlw	59
 11283  0044E6  6E16               	movwf	(i2___flmul@a+3)^0,c
 11284  0044E8  ECD9  F00F         	call	i2___flmul	;wreg free
 11285  0044EC  C00F  F040         	movff	?i2___flmul,_Voltage_AN0
 11286  0044F0  C010  F041         	movff	?i2___flmul+1,_Voltage_AN0+1
 11287  0044F4  C011  F042         	movff	?i2___flmul+2,_Voltage_AN0+2
 11288  0044F8  C012  F043         	movff	?i2___flmul+3,_Voltage_AN0+3
 11289  0044FC                     
 11290                           ;Program_Interrupt_Level.c: 115:     Level_AN0 = Voltage_AN0 / 0.002;
 11291  0044FC  C040  F001         	movff	_Voltage_AN0,i2___fldiv@b
 11292  004500  C041  F002         	movff	_Voltage_AN0+1,i2___fldiv@b+1
 11293  004504  C042  F003         	movff	_Voltage_AN0+2,i2___fldiv@b+2
 11294  004508  C043  F004         	movff	_Voltage_AN0+3,i2___fldiv@b+3
 11295  00450C  0E6F               	movlw	111
 11296  00450E  6E05               	movwf	i2___fldiv@a^0,c
 11297  004510  0E12               	movlw	18
 11298  004512  6E06               	movwf	(i2___fldiv@a+1)^0,c
 11299  004514  0E03               	movlw	3
 11300  004516  6E07               	movwf	(i2___fldiv@a+2)^0,c
 11301  004518  0E3B               	movlw	59
 11302  00451A  6E08               	movwf	(i2___fldiv@a+3)^0,c
 11303  00451C  ECBC  F013         	call	i2___fldiv	;wreg free
 11304  004520  C001  F0F9         	movff	?i2___fldiv,_Level_AN0
 11305  004524  C002  F0FA         	movff	?i2___fldiv+1,_Level_AN0+1
 11306  004528  C003  F0FB         	movff	?i2___fldiv+2,_Level_AN0+2
 11307  00452C  C004  F0FC         	movff	?i2___fldiv+3,_Level_AN0+3
 11308  004530  0012               	return		;funcret
 11309  004532                     __end_ofi2_equation_SENSOR:
 11310                           	callstack 0
 11311                           
 11312 ;; *************** function i2___xxtofl *****************
 11313 ;; Defined at:
 11314 ;;		line 10 in file "C:\Program Files\Microchip\xc8\v2.36\pic\sources\c99\common\xxtofl.c"
 11315 ;; Parameters:    Size  Location     Type
 11316 ;;  sign            1    wreg     unsigned char 
 11317 ;;  val             4    0[COMRAM] long 
 11318 ;; Auto vars:     Size  Location     Type
 11319 ;;  sign            1    8[COMRAM] unsigned char 
 11320 ;;  arg             4   10[COMRAM] unsigned long 
 11321 ;;  exp             1    9[COMRAM] unsigned char 
 11322 ;; Return value:  Size  Location     Type
 11323 ;;                  4    0[COMRAM] unsigned char 
 11324 ;; Registers used:
 11325 ;;		wreg, status,2, status,0
 11326 ;; Tracked objects:
 11327 ;;		On entry : 0/0
 11328 ;;		On exit  : 0/0
 11329 ;;		Unchanged: 0/0
 11330 ;; Data sizes:     COMRAM   BANK0   BANK1   BANK2   BANK3   BANK4   BANK5
 11331 ;;      Params:         4       0       0       0       0       0       0
 11332 ;;      Locals:         6       0       0       0       0       0       0
 11333 ;;      Temps:          4       0       0       0       0       0       0
 11334 ;;      Totals:        14       0       0       0       0       0       0
 11335 ;;Total ram usage:       14 bytes
 11336 ;; Hardware stack levels used: 1
 11337 ;; This function calls:
 11338 ;;		Nothing
 11339 ;; This function is called by:
 11340 ;;		i2_equation_SENSOR
 11341 ;; This function uses a non-reentrant model
 11342 ;;
 11343                           
 11344                           	psect	text51
 11345  0033DE                     __ptext51:
 11346                           	callstack 0
 11347  0033DE                     i2___xxtofl:
 11348                           	callstack 19
 11349                           
 11350                           ;incstack = 0
 11351                           ;i2___xxtofl@sign stored from wreg
 11352  0033DE  6E09               	movwf	i2___xxtofl@sign^0,c
 11353  0033E0  5009               	movf	i2___xxtofl@sign^0,w,c
 11354  0033E2  B4D8               	btfsc	status,2,c
 11355  0033E4  EFF6  F019         	goto	i2u596_41
 11356  0033E8  EFF8  F019         	goto	i2u596_40
 11357  0033EC                     i2u596_41:
 11358  0033EC  EF1A  F01A         	goto	i2l821
 11359  0033F0                     i2u596_40:
 11360  0033F0  BE04               	btfsc	(i2___xxtofl@val+3)^0,7,c
 11361  0033F2  EFFF  F019         	goto	i2u597_40
 11362  0033F6  EFFD  F019         	goto	i2u597_41
 11363  0033FA                     i2u597_41:
 11364  0033FA  EF1A  F01A         	goto	i2l821
 11365  0033FE                     i2u597_40:
 11366  0033FE  C001  F005         	movff	i2___xxtofl@val,??i2___xxtofl
 11367  003402  C002  F006         	movff	i2___xxtofl@val+1,??i2___xxtofl+1
 11368  003406  C003  F007         	movff	i2___xxtofl@val+2,??i2___xxtofl+2
 11369  00340A  C004  F008         	movff	i2___xxtofl@val+3,??i2___xxtofl+3
 11370  00340E  1E05               	comf	??i2___xxtofl^0,f,c
 11371  003410  1E06               	comf	(??i2___xxtofl+1)^0,f,c
 11372  003412  1E07               	comf	(??i2___xxtofl+2)^0,f,c
 11373  003414  1E08               	comf	(??i2___xxtofl+3)^0,f,c
 11374  003416  2A05               	incf	??i2___xxtofl^0,f,c
 11375  003418  0E00               	movlw	0
 11376  00341A  2206               	addwfc	(??i2___xxtofl+1)^0,f,c
 11377  00341C  2207               	addwfc	(??i2___xxtofl+2)^0,f,c
 11378  00341E  2208               	addwfc	(??i2___xxtofl+3)^0,f,c
 11379  003420  C005  F00B         	movff	??i2___xxtofl,i2___xxtofl@arg
 11380  003424  C006  F00C         	movff	??i2___xxtofl+1,i2___xxtofl@arg+1
 11381  003428  C007  F00D         	movff	??i2___xxtofl+2,i2___xxtofl@arg+2
 11382  00342C  C008  F00E         	movff	??i2___xxtofl+3,i2___xxtofl@arg+3
 11383  003430  EF22  F01A         	goto	i2l4782
 11384  003434                     i2l821:
 11385  003434  C001  F00B         	movff	i2___xxtofl@val,i2___xxtofl@arg
 11386  003438  C002  F00C         	movff	i2___xxtofl@val+1,i2___xxtofl@arg+1
 11387  00343C  C003  F00D         	movff	i2___xxtofl@val+2,i2___xxtofl@arg+2
 11388  003440  C004  F00E         	movff	i2___xxtofl@val+3,i2___xxtofl@arg+3
 11389  003444                     i2l4782:
 11390  003444  5001               	movf	i2___xxtofl@val^0,w,c
 11391  003446  1002               	iorwf	(i2___xxtofl@val+1)^0,w,c
 11392  003448  1003               	iorwf	(i2___xxtofl@val+2)^0,w,c
 11393  00344A  1004               	iorwf	(i2___xxtofl@val+3)^0,w,c
 11394  00344C  A4D8               	btfss	status,2,c
 11395  00344E  EF2B  F01A         	goto	i2u598_41
 11396  003452  EF2D  F01A         	goto	i2u598_40
 11397  003456                     i2u598_41:
 11398  003456  EF37  F01A         	goto	i2l4788
 11399  00345A                     i2u598_40:
 11400  00345A  0E00               	movlw	0
 11401  00345C  6E01               	movwf	?i2___xxtofl^0,c
 11402  00345E  0E00               	movlw	0
 11403  003460  6E02               	movwf	(?i2___xxtofl+1)^0,c
 11404  003462  0E00               	movlw	0
 11405  003464  6E03               	movwf	(?i2___xxtofl+2)^0,c
 11406  003466  0E00               	movlw	0
 11407  003468  6E04               	movwf	(?i2___xxtofl+3)^0,c
 11408  00346A  EFC8  F01A         	goto	i2l824
 11409  00346E                     i2l4788:
 11410  00346E  0E96               	movlw	150
 11411  003470  6E0A               	movwf	i2___xxtofl@exp^0,c
 11412  003472  EF41  F01A         	goto	i2l4792
 11413  003476                     i2l4790:
 11414  003476  2A0A               	incf	i2___xxtofl@exp^0,f,c
 11415  003478  90D8               	bcf	status,0,c
 11416  00347A  320E               	rrcf	(i2___xxtofl@arg+3)^0,f,c
 11417  00347C  320D               	rrcf	(i2___xxtofl@arg+2)^0,f,c
 11418  00347E  320C               	rrcf	(i2___xxtofl@arg+1)^0,f,c
 11419  003480  320B               	rrcf	i2___xxtofl@arg^0,f,c
 11420  003482                     i2l4792:
 11421  003482  0E00               	movlw	0
 11422  003484  140B               	andwf	i2___xxtofl@arg^0,w,c
 11423  003486  6E05               	movwf	??i2___xxtofl^0,c
 11424  003488  0E00               	movlw	0
 11425  00348A  140C               	andwf	(i2___xxtofl@arg+1)^0,w,c
 11426  00348C  6E06               	movwf	(??i2___xxtofl+1)^0,c
 11427  00348E  0E00               	movlw	0
 11428  003490  140D               	andwf	(i2___xxtofl@arg+2)^0,w,c
 11429  003492  6E07               	movwf	(??i2___xxtofl+2)^0,c
 11430  003494  0EFE               	movlw	254
 11431  003496  140E               	andwf	(i2___xxtofl@arg+3)^0,w,c
 11432  003498  6E08               	movwf	(??i2___xxtofl+3)^0,c
 11433  00349A  5005               	movf	??i2___xxtofl^0,w,c
 11434  00349C  1006               	iorwf	(??i2___xxtofl+1)^0,w,c
 11435  00349E  1007               	iorwf	(??i2___xxtofl+2)^0,w,c
 11436  0034A0  1008               	iorwf	(??i2___xxtofl+3)^0,w,c
 11437  0034A2  A4D8               	btfss	status,2,c
 11438  0034A4  EF56  F01A         	goto	i2u599_41
 11439  0034A8  EF58  F01A         	goto	i2u599_40
 11440  0034AC                     i2u599_41:
 11441  0034AC  EF3B  F01A         	goto	i2l4790
 11442  0034B0                     i2u599_40:
 11443  0034B0  EF66  F01A         	goto	i2l828
 11444  0034B4                     i2l4794:
 11445  0034B4  2A0A               	incf	i2___xxtofl@exp^0,f,c
 11446  0034B6  0E01               	movlw	1
 11447  0034B8  260B               	addwf	i2___xxtofl@arg^0,f,c
 11448  0034BA  0E00               	movlw	0
 11449  0034BC  220C               	addwfc	(i2___xxtofl@arg+1)^0,f,c
 11450  0034BE  220D               	addwfc	(i2___xxtofl@arg+2)^0,f,c
 11451  0034C0  220E               	addwfc	(i2___xxtofl@arg+3)^0,f,c
 11452  0034C2  90D8               	bcf	status,0,c
 11453  0034C4  320E               	rrcf	(i2___xxtofl@arg+3)^0,f,c
 11454  0034C6  320D               	rrcf	(i2___xxtofl@arg+2)^0,f,c
 11455  0034C8  320C               	rrcf	(i2___xxtofl@arg+1)^0,f,c
 11456  0034CA  320B               	rrcf	i2___xxtofl@arg^0,f,c
 11457  0034CC                     i2l828:
 11458  0034CC  0E00               	movlw	0
 11459  0034CE  140B               	andwf	i2___xxtofl@arg^0,w,c
 11460  0034D0  6E05               	movwf	??i2___xxtofl^0,c
 11461  0034D2  0E00               	movlw	0
 11462  0034D4  140C               	andwf	(i2___xxtofl@arg+1)^0,w,c
 11463  0034D6  6E06               	movwf	(??i2___xxtofl+1)^0,c
 11464  0034D8  0E00               	movlw	0
 11465  0034DA  140D               	andwf	(i2___xxtofl@arg+2)^0,w,c
 11466  0034DC  6E07               	movwf	(??i2___xxtofl+2)^0,c
 11467  0034DE  0EFF               	movlw	255
 11468  0034E0  140E               	andwf	(i2___xxtofl@arg+3)^0,w,c
 11469  0034E2  6E08               	movwf	(??i2___xxtofl+3)^0,c
 11470  0034E4  5005               	movf	??i2___xxtofl^0,w,c
 11471  0034E6  1006               	iorwf	(??i2___xxtofl+1)^0,w,c
 11472  0034E8  1007               	iorwf	(??i2___xxtofl+2)^0,w,c
 11473  0034EA  1008               	iorwf	(??i2___xxtofl+3)^0,w,c
 11474  0034EC  A4D8               	btfss	status,2,c
 11475  0034EE  EF7B  F01A         	goto	i2u600_41
 11476  0034F2  EF7D  F01A         	goto	i2u600_40
 11477  0034F6                     i2u600_41:
 11478  0034F6  EF5A  F01A         	goto	i2l4794
 11479  0034FA                     i2u600_40:
 11480  0034FA  EF85  F01A         	goto	i2l4802
 11481  0034FE                     i2l4800:
 11482  0034FE  060A               	decf	i2___xxtofl@exp^0,f,c
 11483  003500  90D8               	bcf	status,0,c
 11484  003502  360B               	rlcf	i2___xxtofl@arg^0,f,c
 11485  003504  360C               	rlcf	(i2___xxtofl@arg+1)^0,f,c
 11486  003506  360D               	rlcf	(i2___xxtofl@arg+2)^0,f,c
 11487  003508  360E               	rlcf	(i2___xxtofl@arg+3)^0,f,c
 11488  00350A                     i2l4802:
 11489  00350A  BE0D               	btfsc	(i2___xxtofl@arg+2)^0,7,c
 11490  00350C  EF8A  F01A         	goto	i2u601_41
 11491  003510  EF8C  F01A         	goto	i2u601_40
 11492  003514                     i2u601_41:
 11493  003514  EF94  F01A         	goto	i2l835
 11494  003518                     i2u601_40:
 11495  003518  0E02               	movlw	2
 11496  00351A  600A               	cpfslt	i2___xxtofl@exp^0,c
 11497  00351C  EF92  F01A         	goto	i2u602_41
 11498  003520  EF94  F01A         	goto	i2u602_40
 11499  003524                     i2u602_41:
 11500  003524  EF7F  F01A         	goto	i2l4800
 11501  003528                     i2u602_40:
 11502  003528                     i2l835:
 11503  003528  B00A               	btfsc	i2___xxtofl@exp^0,0,c
 11504  00352A  EF99  F01A         	goto	i2u603_41
 11505  00352E  EF9B  F01A         	goto	i2u603_40
 11506  003532                     i2u603_41:
 11507  003532  EF9C  F01A         	goto	i2l4808
 11508  003536                     i2u603_40:
 11509  003536  9E0D               	bcf	(i2___xxtofl@arg+2)^0,7,c
 11510  003538                     i2l4808:
 11511  003538  90D8               	bcf	status,0,c
 11512  00353A  320A               	rrcf	i2___xxtofl@exp^0,f,c
 11513  00353C  C00A  F005         	movff	i2___xxtofl@exp,??i2___xxtofl
 11514  003540  6A06               	clrf	(??i2___xxtofl+1)^0,c
 11515  003542  6A07               	clrf	(??i2___xxtofl+2)^0,c
 11516  003544  6A08               	clrf	(??i2___xxtofl+3)^0,c
 11517  003546  C005  F008         	movff	??i2___xxtofl,??i2___xxtofl+3
 11518  00354A  6A07               	clrf	(??i2___xxtofl+2)^0,c
 11519  00354C  6A06               	clrf	(??i2___xxtofl+1)^0,c
 11520  00354E  6A05               	clrf	??i2___xxtofl^0,c
 11521  003550  5005               	movf	??i2___xxtofl^0,w,c
 11522  003552  120B               	iorwf	i2___xxtofl@arg^0,f,c
 11523  003554  5006               	movf	(??i2___xxtofl+1)^0,w,c
 11524  003556  120C               	iorwf	(i2___xxtofl@arg+1)^0,f,c
 11525  003558  5007               	movf	(??i2___xxtofl+2)^0,w,c
 11526  00355A  120D               	iorwf	(i2___xxtofl@arg+2)^0,f,c
 11527  00355C  5008               	movf	(??i2___xxtofl+3)^0,w,c
 11528  00355E  120E               	iorwf	(i2___xxtofl@arg+3)^0,f,c
 11529  003560  5009               	movf	i2___xxtofl@sign^0,w,c
 11530  003562  B4D8               	btfsc	status,2,c
 11531  003564  EFB6  F01A         	goto	i2u604_41
 11532  003568  EFB8  F01A         	goto	i2u604_40
 11533  00356C                     i2u604_41:
 11534  00356C  EFC0  F01A         	goto	i2l4818
 11535  003570                     i2u604_40:
 11536  003570  BE04               	btfsc	(i2___xxtofl@val+3)^0,7,c
 11537  003572  EFBF  F01A         	goto	i2u605_40
 11538  003576  EFBD  F01A         	goto	i2u605_41
 11539  00357A                     i2u605_41:
 11540  00357A  EFC0  F01A         	goto	i2l4818
 11541  00357E                     i2u605_40:
 11542  00357E  8E0E               	bsf	(i2___xxtofl@arg+3)^0,7,c
 11543  003580                     i2l4818:
 11544  003580  C00B  F001         	movff	i2___xxtofl@arg,?i2___xxtofl
 11545  003584  C00C  F002         	movff	i2___xxtofl@arg+1,?i2___xxtofl+1
 11546  003588  C00D  F003         	movff	i2___xxtofl@arg+2,?i2___xxtofl+2
 11547  00358C  C00E  F004         	movff	i2___xxtofl@arg+3,?i2___xxtofl+3
 11548  003590                     i2l824:
 11549  003590  0012               	return		;funcret
 11550  003592                     __end_ofi2___xxtofl:
 11551                           	callstack 0
 11552                           
 11553 ;; *************** function i2___flmul *****************
 11554 ;; Defined at:
 11555 ;;		line 8 in file "C:\Program Files\Microchip\xc8\v2.36\pic\sources\c99\common\sprcmul.c"
 11556 ;; Parameters:    Size  Location     Type
 11557 ;;  b               4   14[COMRAM] unsigned char 
 11558 ;;  a               4   18[COMRAM] unsigned char 
 11559 ;; Auto vars:     Size  Location     Type
 11560 ;;  prod            4   33[COMRAM] struct .
 11561 ;;  grs             4   27[COMRAM] unsigned long 
 11562 ;;  temp            2   37[COMRAM] struct .
 11563 ;;  bexp            1   32[COMRAM] unsigned char 
 11564 ;;  aexp            1   31[COMRAM] unsigned char 
 11565 ;;  sign            1   26[COMRAM] unsigned char 
 11566 ;; Return value:  Size  Location     Type
 11567 ;;                  4   14[COMRAM] unsigned char 
 11568 ;; Registers used:
 11569 ;;		wreg, status,2, status,0, prodl, prodh
 11570 ;; Tracked objects:
 11571 ;;		On entry : 0/0
 11572 ;;		On exit  : 0/0
 11573 ;;		Unchanged: 0/0
 11574 ;; Data sizes:     COMRAM   BANK0   BANK1   BANK2   BANK3   BANK4   BANK5
 11575 ;;      Params:         8       0       0       0       0       0       0
 11576 ;;      Locals:        13       0       0       0       0       0       0
 11577 ;;      Temps:          4       0       0       0       0       0       0
 11578 ;;      Totals:        25       0       0       0       0       0       0
 11579 ;;Total ram usage:       25 bytes
 11580 ;; Hardware stack levels used: 1
 11581 ;; This function calls:
 11582 ;;		Nothing
 11583 ;; This function is called by:
 11584 ;;		i2_equation_SENSOR
 11585 ;; This function uses a non-reentrant model
 11586 ;;
 11587                           
 11588                           	psect	text52
 11589  001FB2                     __ptext52:
 11590                           	callstack 0
 11591  001FB2                     i2___flmul:
 11592                           	callstack 19
 11593  001FB2  5012               	movf	(i2___flmul@b+3)^0,w,c
 11594  001FB4  0B80               	andlw	128
 11595  001FB6  6E1B               	movwf	i2___flmul@sign^0,c
 11596  001FB8  5012               	movf	(i2___flmul@b+3)^0,w,c
 11597  001FBA  2412               	addwf	(i2___flmul@b+3)^0,w,c
 11598  001FBC  6E21               	movwf	i2___flmul@bexp^0,c
 11599  001FBE  AE11               	btfss	(i2___flmul@b+2)^0,7,c
 11600  001FC0  EFE4  F00F         	goto	i2u577_41
 11601  001FC4  EFE6  F00F         	goto	i2u577_40
 11602  001FC8                     i2u577_41:
 11603  001FC8  EFE7  F00F         	goto	i2l4652
 11604  001FCC                     i2u577_40:
 11605  001FCC  8021               	bsf	i2___flmul@bexp^0,0,c
 11606  001FCE                     i2l4652:
 11607  001FCE  5021               	movf	i2___flmul@bexp^0,w,c
 11608  001FD0  B4D8               	btfsc	status,2,c
 11609  001FD2  EFED  F00F         	goto	i2u578_41
 11610  001FD6  EFEF  F00F         	goto	i2u578_40
 11611  001FDA                     i2u578_41:
 11612  001FDA  EF02  F010         	goto	i2l4660
 11613  001FDE                     i2u578_40:
 11614  001FDE  2821               	incf	i2___flmul@bexp^0,w,c
 11615  001FE0  A4D8               	btfss	status,2,c
 11616  001FE2  EFF5  F00F         	goto	i2u579_41
 11617  001FE6  EFF7  F00F         	goto	i2u579_40
 11618  001FEA                     i2u579_41:
 11619  001FEA  EFFF  F00F         	goto	i2l4658
 11620  001FEE                     i2u579_40:
 11621  001FEE  0E00               	movlw	0
 11622  001FF0  6E0F               	movwf	i2___flmul@b^0,c
 11623  001FF2  0E00               	movlw	0
 11624  001FF4  6E10               	movwf	(i2___flmul@b+1)^0,c
 11625  001FF6  0E00               	movlw	0
 11626  001FF8  6E11               	movwf	(i2___flmul@b+2)^0,c
 11627  001FFA  0E00               	movlw	0
 11628  001FFC  6E12               	movwf	(i2___flmul@b+3)^0,c
 11629  001FFE                     i2l4658:
 11630  001FFE  8E11               	bsf	(i2___flmul@b+2)^0,7,c
 11631  002000  EF0A  F010         	goto	i2l4662
 11632  002004                     i2l4660:
 11633  002004  0E00               	movlw	0
 11634  002006  6E0F               	movwf	i2___flmul@b^0,c
 11635  002008  0E00               	movlw	0
 11636  00200A  6E10               	movwf	(i2___flmul@b+1)^0,c
 11637  00200C  0E00               	movlw	0
 11638  00200E  6E11               	movwf	(i2___flmul@b+2)^0,c
 11639  002010  0E00               	movlw	0
 11640  002012  6E12               	movwf	(i2___flmul@b+3)^0,c
 11641  002014                     i2l4662:
 11642  002014  5016               	movf	(i2___flmul@a+3)^0,w,c
 11643  002016  0B80               	andlw	128
 11644  002018  1A1B               	xorwf	i2___flmul@sign^0,f,c
 11645  00201A  5016               	movf	(i2___flmul@a+3)^0,w,c
 11646  00201C  2416               	addwf	(i2___flmul@a+3)^0,w,c
 11647  00201E  6E20               	movwf	i2___flmul@aexp^0,c
 11648  002020  AE15               	btfss	(i2___flmul@a+2)^0,7,c
 11649  002022  EF15  F010         	goto	i2u580_41
 11650  002026  EF17  F010         	goto	i2u580_40
 11651  00202A                     i2u580_41:
 11652  00202A  EF18  F010         	goto	i2l4670
 11653  00202E                     i2u580_40:
 11654  00202E  8020               	bsf	i2___flmul@aexp^0,0,c
 11655  002030                     i2l4670:
 11656  002030  5020               	movf	i2___flmul@aexp^0,w,c
 11657  002032  B4D8               	btfsc	status,2,c
 11658  002034  EF1E  F010         	goto	i2u581_41
 11659  002038  EF20  F010         	goto	i2u581_40
 11660  00203C                     i2u581_41:
 11661  00203C  EF33  F010         	goto	i2l4678
 11662  002040                     i2u581_40:
 11663  002040  2820               	incf	i2___flmul@aexp^0,w,c
 11664  002042  A4D8               	btfss	status,2,c
 11665  002044  EF26  F010         	goto	i2u582_41
 11666  002048  EF28  F010         	goto	i2u582_40
 11667  00204C                     i2u582_41:
 11668  00204C  EF30  F010         	goto	i2l4676
 11669  002050                     i2u582_40:
 11670  002050  0E00               	movlw	0
 11671  002052  6E13               	movwf	i2___flmul@a^0,c
 11672  002054  0E00               	movlw	0
 11673  002056  6E14               	movwf	(i2___flmul@a+1)^0,c
 11674  002058  0E00               	movlw	0
 11675  00205A  6E15               	movwf	(i2___flmul@a+2)^0,c
 11676  00205C  0E00               	movlw	0
 11677  00205E  6E16               	movwf	(i2___flmul@a+3)^0,c
 11678  002060                     i2l4676:
 11679  002060  8E15               	bsf	(i2___flmul@a+2)^0,7,c
 11680  002062  EF3B  F010         	goto	i2l780
 11681  002066                     i2l4678:
 11682  002066  0E00               	movlw	0
 11683  002068  6E13               	movwf	i2___flmul@a^0,c
 11684  00206A  0E00               	movlw	0
 11685  00206C  6E14               	movwf	(i2___flmul@a+1)^0,c
 11686  00206E  0E00               	movlw	0
 11687  002070  6E15               	movwf	(i2___flmul@a+2)^0,c
 11688  002072  0E00               	movlw	0
 11689  002074  6E16               	movwf	(i2___flmul@a+3)^0,c
 11690  002076                     i2l780:
 11691  002076  5020               	movf	i2___flmul@aexp^0,w,c
 11692  002078  B4D8               	btfsc	status,2,c
 11693  00207A  EF41  F010         	goto	i2u583_41
 11694  00207E  EF43  F010         	goto	i2u583_40
 11695  002082                     i2u583_41:
 11696  002082  EF4B  F010         	goto	i2l4682
 11697  002086                     i2u583_40:
 11698  002086  5021               	movf	i2___flmul@bexp^0,w,c
 11699  002088  A4D8               	btfss	status,2,c
 11700  00208A  EF49  F010         	goto	i2u584_41
 11701  00208E  EF4B  F010         	goto	i2u584_40
 11702  002092                     i2u584_41:
 11703  002092  EF55  F010         	goto	i2l4686
 11704  002096                     i2u584_40:
 11705  002096                     i2l4682:
 11706  002096  0E00               	movlw	0
 11707  002098  6E0F               	movwf	?i2___flmul^0,c
 11708  00209A  0E00               	movlw	0
 11709  00209C  6E10               	movwf	(?i2___flmul+1)^0,c
 11710  00209E  0E00               	movlw	0
 11711  0020A0  6E11               	movwf	(?i2___flmul+2)^0,c
 11712  0020A2  0E00               	movlw	0
 11713  0020A4  6E12               	movwf	(?i2___flmul+3)^0,c
 11714  0020A6  EFED  F011         	goto	i2l784
 11715  0020AA                     i2l4686:
 11716  0020AA  5015               	movf	(i2___flmul@a+2)^0,w,c
 11717  0020AC  020F               	mulwf	i2___flmul@b^0,c
 11718  0020AE  CFF3 F026          	movff	prodl,i2___flmul@temp
 11719  0020B2  CFF4 F027          	movff	prodh,i2___flmul@temp+1
 11720  0020B6  5026               	movf	i2___flmul@temp^0,w,c
 11721  0020B8  6E1C               	movwf	i2___flmul@grs^0,c
 11722  0020BA  6A1D               	clrf	(i2___flmul@grs+1)^0,c
 11723  0020BC  6A1E               	clrf	(i2___flmul@grs+2)^0,c
 11724  0020BE  6A1F               	clrf	(i2___flmul@grs+3)^0,c
 11725  0020C0  5027               	movf	(i2___flmul@temp+1)^0,w,c
 11726  0020C2  6E22               	movwf	i2___flmul@prod^0,c
 11727  0020C4  6A23               	clrf	(i2___flmul@prod+1)^0,c
 11728  0020C6  6A24               	clrf	(i2___flmul@prod+2)^0,c
 11729  0020C8  6A25               	clrf	(i2___flmul@prod+3)^0,c
 11730  0020CA  5014               	movf	(i2___flmul@a+1)^0,w,c
 11731  0020CC  0210               	mulwf	(i2___flmul@b+1)^0,c
 11732  0020CE  CFF3 F026          	movff	prodl,i2___flmul@temp
 11733  0020D2  CFF4 F027          	movff	prodh,i2___flmul@temp+1
 11734  0020D6  5026               	movf	i2___flmul@temp^0,w,c
 11735  0020D8  261C               	addwf	i2___flmul@grs^0,f,c
 11736  0020DA  0E00               	movlw	0
 11737  0020DC  221D               	addwfc	(i2___flmul@grs+1)^0,f,c
 11738  0020DE  221E               	addwfc	(i2___flmul@grs+2)^0,f,c
 11739  0020E0  221F               	addwfc	(i2___flmul@grs+3)^0,f,c
 11740  0020E2  5027               	movf	(i2___flmul@temp+1)^0,w,c
 11741  0020E4  2622               	addwf	i2___flmul@prod^0,f,c
 11742  0020E6  0E00               	movlw	0
 11743  0020E8  2223               	addwfc	(i2___flmul@prod+1)^0,f,c
 11744  0020EA  2224               	addwfc	(i2___flmul@prod+2)^0,f,c
 11745  0020EC  2225               	addwfc	(i2___flmul@prod+3)^0,f,c
 11746  0020EE  5013               	movf	i2___flmul@a^0,w,c
 11747  0020F0  0211               	mulwf	(i2___flmul@b+2)^0,c
 11748  0020F2  CFF3 F026          	movff	prodl,i2___flmul@temp
 11749  0020F6  CFF4 F027          	movff	prodh,i2___flmul@temp+1
 11750  0020FA  5026               	movf	i2___flmul@temp^0,w,c
 11751  0020FC  261C               	addwf	i2___flmul@grs^0,f,c
 11752  0020FE  0E00               	movlw	0
 11753  002100  221D               	addwfc	(i2___flmul@grs+1)^0,f,c
 11754  002102  221E               	addwfc	(i2___flmul@grs+2)^0,f,c
 11755  002104  221F               	addwfc	(i2___flmul@grs+3)^0,f,c
 11756  002106  5027               	movf	(i2___flmul@temp+1)^0,w,c
 11757  002108  2622               	addwf	i2___flmul@prod^0,f,c
 11758  00210A  0E00               	movlw	0
 11759  00210C  2223               	addwfc	(i2___flmul@prod+1)^0,f,c
 11760  00210E  2224               	addwfc	(i2___flmul@prod+2)^0,f,c
 11761  002110  2225               	addwfc	(i2___flmul@prod+3)^0,f,c
 11762  002112  C01E  F01F         	movff	i2___flmul@grs+2,i2___flmul@grs+3
 11763  002116  C01D  F01E         	movff	i2___flmul@grs+1,i2___flmul@grs+2
 11764  00211A  C01C  F01D         	movff	i2___flmul@grs,i2___flmul@grs+1
 11765  00211E  6A1C               	clrf	i2___flmul@grs^0,c
 11766  002120  5013               	movf	i2___flmul@a^0,w,c
 11767  002122  0210               	mulwf	(i2___flmul@b+1)^0,c
 11768  002124  CFF3 F026          	movff	prodl,i2___flmul@temp
 11769  002128  CFF4 F027          	movff	prodh,i2___flmul@temp+1
 11770  00212C  5026               	movf	i2___flmul@temp^0,w,c
 11771  00212E  261C               	addwf	i2___flmul@grs^0,f,c
 11772  002130  5027               	movf	(i2___flmul@temp+1)^0,w,c
 11773  002132  221D               	addwfc	(i2___flmul@grs+1)^0,f,c
 11774  002134  0E00               	movlw	0
 11775  002136  221E               	addwfc	(i2___flmul@grs+2)^0,f,c
 11776  002138  0E00               	movlw	0
 11777  00213A  221F               	addwfc	(i2___flmul@grs+3)^0,f,c
 11778  00213C  5014               	movf	(i2___flmul@a+1)^0,w,c
 11779  00213E  020F               	mulwf	i2___flmul@b^0,c
 11780  002140  CFF3 F026          	movff	prodl,i2___flmul@temp
 11781  002144  CFF4 F027          	movff	prodh,i2___flmul@temp+1
 11782  002148  5026               	movf	i2___flmul@temp^0,w,c
 11783  00214A  261C               	addwf	i2___flmul@grs^0,f,c
 11784  00214C  5027               	movf	(i2___flmul@temp+1)^0,w,c
 11785  00214E  221D               	addwfc	(i2___flmul@grs+1)^0,f,c
 11786  002150  0E00               	movlw	0
 11787  002152  221E               	addwfc	(i2___flmul@grs+2)^0,f,c
 11788  002154  0E00               	movlw	0
 11789  002156  221F               	addwfc	(i2___flmul@grs+3)^0,f,c
 11790  002158  C01E  F01F         	movff	i2___flmul@grs+2,i2___flmul@grs+3
 11791  00215C  C01D  F01E         	movff	i2___flmul@grs+1,i2___flmul@grs+2
 11792  002160  C01C  F01D         	movff	i2___flmul@grs,i2___flmul@grs+1
 11793  002164  6A1C               	clrf	i2___flmul@grs^0,c
 11794  002166  5013               	movf	i2___flmul@a^0,w,c
 11795  002168  020F               	mulwf	i2___flmul@b^0,c
 11796  00216A  CFF3 F026          	movff	prodl,i2___flmul@temp
 11797  00216E  CFF4 F027          	movff	prodh,i2___flmul@temp+1
 11798  002172  5026               	movf	i2___flmul@temp^0,w,c
 11799  002174  261C               	addwf	i2___flmul@grs^0,f,c
 11800  002176  5027               	movf	(i2___flmul@temp+1)^0,w,c
 11801  002178  221D               	addwfc	(i2___flmul@grs+1)^0,f,c
 11802  00217A  0E00               	movlw	0
 11803  00217C  221E               	addwfc	(i2___flmul@grs+2)^0,f,c
 11804  00217E  0E00               	movlw	0
 11805  002180  221F               	addwfc	(i2___flmul@grs+3)^0,f,c
 11806  002182  5015               	movf	(i2___flmul@a+2)^0,w,c
 11807  002184  0210               	mulwf	(i2___flmul@b+1)^0,c
 11808  002186  CFF3 F026          	movff	prodl,i2___flmul@temp
 11809  00218A  CFF4 F027          	movff	prodh,i2___flmul@temp+1
 11810  00218E  5026               	movf	i2___flmul@temp^0,w,c
 11811  002190  2622               	addwf	i2___flmul@prod^0,f,c
 11812  002192  5027               	movf	(i2___flmul@temp+1)^0,w,c
 11813  002194  2223               	addwfc	(i2___flmul@prod+1)^0,f,c
 11814  002196  0E00               	movlw	0
 11815  002198  2224               	addwfc	(i2___flmul@prod+2)^0,f,c
 11816  00219A  0E00               	movlw	0
 11817  00219C  2225               	addwfc	(i2___flmul@prod+3)^0,f,c
 11818  00219E  5014               	movf	(i2___flmul@a+1)^0,w,c
 11819  0021A0  0211               	mulwf	(i2___flmul@b+2)^0,c
 11820  0021A2  CFF3 F026          	movff	prodl,i2___flmul@temp
 11821  0021A6  CFF4 F027          	movff	prodh,i2___flmul@temp+1
 11822  0021AA  5026               	movf	i2___flmul@temp^0,w,c
 11823  0021AC  2622               	addwf	i2___flmul@prod^0,f,c
 11824  0021AE  5027               	movf	(i2___flmul@temp+1)^0,w,c
 11825  0021B0  2223               	addwfc	(i2___flmul@prod+1)^0,f,c
 11826  0021B2  0E00               	movlw	0
 11827  0021B4  2224               	addwfc	(i2___flmul@prod+2)^0,f,c
 11828  0021B6  0E00               	movlw	0
 11829  0021B8  2225               	addwfc	(i2___flmul@prod+3)^0,f,c
 11830  0021BA  5015               	movf	(i2___flmul@a+2)^0,w,c
 11831  0021BC  0211               	mulwf	(i2___flmul@b+2)^0,c
 11832  0021BE  CFF3 F026          	movff	prodl,i2___flmul@temp
 11833  0021C2  CFF4 F027          	movff	prodh,i2___flmul@temp+1
 11834  0021C6  5026               	movf	i2___flmul@temp^0,w,c
 11835  0021C8  6E17               	movwf	??i2___flmul^0,c
 11836  0021CA  5027               	movf	(i2___flmul@temp+1)^0,w,c
 11837  0021CC  6E18               	movwf	(??i2___flmul+1)^0,c
 11838  0021CE  6A19               	clrf	(??i2___flmul+2)^0,c
 11839  0021D0  6A1A               	clrf	(??i2___flmul+3)^0,c
 11840  0021D2  C019  F01A         	movff	??i2___flmul+2,??i2___flmul+3
 11841  0021D6  C018  F019         	movff	??i2___flmul+1,??i2___flmul+2
 11842  0021DA  C017  F018         	movff	??i2___flmul,??i2___flmul+1
 11843  0021DE  6A17               	clrf	??i2___flmul^0,c
 11844  0021E0  5017               	movf	??i2___flmul^0,w,c
 11845  0021E2  2622               	addwf	i2___flmul@prod^0,f,c
 11846  0021E4  5018               	movf	(??i2___flmul+1)^0,w,c
 11847  0021E6  2223               	addwfc	(i2___flmul@prod+1)^0,f,c
 11848  0021E8  5019               	movf	(??i2___flmul+2)^0,w,c
 11849  0021EA  2224               	addwfc	(i2___flmul@prod+2)^0,f,c
 11850  0021EC  501A               	movf	(??i2___flmul+3)^0,w,c
 11851  0021EE  2225               	addwfc	(i2___flmul@prod+3)^0,f,c
 11852  0021F0  C01C  F017         	movff	i2___flmul@grs,??i2___flmul
 11853  0021F4  C01D  F018         	movff	i2___flmul@grs+1,??i2___flmul+1
 11854  0021F8  C01E  F019         	movff	i2___flmul@grs+2,??i2___flmul+2
 11855  0021FC  C01F  F01A         	movff	i2___flmul@grs+3,??i2___flmul+3
 11856  002200  0E19               	movlw	25
 11857  002202  EF08  F011         	goto	i2u585_40
 11858  002206                     i2u585_45:
 11859  002206  90D8               	bcf	status,0,c
 11860  002208  321A               	rrcf	(??i2___flmul+3)^0,f,c
 11861  00220A  3219               	rrcf	(??i2___flmul+2)^0,f,c
 11862  00220C  3218               	rrcf	(??i2___flmul+1)^0,f,c
 11863  00220E  3217               	rrcf	??i2___flmul^0,f,c
 11864  002210                     i2u585_40:
 11865  002210  2EE8               	decfsz	wreg,f,c
 11866  002212  EF03  F011         	goto	i2u585_45
 11867  002216  5017               	movf	??i2___flmul^0,w,c
 11868  002218  2622               	addwf	i2___flmul@prod^0,f,c
 11869  00221A  5018               	movf	(??i2___flmul+1)^0,w,c
 11870  00221C  2223               	addwfc	(i2___flmul@prod+1)^0,f,c
 11871  00221E  5019               	movf	(??i2___flmul+2)^0,w,c
 11872  002220  2224               	addwfc	(i2___flmul@prod+2)^0,f,c
 11873  002222  501A               	movf	(??i2___flmul+3)^0,w,c
 11874  002224  2225               	addwfc	(i2___flmul@prod+3)^0,f,c
 11875  002226  C01E  F01F         	movff	i2___flmul@grs+2,i2___flmul@grs+3
 11876  00222A  C01D  F01E         	movff	i2___flmul@grs+1,i2___flmul@grs+2
 11877  00222E  C01C  F01D         	movff	i2___flmul@grs,i2___flmul@grs+1
 11878  002232  6A1C               	clrf	i2___flmul@grs^0,c
 11879  002234  5020               	movf	i2___flmul@aexp^0,w,c
 11880  002236  C021  F017         	movff	i2___flmul@bexp,??i2___flmul
 11881  00223A  6A18               	clrf	(??i2___flmul+1)^0,c
 11882  00223C  2617               	addwf	??i2___flmul^0,f,c
 11883  00223E  0E00               	movlw	0
 11884  002240  2218               	addwfc	(??i2___flmul+1)^0,f,c
 11885  002242  0E82               	movlw	130
 11886  002244  2417               	addwf	??i2___flmul^0,w,c
 11887  002246  6E26               	movwf	i2___flmul@temp^0,c
 11888  002248  0EFF               	movlw	255
 11889  00224A  2018               	addwfc	(??i2___flmul+1)^0,w,c
 11890  00224C  6E27               	movwf	(i2___flmul@temp+1)^0,c
 11891  00224E  EF3E  F011         	goto	i2l4734
 11892  002252                     i2l4728:
 11893  002252  90D8               	bcf	status,0,c
 11894  002254  3622               	rlcf	i2___flmul@prod^0,f,c
 11895  002256  3623               	rlcf	(i2___flmul@prod+1)^0,f,c
 11896  002258  3624               	rlcf	(i2___flmul@prod+2)^0,f,c
 11897  00225A  3625               	rlcf	(i2___flmul@prod+3)^0,f,c
 11898  00225C  AE1F               	btfss	(i2___flmul@grs+3)^0,7,c
 11899  00225E  EF33  F011         	goto	i2u586_41
 11900  002262  EF35  F011         	goto	i2u586_40
 11901  002266                     i2u586_41:
 11902  002266  EF36  F011         	goto	i2l787
 11903  00226A                     i2u586_40:
 11904  00226A  8022               	bsf	i2___flmul@prod^0,0,c
 11905  00226C                     i2l787:
 11906  00226C  90D8               	bcf	status,0,c
 11907  00226E  361C               	rlcf	i2___flmul@grs^0,f,c
 11908  002270  361D               	rlcf	(i2___flmul@grs+1)^0,f,c
 11909  002272  361E               	rlcf	(i2___flmul@grs+2)^0,f,c
 11910  002274  361F               	rlcf	(i2___flmul@grs+3)^0,f,c
 11911  002276  0626               	decf	i2___flmul@temp^0,f,c
 11912  002278  A0D8               	btfss	status,0,c
 11913  00227A  0627               	decf	(i2___flmul@temp+1)^0,f,c
 11914  00227C                     i2l4734:
 11915  00227C  AE24               	btfss	(i2___flmul@prod+2)^0,7,c
 11916  00227E  EF43  F011         	goto	i2u587_41
 11917  002282  EF45  F011         	goto	i2u587_40
 11918  002286                     i2u587_41:
 11919  002286  EF29  F011         	goto	i2l4728
 11920  00228A                     i2u587_40:
 11921  00228A  0E00               	movlw	0
 11922  00228C  6E20               	movwf	i2___flmul@aexp^0,c
 11923  00228E  AE1F               	btfss	(i2___flmul@grs+3)^0,7,c
 11924  002290  EF4C  F011         	goto	i2u588_41
 11925  002294  EF4E  F011         	goto	i2u588_40
 11926  002298                     i2u588_41:
 11927  002298  EF72  F011         	goto	i2l789
 11928  00229C                     i2u588_40:
 11929  00229C  0EFF               	movlw	255
 11930  00229E  141C               	andwf	i2___flmul@grs^0,w,c
 11931  0022A0  6E17               	movwf	??i2___flmul^0,c
 11932  0022A2  0EFF               	movlw	255
 11933  0022A4  141D               	andwf	(i2___flmul@grs+1)^0,w,c
 11934  0022A6  6E18               	movwf	(??i2___flmul+1)^0,c
 11935  0022A8  0EFF               	movlw	255
 11936  0022AA  141E               	andwf	(i2___flmul@grs+2)^0,w,c
 11937  0022AC  6E19               	movwf	(??i2___flmul+2)^0,c
 11938  0022AE  0E7F               	movlw	127
 11939  0022B0  141F               	andwf	(i2___flmul@grs+3)^0,w,c
 11940  0022B2  6E1A               	movwf	(??i2___flmul+3)^0,c
 11941  0022B4  5017               	movf	??i2___flmul^0,w,c
 11942  0022B6  1018               	iorwf	(??i2___flmul+1)^0,w,c
 11943  0022B8  1019               	iorwf	(??i2___flmul+2)^0,w,c
 11944  0022BA  101A               	iorwf	(??i2___flmul+3)^0,w,c
 11945  0022BC  B4D8               	btfsc	status,2,c
 11946  0022BE  EF63  F011         	goto	i2u589_41
 11947  0022C2  EF65  F011         	goto	i2u589_40
 11948  0022C6                     i2u589_41:
 11949  0022C6  EF69  F011         	goto	i2l790
 11950  0022CA                     i2u589_40:
 11951  0022CA                     i2l4742:
 11952  0022CA  0E01               	movlw	1
 11953  0022CC  6E20               	movwf	i2___flmul@aexp^0,c
 11954  0022CE  EF72  F011         	goto	i2l789
 11955  0022D2                     i2l790:
 11956  0022D2  A022               	btfss	i2___flmul@prod^0,0,c
 11957  0022D4  EF6E  F011         	goto	i2u590_41
 11958  0022D8  EF70  F011         	goto	i2u590_40
 11959  0022DC                     i2u590_41:
 11960  0022DC  EF72  F011         	goto	i2l789
 11961  0022E0                     i2u590_40:
 11962  0022E0  EF65  F011         	goto	i2l4742
 11963  0022E4                     i2l789:
 11964  0022E4  5020               	movf	i2___flmul@aexp^0,w,c
 11965  0022E6  B4D8               	btfsc	status,2,c
 11966  0022E8  EF78  F011         	goto	i2u591_41
 11967  0022EC  EF7A  F011         	goto	i2u591_40
 11968  0022F0                     i2u591_41:
 11969  0022F0  EF9E  F011         	goto	i2l4754
 11970  0022F4                     i2u591_40:
 11971  0022F4  0E01               	movlw	1
 11972  0022F6  2622               	addwf	i2___flmul@prod^0,f,c
 11973  0022F8  0E00               	movlw	0
 11974  0022FA  2223               	addwfc	(i2___flmul@prod+1)^0,f,c
 11975  0022FC  2224               	addwfc	(i2___flmul@prod+2)^0,f,c
 11976  0022FE  2225               	addwfc	(i2___flmul@prod+3)^0,f,c
 11977  002300  A025               	btfss	(i2___flmul@prod+3)^0,0,c
 11978  002302  EF85  F011         	goto	i2u592_41
 11979  002306  EF87  F011         	goto	i2u592_40
 11980  00230A                     i2u592_41:
 11981  00230A  EF9E  F011         	goto	i2l4754
 11982  00230E                     i2u592_40:
 11983  00230E  C022  F017         	movff	i2___flmul@prod,??i2___flmul
 11984  002312  C023  F018         	movff	i2___flmul@prod+1,??i2___flmul+1
 11985  002316  C024  F019         	movff	i2___flmul@prod+2,??i2___flmul+2
 11986  00231A  C025  F01A         	movff	i2___flmul@prod+3,??i2___flmul+3
 11987  00231E  341A               	rlcf	(??i2___flmul+3)^0,w,c
 11988  002320  321A               	rrcf	(??i2___flmul+3)^0,f,c
 11989  002322  3219               	rrcf	(??i2___flmul+2)^0,f,c
 11990  002324  3218               	rrcf	(??i2___flmul+1)^0,f,c
 11991  002326  3217               	rrcf	??i2___flmul^0,f,c
 11992  002328  C017  F022         	movff	??i2___flmul,i2___flmul@prod
 11993  00232C  C018  F023         	movff	??i2___flmul+1,i2___flmul@prod+1
 11994  002330  C019  F024         	movff	??i2___flmul+2,i2___flmul@prod+2
 11995  002334  C01A  F025         	movff	??i2___flmul+3,i2___flmul@prod+3
 11996  002338  4A26               	infsnz	i2___flmul@temp^0,f,c
 11997  00233A  2A27               	incf	(i2___flmul@temp+1)^0,f,c
 11998  00233C                     i2l4754:
 11999  00233C  BE27               	btfsc	(i2___flmul@temp+1)^0,7,c
 12000  00233E  EFA9  F011         	goto	i2u593_41
 12001  002342  5027               	movf	(i2___flmul@temp+1)^0,w,c
 12002  002344  E108               	bnz	i2u593_40
 12003  002346  2826               	incf	i2___flmul@temp^0,w,c
 12004  002348  A0D8               	btfss	status,0,c
 12005  00234A  EFA9  F011         	goto	i2u593_41
 12006  00234E  EFAB  F011         	goto	i2u593_40
 12007  002352                     i2u593_41:
 12008  002352  EFB5  F011         	goto	i2l4758
 12009  002356                     i2u593_40:
 12010  002356  0E00               	movlw	0
 12011  002358  6E22               	movwf	i2___flmul@prod^0,c
 12012  00235A  0E00               	movlw	0
 12013  00235C  6E23               	movwf	(i2___flmul@prod+1)^0,c
 12014  00235E  0E80               	movlw	128
 12015  002360  6E24               	movwf	(i2___flmul@prod+2)^0,c
 12016  002362  0E7F               	movlw	127
 12017  002364  6E25               	movwf	(i2___flmul@prod+3)^0,c
 12018  002366  EFE3  F011         	goto	i2l4770
 12019  00236A                     i2l4758:
 12020  00236A  BE27               	btfsc	(i2___flmul@temp+1)^0,7,c
 12021  00236C  EFC2  F011         	goto	i2u594_40
 12022  002370  5027               	movf	(i2___flmul@temp+1)^0,w,c
 12023  002372  E106               	bnz	i2u594_41
 12024  002374  0426               	decf	i2___flmul@temp^0,w,c
 12025  002376  B0D8               	btfsc	status,0,c
 12026  002378  EFC0  F011         	goto	i2u594_41
 12027  00237C  EFC2  F011         	goto	i2u594_40
 12028  002380                     i2u594_41:
 12029  002380  EFCE  F011         	goto	i2l797
 12030  002384                     i2u594_40:
 12031  002384  0E00               	movlw	0
 12032  002386  6E22               	movwf	i2___flmul@prod^0,c
 12033  002388  0E00               	movlw	0
 12034  00238A  6E23               	movwf	(i2___flmul@prod+1)^0,c
 12035  00238C  0E00               	movlw	0
 12036  00238E  6E24               	movwf	(i2___flmul@prod+2)^0,c
 12037  002390  0E00               	movlw	0
 12038  002392  6E25               	movwf	(i2___flmul@prod+3)^0,c
 12039  002394  0E00               	movlw	0
 12040  002396  6E1B               	movwf	i2___flmul@sign^0,c
 12041  002398  EFE3  F011         	goto	i2l4770
 12042  00239C                     i2l797:
 12043  00239C  C026  F021         	movff	i2___flmul@temp,i2___flmul@bexp
 12044  0023A0  0EFF               	movlw	255
 12045  0023A2  1622               	andwf	i2___flmul@prod^0,f,c
 12046  0023A4  0EFF               	movlw	255
 12047  0023A6  1623               	andwf	(i2___flmul@prod+1)^0,f,c
 12048  0023A8  0E7F               	movlw	127
 12049  0023AA  1624               	andwf	(i2___flmul@prod+2)^0,f,c
 12050  0023AC  0E00               	movlw	0
 12051  0023AE  1625               	andwf	(i2___flmul@prod+3)^0,f,c
 12052  0023B0  A021               	btfss	i2___flmul@bexp^0,0,c
 12053  0023B2  EFDD  F011         	goto	i2u595_41
 12054  0023B6  EFDF  F011         	goto	i2u595_40
 12055  0023BA                     i2u595_41:
 12056  0023BA  EFE0  F011         	goto	i2l4768
 12057  0023BE                     i2u595_40:
 12058  0023BE  8E24               	bsf	(i2___flmul@prod+2)^0,7,c
 12059  0023C0                     i2l4768:
 12060  0023C0  90D8               	bcf	status,0,c
 12061  0023C2  3021               	rrcf	i2___flmul@bexp^0,w,c
 12062  0023C4  6E25               	movwf	(i2___flmul@prod+3)^0,c
 12063  0023C6                     i2l4770:
 12064  0023C6  501B               	movf	i2___flmul@sign^0,w,c
 12065  0023C8  1225               	iorwf	(i2___flmul@prod+3)^0,f,c
 12066  0023CA  C022  F00F         	movff	i2___flmul@prod,?i2___flmul
 12067  0023CE  C023  F010         	movff	i2___flmul@prod+1,?i2___flmul+1
 12068  0023D2  C024  F011         	movff	i2___flmul@prod+2,?i2___flmul+2
 12069  0023D6  C025  F012         	movff	i2___flmul@prod+3,?i2___flmul+3
 12070  0023DA                     i2l784:
 12071  0023DA  0012               	return		;funcret
 12072  0023DC                     __end_ofi2___flmul:
 12073                           	callstack 0
 12074                           
 12075 ;; *************** function i2___fldiv *****************
 12076 ;; Defined at:
 12077 ;;		line 11 in file "C:\Program Files\Microchip\xc8\v2.36\pic\sources\c99\common\sprcdiv.c"
 12078 ;; Parameters:    Size  Location     Type
 12079 ;;  b               4    0[COMRAM] unsigned char 
 12080 ;;  a               4    4[COMRAM] unsigned char 
 12081 ;; Auto vars:     Size  Location     Type
 12082 ;;  grs             4   19[COMRAM] unsigned long 
 12083 ;;  rem             4   12[COMRAM] unsigned long 
 12084 ;;  new_exp         2   17[COMRAM] short 
 12085 ;;  aexp            1   24[COMRAM] unsigned char 
 12086 ;;  bexp            1   23[COMRAM] unsigned char 
 12087 ;;  sign            1   16[COMRAM] unsigned char 
 12088 ;; Return value:  Size  Location     Type
 12089 ;;                  4    0[COMRAM] unsigned char 
 12090 ;; Registers used:
 12091 ;;		wreg, status,2, status,0
 12092 ;; Tracked objects:
 12093 ;;		On entry : 0/0
 12094 ;;		On exit  : 0/0
 12095 ;;		Unchanged: 0/0
 12096 ;; Data sizes:     COMRAM   BANK0   BANK1   BANK2   BANK3   BANK4   BANK5
 12097 ;;      Params:         8       0       0       0       0       0       0
 12098 ;;      Locals:        13       0       0       0       0       0       0
 12099 ;;      Temps:          4       0       0       0       0       0       0
 12100 ;;      Totals:        25       0       0       0       0       0       0
 12101 ;;Total ram usage:       25 bytes
 12102 ;; Hardware stack levels used: 1
 12103 ;; This function calls:
 12104 ;;		Nothing
 12105 ;; This function is called by:
 12106 ;;		i2_equation_SENSOR
 12107 ;; This function uses a non-reentrant model
 12108 ;;
 12109                           
 12110                           	psect	text53
 12111  002778                     __ptext53:
 12112                           	callstack 0
 12113  002778                     i2___fldiv:
 12114                           	callstack 19
 12115  002778  5004               	movf	(i2___fldiv@b+3)^0,w,c
 12116  00277A  0B80               	andlw	128
 12117  00277C  6E11               	movwf	i2___fldiv@sign^0,c
 12118  00277E  5004               	movf	(i2___fldiv@b+3)^0,w,c
 12119  002780  2404               	addwf	(i2___fldiv@b+3)^0,w,c
 12120  002782  6E18               	movwf	i2___fldiv@bexp^0,c
 12121  002784  AE03               	btfss	(i2___fldiv@b+2)^0,7,c
 12122  002786  EFC7  F013         	goto	i2u554_41
 12123  00278A  EFC9  F013         	goto	i2u554_40
 12124  00278E                     i2u554_41:
 12125  00278E  EFCA  F013         	goto	i2l4514
 12126  002792                     i2u554_40:
 12127  002792  8018               	bsf	i2___fldiv@bexp^0,0,c
 12128  002794                     i2l4514:
 12129  002794  5018               	movf	i2___fldiv@bexp^0,w,c
 12130  002796  B4D8               	btfsc	status,2,c
 12131  002798  EFD0  F013         	goto	i2u555_41
 12132  00279C  EFD2  F013         	goto	i2u555_40
 12133  0027A0                     i2u555_41:
 12134  0027A0  EFE7  F013         	goto	i2l4524
 12135  0027A4                     i2u555_40:
 12136  0027A4  2818               	incf	i2___fldiv@bexp^0,w,c
 12137  0027A6  A4D8               	btfss	status,2,c
 12138  0027A8  EFD8  F013         	goto	i2u556_41
 12139  0027AC  EFDA  F013         	goto	i2u556_40
 12140  0027B0                     i2u556_41:
 12141  0027B0  EFE2  F013         	goto	i2l4520
 12142  0027B4                     i2u556_40:
 12143  0027B4  0E00               	movlw	0
 12144  0027B6  6E01               	movwf	i2___fldiv@b^0,c
 12145  0027B8  0E00               	movlw	0
 12146  0027BA  6E02               	movwf	(i2___fldiv@b+1)^0,c
 12147  0027BC  0E00               	movlw	0
 12148  0027BE  6E03               	movwf	(i2___fldiv@b+2)^0,c
 12149  0027C0  0E00               	movlw	0
 12150  0027C2  6E04               	movwf	(i2___fldiv@b+3)^0,c
 12151  0027C4                     i2l4520:
 12152  0027C4  8E03               	bsf	(i2___fldiv@b+2)^0,7,c
 12153  0027C6  0E00               	movlw	0
 12154  0027C8  6E04               	movwf	(i2___fldiv@b+3)^0,c
 12155  0027CA  EFEF  F013         	goto	i2l4526
 12156  0027CE                     i2l4524:
 12157  0027CE  0E00               	movlw	0
 12158  0027D0  6E01               	movwf	i2___fldiv@b^0,c
 12159  0027D2  0E00               	movlw	0
 12160  0027D4  6E02               	movwf	(i2___fldiv@b+1)^0,c
 12161  0027D6  0E00               	movlw	0
 12162  0027D8  6E03               	movwf	(i2___fldiv@b+2)^0,c
 12163  0027DA  0E00               	movlw	0
 12164  0027DC  6E04               	movwf	(i2___fldiv@b+3)^0,c
 12165  0027DE                     i2l4526:
 12166  0027DE  5008               	movf	(i2___fldiv@a+3)^0,w,c
 12167  0027E0  0B80               	andlw	128
 12168  0027E2  1A11               	xorwf	i2___fldiv@sign^0,f,c
 12169  0027E4  5008               	movf	(i2___fldiv@a+3)^0,w,c
 12170  0027E6  2408               	addwf	(i2___fldiv@a+3)^0,w,c
 12171  0027E8  6E19               	movwf	i2___fldiv@aexp^0,c
 12172  0027EA  AE07               	btfss	(i2___fldiv@a+2)^0,7,c
 12173  0027EC  EFFA  F013         	goto	i2u557_41
 12174  0027F0  EFFC  F013         	goto	i2u557_40
 12175  0027F4                     i2u557_41:
 12176  0027F4  EFFD  F013         	goto	i2l4534
 12177  0027F8                     i2u557_40:
 12178  0027F8  8019               	bsf	i2___fldiv@aexp^0,0,c
 12179  0027FA                     i2l4534:
 12180  0027FA  5019               	movf	i2___fldiv@aexp^0,w,c
 12181  0027FC  B4D8               	btfsc	status,2,c
 12182  0027FE  EF03  F014         	goto	i2u558_41
 12183  002802  EF05  F014         	goto	i2u558_40
 12184  002806                     i2u558_41:
 12185  002806  EF1A  F014         	goto	i2l4544
 12186  00280A                     i2u558_40:
 12187  00280A  2819               	incf	i2___fldiv@aexp^0,w,c
 12188  00280C  A4D8               	btfss	status,2,c
 12189  00280E  EF0B  F014         	goto	i2u559_41
 12190  002812  EF0D  F014         	goto	i2u559_40
 12191  002816                     i2u559_41:
 12192  002816  EF15  F014         	goto	i2l4540
 12193  00281A                     i2u559_40:
 12194  00281A  0E00               	movlw	0
 12195  00281C  6E05               	movwf	i2___fldiv@a^0,c
 12196  00281E  0E00               	movlw	0
 12197  002820  6E06               	movwf	(i2___fldiv@a+1)^0,c
 12198  002822  0E00               	movlw	0
 12199  002824  6E07               	movwf	(i2___fldiv@a+2)^0,c
 12200  002826  0E00               	movlw	0
 12201  002828  6E08               	movwf	(i2___fldiv@a+3)^0,c
 12202  00282A                     i2l4540:
 12203  00282A  8E07               	bsf	(i2___fldiv@a+2)^0,7,c
 12204  00282C  0E00               	movlw	0
 12205  00282E  6E08               	movwf	(i2___fldiv@a+3)^0,c
 12206  002830  EF22  F014         	goto	i2l4546
 12207  002834                     i2l4544:
 12208  002834  0E00               	movlw	0
 12209  002836  6E05               	movwf	i2___fldiv@a^0,c
 12210  002838  0E00               	movlw	0
 12211  00283A  6E06               	movwf	(i2___fldiv@a+1)^0,c
 12212  00283C  0E00               	movlw	0
 12213  00283E  6E07               	movwf	(i2___fldiv@a+2)^0,c
 12214  002840  0E00               	movlw	0
 12215  002842  6E08               	movwf	(i2___fldiv@a+3)^0,c
 12216  002844                     i2l4546:
 12217  002844  5005               	movf	i2___fldiv@a^0,w,c
 12218  002846  1006               	iorwf	(i2___fldiv@a+1)^0,w,c
 12219  002848  1007               	iorwf	(i2___fldiv@a+2)^0,w,c
 12220  00284A  1008               	iorwf	(i2___fldiv@a+3)^0,w,c
 12221  00284C  A4D8               	btfss	status,2,c
 12222  00284E  EF2B  F014         	goto	i2u560_41
 12223  002852  EF2D  F014         	goto	i2u560_40
 12224  002856                     i2u560_41:
 12225  002856  EF45  F014         	goto	i2l4558
 12226  00285A                     i2u560_40:
 12227  00285A  0E00               	movlw	0
 12228  00285C  6E01               	movwf	i2___fldiv@b^0,c
 12229  00285E  0E00               	movlw	0
 12230  002860  6E02               	movwf	(i2___fldiv@b+1)^0,c
 12231  002862  0E00               	movlw	0
 12232  002864  6E03               	movwf	(i2___fldiv@b+2)^0,c
 12233  002866  0E00               	movlw	0
 12234  002868  6E04               	movwf	(i2___fldiv@b+3)^0,c
 12235  00286A  0E80               	movlw	128
 12236  00286C  1203               	iorwf	(i2___fldiv@b+2)^0,f,c
 12237  00286E  0E7F               	movlw	127
 12238  002870  1204               	iorwf	(i2___fldiv@b+3)^0,f,c
 12239  002872                     i2l4552:
 12240  002872  5011               	movf	i2___fldiv@sign^0,w,c
 12241  002874  1204               	iorwf	(i2___fldiv@b+3)^0,f,c
 12242  002876  C001  F001         	movff	i2___fldiv@b,?i2___fldiv
 12243  00287A  C002  F002         	movff	i2___fldiv@b+1,?i2___fldiv+1
 12244  00287E  C003  F003         	movff	i2___fldiv@b+2,?i2___fldiv+2
 12245  002882  C004  F004         	movff	i2___fldiv@b+3,?i2___fldiv+3
 12246  002886  EF88  F015         	goto	i2l748
 12247  00288A                     i2l4558:
 12248  00288A  5018               	movf	i2___fldiv@bexp^0,w,c
 12249  00288C  A4D8               	btfss	status,2,c
 12250  00288E  EF4B  F014         	goto	i2u561_41
 12251  002892  EF4D  F014         	goto	i2u561_40
 12252  002896                     i2u561_41:
 12253  002896  EF57  F014         	goto	i2l4566
 12254  00289A                     i2u561_40:
 12255  00289A  0E00               	movlw	0
 12256  00289C  6E01               	movwf	?i2___fldiv^0,c
 12257  00289E  0E00               	movlw	0
 12258  0028A0  6E02               	movwf	(?i2___fldiv+1)^0,c
 12259  0028A2  0E00               	movlw	0
 12260  0028A4  6E03               	movwf	(?i2___fldiv+2)^0,c
 12261  0028A6  0E00               	movlw	0
 12262  0028A8  6E04               	movwf	(?i2___fldiv+3)^0,c
 12263  0028AA  EF88  F015         	goto	i2l748
 12264  0028AE                     i2l4566:
 12265  0028AE  5019               	movf	i2___fldiv@aexp^0,w,c
 12266  0028B0  C018  F009         	movff	i2___fldiv@bexp,??i2___fldiv
 12267  0028B4  6A0A               	clrf	(??i2___fldiv+1)^0,c
 12268  0028B6  5E09               	subwf	??i2___fldiv^0,f,c
 12269  0028B8  0E00               	movlw	0
 12270  0028BA  5A0A               	subwfb	(??i2___fldiv+1)^0,f,c
 12271  0028BC  0E7F               	movlw	127
 12272  0028BE  2409               	addwf	??i2___fldiv^0,w,c
 12273  0028C0  6E12               	movwf	i2___fldiv@new_exp^0,c
 12274  0028C2  0E00               	movlw	0
 12275  0028C4  200A               	addwfc	(??i2___fldiv+1)^0,w,c
 12276  0028C6  6E13               	movwf	(i2___fldiv@new_exp+1)^0,c
 12277  0028C8  C001  F00D         	movff	i2___fldiv@b,i2___fldiv@rem
 12278  0028CC  C002  F00E         	movff	i2___fldiv@b+1,i2___fldiv@rem+1
 12279  0028D0  C003  F00F         	movff	i2___fldiv@b+2,i2___fldiv@rem+2
 12280  0028D4  C004  F010         	movff	i2___fldiv@b+3,i2___fldiv@rem+3
 12281  0028D8  0E00               	movlw	0
 12282  0028DA  6E01               	movwf	i2___fldiv@b^0,c
 12283  0028DC  0E00               	movlw	0
 12284  0028DE  6E02               	movwf	(i2___fldiv@b+1)^0,c
 12285  0028E0  0E00               	movlw	0
 12286  0028E2  6E03               	movwf	(i2___fldiv@b+2)^0,c
 12287  0028E4  0E00               	movlw	0
 12288  0028E6  6E04               	movwf	(i2___fldiv@b+3)^0,c
 12289  0028E8  0E00               	movlw	0
 12290  0028EA  6E14               	movwf	i2___fldiv@grs^0,c
 12291  0028EC  0E00               	movlw	0
 12292  0028EE  6E15               	movwf	(i2___fldiv@grs+1)^0,c
 12293  0028F0  0E00               	movlw	0
 12294  0028F2  6E16               	movwf	(i2___fldiv@grs+2)^0,c
 12295  0028F4  0E00               	movlw	0
 12296  0028F6  6E17               	movwf	(i2___fldiv@grs+3)^0,c
 12297  0028F8  0E00               	movlw	0
 12298  0028FA  6E19               	movwf	i2___fldiv@aexp^0,c
 12299  0028FC  EFB8  F014         	goto	i2l750
 12300  002900                     i2l4576:
 12301  002900  5019               	movf	i2___fldiv@aexp^0,w,c
 12302  002902  B4D8               	btfsc	status,2,c
 12303  002904  EF86  F014         	goto	i2u562_41
 12304  002908  EF88  F014         	goto	i2u562_40
 12305  00290C                     i2u562_41:
 12306  00290C  EF9F  F014         	goto	i2l4584
 12307  002910                     i2u562_40:
 12308  002910  90D8               	bcf	status,0,c
 12309  002912  360D               	rlcf	i2___fldiv@rem^0,f,c
 12310  002914  360E               	rlcf	(i2___fldiv@rem+1)^0,f,c
 12311  002916  360F               	rlcf	(i2___fldiv@rem+2)^0,f,c
 12312  002918  3610               	rlcf	(i2___fldiv@rem+3)^0,f,c
 12313  00291A  90D8               	bcf	status,0,c
 12314  00291C  3601               	rlcf	i2___fldiv@b^0,f,c
 12315  00291E  3602               	rlcf	(i2___fldiv@b+1)^0,f,c
 12316  002920  3603               	rlcf	(i2___fldiv@b+2)^0,f,c
 12317  002922  3604               	rlcf	(i2___fldiv@b+3)^0,f,c
 12318  002924  AE17               	btfss	(i2___fldiv@grs+3)^0,7,c
 12319  002926  EF97  F014         	goto	i2u563_41
 12320  00292A  EF99  F014         	goto	i2u563_40
 12321  00292E                     i2u563_41:
 12322  00292E  EF9A  F014         	goto	i2l753
 12323  002932                     i2u563_40:
 12324  002932  8001               	bsf	i2___fldiv@b^0,0,c
 12325  002934                     i2l753:
 12326  002934  90D8               	bcf	status,0,c
 12327  002936  3614               	rlcf	i2___fldiv@grs^0,f,c
 12328  002938  3615               	rlcf	(i2___fldiv@grs+1)^0,f,c
 12329  00293A  3616               	rlcf	(i2___fldiv@grs+2)^0,f,c
 12330  00293C  3617               	rlcf	(i2___fldiv@grs+3)^0,f,c
 12331  00293E                     i2l4584:
 12332  00293E  5005               	movf	i2___fldiv@a^0,w,c
 12333  002940  5C0D               	subwf	i2___fldiv@rem^0,w,c
 12334  002942  5006               	movf	(i2___fldiv@a+1)^0,w,c
 12335  002944  580E               	subwfb	(i2___fldiv@rem+1)^0,w,c
 12336  002946  5007               	movf	(i2___fldiv@a+2)^0,w,c
 12337  002948  580F               	subwfb	(i2___fldiv@rem+2)^0,w,c
 12338  00294A  5008               	movf	(i2___fldiv@a+3)^0,w,c
 12339  00294C  5810               	subwfb	(i2___fldiv@rem+3)^0,w,c
 12340  00294E  A0D8               	btfss	status,0,c
 12341  002950  EFAC  F014         	goto	i2u564_41
 12342  002954  EFAE  F014         	goto	i2u564_40
 12343  002958                     i2u564_41:
 12344  002958  EFB7  F014         	goto	i2l4590
 12345  00295C                     i2u564_40:
 12346  00295C  8C17               	bsf	(i2___fldiv@grs+3)^0,6,c
 12347  00295E  5005               	movf	i2___fldiv@a^0,w,c
 12348  002960  5E0D               	subwf	i2___fldiv@rem^0,f,c
 12349  002962  5006               	movf	(i2___fldiv@a+1)^0,w,c
 12350  002964  5A0E               	subwfb	(i2___fldiv@rem+1)^0,f,c
 12351  002966  5007               	movf	(i2___fldiv@a+2)^0,w,c
 12352  002968  5A0F               	subwfb	(i2___fldiv@rem+2)^0,f,c
 12353  00296A  5008               	movf	(i2___fldiv@a+3)^0,w,c
 12354  00296C  5A10               	subwfb	(i2___fldiv@rem+3)^0,f,c
 12355  00296E                     i2l4590:
 12356  00296E  2A19               	incf	i2___fldiv@aexp^0,f,c
 12357  002970                     i2l750:
 12358  002970  0E19               	movlw	25
 12359  002972  6419               	cpfsgt	i2___fldiv@aexp^0,c
 12360  002974  EFBE  F014         	goto	i2u565_41
 12361  002978  EFC0  F014         	goto	i2u565_40
 12362  00297C                     i2u565_41:
 12363  00297C  EF80  F014         	goto	i2l4576
 12364  002980                     i2u565_40:
 12365  002980  500D               	movf	i2___fldiv@rem^0,w,c
 12366  002982  100E               	iorwf	(i2___fldiv@rem+1)^0,w,c
 12367  002984  100F               	iorwf	(i2___fldiv@rem+2)^0,w,c
 12368  002986  1010               	iorwf	(i2___fldiv@rem+3)^0,w,c
 12369  002988  B4D8               	btfsc	status,2,c
 12370  00298A  EFC9  F014         	goto	i2u566_41
 12371  00298E  EFCB  F014         	goto	i2u566_40
 12372  002992                     i2u566_41:
 12373  002992  EFE3  F014         	goto	i2l4602
 12374  002996                     i2u566_40:
 12375  002996  8014               	bsf	i2___fldiv@grs^0,0,c
 12376  002998  EFE3  F014         	goto	i2l4602
 12377  00299C                     i2l4596:
 12378  00299C  90D8               	bcf	status,0,c
 12379  00299E  3601               	rlcf	i2___fldiv@b^0,f,c
 12380  0029A0  3602               	rlcf	(i2___fldiv@b+1)^0,f,c
 12381  0029A2  3603               	rlcf	(i2___fldiv@b+2)^0,f,c
 12382  0029A4  3604               	rlcf	(i2___fldiv@b+3)^0,f,c
 12383  0029A6  AE17               	btfss	(i2___fldiv@grs+3)^0,7,c
 12384  0029A8  EFD8  F014         	goto	i2u567_41
 12385  0029AC  EFDA  F014         	goto	i2u567_40
 12386  0029B0                     i2u567_41:
 12387  0029B0  EFDB  F014         	goto	i2l759
 12388  0029B4                     i2u567_40:
 12389  0029B4  8001               	bsf	i2___fldiv@b^0,0,c
 12390  0029B6                     i2l759:
 12391  0029B6  90D8               	bcf	status,0,c
 12392  0029B8  3614               	rlcf	i2___fldiv@grs^0,f,c
 12393  0029BA  3615               	rlcf	(i2___fldiv@grs+1)^0,f,c
 12394  0029BC  3616               	rlcf	(i2___fldiv@grs+2)^0,f,c
 12395  0029BE  3617               	rlcf	(i2___fldiv@grs+3)^0,f,c
 12396  0029C0  0612               	decf	i2___fldiv@new_exp^0,f,c
 12397  0029C2  A0D8               	btfss	status,0,c
 12398  0029C4  0613               	decf	(i2___fldiv@new_exp+1)^0,f,c
 12399  0029C6                     i2l4602:
 12400  0029C6  AE03               	btfss	(i2___fldiv@b+2)^0,7,c
 12401  0029C8  EFE8  F014         	goto	i2u568_41
 12402  0029CC  EFEA  F014         	goto	i2u568_40
 12403  0029D0                     i2u568_41:
 12404  0029D0  EFCE  F014         	goto	i2l4596
 12405  0029D4                     i2u568_40:
 12406  0029D4  0E00               	movlw	0
 12407  0029D6  6E19               	movwf	i2___fldiv@aexp^0,c
 12408  0029D8  AE17               	btfss	(i2___fldiv@grs+3)^0,7,c
 12409  0029DA  EFF1  F014         	goto	i2u569_41
 12410  0029DE  EFF3  F014         	goto	i2u569_40
 12411  0029E2                     i2u569_41:
 12412  0029E2  EF17  F015         	goto	i2l761
 12413  0029E6                     i2u569_40:
 12414  0029E6  0EFF               	movlw	255
 12415  0029E8  1414               	andwf	i2___fldiv@grs^0,w,c
 12416  0029EA  6E09               	movwf	??i2___fldiv^0,c
 12417  0029EC  0EFF               	movlw	255
 12418  0029EE  1415               	andwf	(i2___fldiv@grs+1)^0,w,c
 12419  0029F0  6E0A               	movwf	(??i2___fldiv+1)^0,c
 12420  0029F2  0EFF               	movlw	255
 12421  0029F4  1416               	andwf	(i2___fldiv@grs+2)^0,w,c
 12422  0029F6  6E0B               	movwf	(??i2___fldiv+2)^0,c
 12423  0029F8  0E7F               	movlw	127
 12424  0029FA  1417               	andwf	(i2___fldiv@grs+3)^0,w,c
 12425  0029FC  6E0C               	movwf	(??i2___fldiv+3)^0,c
 12426  0029FE  5009               	movf	??i2___fldiv^0,w,c
 12427  002A00  100A               	iorwf	(??i2___fldiv+1)^0,w,c
 12428  002A02  100B               	iorwf	(??i2___fldiv+2)^0,w,c
 12429  002A04  100C               	iorwf	(??i2___fldiv+3)^0,w,c
 12430  002A06  B4D8               	btfsc	status,2,c
 12431  002A08  EF08  F015         	goto	i2u570_41
 12432  002A0C  EF0A  F015         	goto	i2u570_40
 12433  002A10                     i2u570_41:
 12434  002A10  EF0E  F015         	goto	i2l762
 12435  002A14                     i2u570_40:
 12436  002A14                     i2l4610:
 12437  002A14  0E01               	movlw	1
 12438  002A16  6E19               	movwf	i2___fldiv@aexp^0,c
 12439  002A18  EF17  F015         	goto	i2l761
 12440  002A1C                     i2l762:
 12441  002A1C  A001               	btfss	i2___fldiv@b^0,0,c
 12442  002A1E  EF13  F015         	goto	i2u571_41
 12443  002A22  EF15  F015         	goto	i2u571_40
 12444  002A26                     i2u571_41:
 12445  002A26  EF17  F015         	goto	i2l761
 12446  002A2A                     i2u571_40:
 12447  002A2A  EF0A  F015         	goto	i2l4610
 12448  002A2E                     i2l761:
 12449  002A2E  5019               	movf	i2___fldiv@aexp^0,w,c
 12450  002A30  B4D8               	btfsc	status,2,c
 12451  002A32  EF1D  F015         	goto	i2u572_41
 12452  002A36  EF1F  F015         	goto	i2u572_40
 12453  002A3A                     i2u572_41:
 12454  002A3A  EF43  F015         	goto	i2l4622
 12455  002A3E                     i2u572_40:
 12456  002A3E  0E01               	movlw	1
 12457  002A40  2601               	addwf	i2___fldiv@b^0,f,c
 12458  002A42  0E00               	movlw	0
 12459  002A44  2202               	addwfc	(i2___fldiv@b+1)^0,f,c
 12460  002A46  2203               	addwfc	(i2___fldiv@b+2)^0,f,c
 12461  002A48  2204               	addwfc	(i2___fldiv@b+3)^0,f,c
 12462  002A4A  A004               	btfss	(i2___fldiv@b+3)^0,0,c
 12463  002A4C  EF2A  F015         	goto	i2u573_41
 12464  002A50  EF2C  F015         	goto	i2u573_40
 12465  002A54                     i2u573_41:
 12466  002A54  EF43  F015         	goto	i2l4622
 12467  002A58                     i2u573_40:
 12468  002A58  C001  F009         	movff	i2___fldiv@b,??i2___fldiv
 12469  002A5C  C002  F00A         	movff	i2___fldiv@b+1,??i2___fldiv+1
 12470  002A60  C003  F00B         	movff	i2___fldiv@b+2,??i2___fldiv+2
 12471  002A64  C004  F00C         	movff	i2___fldiv@b+3,??i2___fldiv+3
 12472  002A68  340C               	rlcf	(??i2___fldiv+3)^0,w,c
 12473  002A6A  320C               	rrcf	(??i2___fldiv+3)^0,f,c
 12474  002A6C  320B               	rrcf	(??i2___fldiv+2)^0,f,c
 12475  002A6E  320A               	rrcf	(??i2___fldiv+1)^0,f,c
 12476  002A70  3209               	rrcf	??i2___fldiv^0,f,c
 12477  002A72  C009  F001         	movff	??i2___fldiv,i2___fldiv@b
 12478  002A76  C00A  F002         	movff	??i2___fldiv+1,i2___fldiv@b+1
 12479  002A7A  C00B  F003         	movff	??i2___fldiv+2,i2___fldiv@b+2
 12480  002A7E  C00C  F004         	movff	??i2___fldiv+3,i2___fldiv@b+3
 12481  002A82  4A12               	infsnz	i2___fldiv@new_exp^0,f,c
 12482  002A84  2A13               	incf	(i2___fldiv@new_exp+1)^0,f,c
 12483  002A86                     i2l4622:
 12484  002A86  BE13               	btfsc	(i2___fldiv@new_exp+1)^0,7,c
 12485  002A88  EF4E  F015         	goto	i2u574_41
 12486  002A8C  5013               	movf	(i2___fldiv@new_exp+1)^0,w,c
 12487  002A8E  E108               	bnz	i2u574_40
 12488  002A90  2812               	incf	i2___fldiv@new_exp^0,w,c
 12489  002A92  A0D8               	btfss	status,0,c
 12490  002A94  EF4E  F015         	goto	i2u574_41
 12491  002A98  EF50  F015         	goto	i2u574_40
 12492  002A9C                     i2u574_41:
 12493  002A9C  EF5B  F015         	goto	i2l4626
 12494  002AA0                     i2u574_40:
 12495  002AA0  0E00               	movlw	0
 12496  002AA2  6E13               	movwf	(i2___fldiv@new_exp+1)^0,c
 12497  002AA4  6812               	setf	i2___fldiv@new_exp^0,c
 12498  002AA6  0E00               	movlw	0
 12499  002AA8  6E01               	movwf	i2___fldiv@b^0,c
 12500  002AAA  0E00               	movlw	0
 12501  002AAC  6E02               	movwf	(i2___fldiv@b+1)^0,c
 12502  002AAE  0E00               	movlw	0
 12503  002AB0  6E03               	movwf	(i2___fldiv@b+2)^0,c
 12504  002AB2  0E00               	movlw	0
 12505  002AB4  6E04               	movwf	(i2___fldiv@b+3)^0,c
 12506  002AB6                     i2l4626:
 12507  002AB6  BE13               	btfsc	(i2___fldiv@new_exp+1)^0,7,c
 12508  002AB8  EF68  F015         	goto	i2u575_40
 12509  002ABC  5013               	movf	(i2___fldiv@new_exp+1)^0,w,c
 12510  002ABE  E106               	bnz	i2u575_41
 12511  002AC0  0412               	decf	i2___fldiv@new_exp^0,w,c
 12512  002AC2  B0D8               	btfsc	status,0,c
 12513  002AC4  EF66  F015         	goto	i2u575_41
 12514  002AC8  EF68  F015         	goto	i2u575_40
 12515  002ACC                     i2u575_41:
 12516  002ACC  EF76  F015         	goto	i2l4630
 12517  002AD0                     i2u575_40:
 12518  002AD0  0E00               	movlw	0
 12519  002AD2  6E13               	movwf	(i2___fldiv@new_exp+1)^0,c
 12520  002AD4  0E00               	movlw	0
 12521  002AD6  6E12               	movwf	i2___fldiv@new_exp^0,c
 12522  002AD8  0E00               	movlw	0
 12523  002ADA  6E01               	movwf	i2___fldiv@b^0,c
 12524  002ADC  0E00               	movlw	0
 12525  002ADE  6E02               	movwf	(i2___fldiv@b+1)^0,c
 12526  002AE0  0E00               	movlw	0
 12527  002AE2  6E03               	movwf	(i2___fldiv@b+2)^0,c
 12528  002AE4  0E00               	movlw	0
 12529  002AE6  6E04               	movwf	(i2___fldiv@b+3)^0,c
 12530  002AE8  0E00               	movlw	0
 12531  002AEA  6E11               	movwf	i2___fldiv@sign^0,c
 12532  002AEC                     i2l4630:
 12533  002AEC  C012  F018         	movff	i2___fldiv@new_exp,i2___fldiv@bexp
 12534  002AF0  A018               	btfss	i2___fldiv@bexp^0,0,c
 12535  002AF2  EF7D  F015         	goto	i2u576_41
 12536  002AF6  EF7F  F015         	goto	i2u576_40
 12537  002AFA                     i2u576_41:
 12538  002AFA  EF82  F015         	goto	i2l4636
 12539  002AFE                     i2u576_40:
 12540  002AFE  8E03               	bsf	(i2___fldiv@b+2)^0,7,c
 12541  002B00  EF83  F015         	goto	i2l4638
 12542  002B04                     i2l4636:
 12543  002B04  9E03               	bcf	(i2___fldiv@b+2)^0,7,c
 12544  002B06                     i2l4638:
 12545  002B06  90D8               	bcf	status,0,c
 12546  002B08  3018               	rrcf	i2___fldiv@bexp^0,w,c
 12547  002B0A  6E04               	movwf	(i2___fldiv@b+3)^0,c
 12548  002B0C  EF39  F014         	goto	i2l4552
 12549  002B10                     i2l748:
 12550  002B10  0012               	return		;funcret
 12551  002B12                     __end_ofi2___fldiv:
 12552                           	callstack 0
 12553                           
 12554 ;; *************** function i2_conv_AN0 *****************
 12555 ;; Defined at:
 12556 ;;		line 103 in file "Program_Interrupt_Level.c"
 12557 ;; Parameters:    Size  Location     Type
 12558 ;;		None
 12559 ;; Auto vars:     Size  Location     Type
 12560 ;;		None
 12561 ;; Return value:  Size  Location     Type
 12562 ;;                  1    wreg      void 
 12563 ;; Registers used:
 12564 ;;		wreg, status,2
 12565 ;; Tracked objects:
 12566 ;;		On entry : 0/0
 12567 ;;		On exit  : 0/0
 12568 ;;		Unchanged: 0/0
 12569 ;; Data sizes:     COMRAM   BANK0   BANK1   BANK2   BANK3   BANK4   BANK5
 12570 ;;      Params:         0       0       0       0       0       0       0
 12571 ;;      Locals:         0       0       0       0       0       0       0
 12572 ;;      Temps:          2       0       0       0       0       0       0
 12573 ;;      Totals:         2       0       0       0       0       0       0
 12574 ;;Total ram usage:        2 bytes
 12575 ;; Hardware stack levels used: 1
 12576 ;; This function calls:
 12577 ;;		Nothing
 12578 ;; This function is called by:
 12579 ;;		_config_HighLevel
 12580 ;; This function uses a non-reentrant model
 12581 ;;
 12582                           
 12583                           	psect	text54
 12584  00492A                     __ptext54:
 12585                           	callstack 0
 12586  00492A                     i2_conv_AN0:
 12587                           	callstack 20
 12588  00492A                     
 12589                           ;Program_Interrupt_Level.c: 105:     _delay((unsigned long)((50)*(8000000/4000.0)));
 12590  00492A  0E82               	movlw	130
 12591  00492C  6E01               	movwf	??i2_conv_AN0^0,c
 12592  00492E  0EDE               	movlw	222
 12593  004930                     i2u909_47:
 12594  004930  2EE8               	decfsz	wreg,f,c
 12595  004932  D7FE               	bra	i2u909_47
 12596  004934  2E01               	decfsz	??i2_conv_AN0^0,f,c
 12597  004936  D7FC               	bra	i2u909_47
 12598  004938                     
 12599                           ;Program_Interrupt_Level.c: 106:     ADCON0bits.GO = 1;
 12600  004938  82C2               	bsf	194,1,c	;volatile
 12601  00493A                     i2l60:
 12602  00493A  B2C2               	btfsc	194,1,c	;volatile
 12603  00493C  EFA2  F024         	goto	i2u629_41
 12604  004940  EFA4  F024         	goto	i2u629_40
 12605  004944                     i2u629_41:
 12606  004944  EF9D  F024         	goto	i2l60
 12607  004948                     i2u629_40:
 12608  004948                     
 12609                           ;Program_Interrupt_Level.c: 108:     VdigADC_AN0 = ADRESH;
 12610  004948  CFC4 F04C          	movff	4036,_VdigADC_AN0	;volatile
 12611  00494C  6A4D               	clrf	(_VdigADC_AN0+1)^0,c
 12612  00494E                     
 12613                           ;Program_Interrupt_Level.c: 109:     VdigADC_AN0 = (VdigADC_AN0 << 8) + ADRESL;
 12614  00494E  504C               	movf	_VdigADC_AN0^0,w,c
 12615  004950  6E01               	movwf	??i2_conv_AN0^0,c
 12616  004952  50C3               	movf	195,w,c	;volatile
 12617  004954  6E4C               	movwf	_VdigADC_AN0^0,c
 12618  004956  C001  F04D         	movff	??i2_conv_AN0,_VdigADC_AN0+1
 12619  00495A  0012               	return		;funcret
 12620  00495C                     __end_ofi2_conv_AN0:
 12621                           	callstack 0
 12622                           
 12623 ;; *************** function i2___flge *****************
 12624 ;; Defined at:
 12625 ;;		line 4 in file "C:\Program Files\Microchip\xc8\v2.36\pic\sources\c99\common\flge.c"
 12626 ;; Parameters:    Size  Location     Type
 12627 ;;  ff1             4    0[COMRAM] void 
 12628 ;;  ff2             4    4[COMRAM] void 
 12629 ;; Auto vars:     Size  Location     Type
 12630 ;;		None
 12631 ;; Return value:  Size  Location     Type
 12632 ;;		None               void
 12633 ;; Registers used:
 12634 ;;		wreg, status,2, status,0
 12635 ;; Tracked objects:
 12636 ;;		On entry : 0/0
 12637 ;;		On exit  : 0/0
 12638 ;;		Unchanged: 0/0
 12639 ;; Data sizes:     COMRAM   BANK0   BANK1   BANK2   BANK3   BANK4   BANK5
 12640 ;;      Params:         8       0       0       0       0       0       0
 12641 ;;      Locals:         0       0       0       0       0       0       0
 12642 ;;      Temps:          4       0       0       0       0       0       0
 12643 ;;      Totals:        12       0       0       0       0       0       0
 12644 ;;Total ram usage:       12 bytes
 12645 ;; Hardware stack levels used: 1
 12646 ;; This function calls:
 12647 ;;		Nothing
 12648 ;; This function is called by:
 12649 ;;		_config_HighLevel
 12650 ;; This function uses a non-reentrant model
 12651 ;;
 12652                           
 12653                           	psect	text55
 12654  0038FA                     __ptext55:
 12655                           	callstack 0
 12656  0038FA                     i2___flge:
 12657                           	callstack 20
 12658  0038FA  0E00               	movlw	0
 12659  0038FC  1401               	andwf	i2___flge@ff1^0,w,c
 12660  0038FE  6E09               	movwf	??i2___flge^0,c
 12661  003900  0E00               	movlw	0
 12662  003902  1402               	andwf	(i2___flge@ff1+1)^0,w,c
 12663  003904  6E0A               	movwf	(??i2___flge+1)^0,c
 12664  003906  0E80               	movlw	128
 12665  003908  1403               	andwf	(i2___flge@ff1+2)^0,w,c
 12666  00390A  6E0B               	movwf	(??i2___flge+2)^0,c
 12667  00390C  0E7F               	movlw	127
 12668  00390E  1404               	andwf	(i2___flge@ff1+3)^0,w,c
 12669  003910  6E0C               	movwf	(??i2___flge+3)^0,c
 12670  003912  5009               	movf	??i2___flge^0,w,c
 12671  003914  100A               	iorwf	(??i2___flge+1)^0,w,c
 12672  003916  100B               	iorwf	(??i2___flge+2)^0,w,c
 12673  003918  100C               	iorwf	(??i2___flge+3)^0,w,c
 12674  00391A  A4D8               	btfss	status,2,c
 12675  00391C  EF92  F01C         	goto	i2u635_41
 12676  003920  EF94  F01C         	goto	i2u635_40
 12677  003924                     i2u635_41:
 12678  003924  EF9C  F01C         	goto	i2l4986
 12679  003928                     i2u635_40:
 12680  003928  0E00               	movlw	0
 12681  00392A  6E01               	movwf	i2___flge@ff1^0,c
 12682  00392C  0E00               	movlw	0
 12683  00392E  6E02               	movwf	(i2___flge@ff1+1)^0,c
 12684  003930  0E00               	movlw	0
 12685  003932  6E03               	movwf	(i2___flge@ff1+2)^0,c
 12686  003934  0E00               	movlw	0
 12687  003936  6E04               	movwf	(i2___flge@ff1+3)^0,c
 12688  003938                     i2l4986:
 12689  003938  0E00               	movlw	0
 12690  00393A  1405               	andwf	i2___flge@ff2^0,w,c
 12691  00393C  6E09               	movwf	??i2___flge^0,c
 12692  00393E  0E00               	movlw	0
 12693  003940  1406               	andwf	(i2___flge@ff2+1)^0,w,c
 12694  003942  6E0A               	movwf	(??i2___flge+1)^0,c
 12695  003944  0E80               	movlw	128
 12696  003946  1407               	andwf	(i2___flge@ff2+2)^0,w,c
 12697  003948  6E0B               	movwf	(??i2___flge+2)^0,c
 12698  00394A  0E7F               	movlw	127
 12699  00394C  1408               	andwf	(i2___flge@ff2+3)^0,w,c
 12700  00394E  6E0C               	movwf	(??i2___flge+3)^0,c
 12701  003950  5009               	movf	??i2___flge^0,w,c
 12702  003952  100A               	iorwf	(??i2___flge+1)^0,w,c
 12703  003954  100B               	iorwf	(??i2___flge+2)^0,w,c
 12704  003956  100C               	iorwf	(??i2___flge+3)^0,w,c
 12705  003958  A4D8               	btfss	status,2,c
 12706  00395A  EFB1  F01C         	goto	i2u636_41
 12707  00395E  EFB3  F01C         	goto	i2u636_40
 12708  003962                     i2u636_41:
 12709  003962  EFBB  F01C         	goto	i2l4990
 12710  003966                     i2u636_40:
 12711  003966  0E00               	movlw	0
 12712  003968  6E05               	movwf	i2___flge@ff2^0,c
 12713  00396A  0E00               	movlw	0
 12714  00396C  6E06               	movwf	(i2___flge@ff2+1)^0,c
 12715  00396E  0E00               	movlw	0
 12716  003970  6E07               	movwf	(i2___flge@ff2+2)^0,c
 12717  003972  0E00               	movlw	0
 12718  003974  6E08               	movwf	(i2___flge@ff2+3)^0,c
 12719  003976                     i2l4990:
 12720  003976  AE04               	btfss	(i2___flge@ff1+3)^0,7,c
 12721  003978  EFC0  F01C         	goto	i2u637_41
 12722  00397C  EFC2  F01C         	goto	i2u637_40
 12723  003980                     i2u637_41:
 12724  003980  EFCB  F01C         	goto	i2l4994
 12725  003984                     i2u637_40:
 12726  003984  6C01               	negf	i2___flge@ff1^0,c
 12727  003986  1E02               	comf	(i2___flge@ff1+1)^0,f,c
 12728  003988  B0D8               	btfsc	status,0,c
 12729  00398A  2A02               	incf	(i2___flge@ff1+1)^0,f,c
 12730  00398C  1E03               	comf	(i2___flge@ff1+2)^0,f,c
 12731  00398E  B0D8               	btfsc	status,0,c
 12732  003990  2A03               	incf	(i2___flge@ff1+2)^0,f,c
 12733  003992  0E80               	movlw	128
 12734  003994  5604               	subfwb	(i2___flge@ff1+3)^0,f,c
 12735  003996                     i2l4994:
 12736  003996  AE08               	btfss	(i2___flge@ff2+3)^0,7,c
 12737  003998  EFD0  F01C         	goto	i2u638_41
 12738  00399C  EFD2  F01C         	goto	i2u638_40
 12739  0039A0                     i2u638_41:
 12740  0039A0  EFDB  F01C         	goto	i2l431
 12741  0039A4                     i2u638_40:
 12742  0039A4  6C05               	negf	i2___flge@ff2^0,c
 12743  0039A6  1E06               	comf	(i2___flge@ff2+1)^0,f,c
 12744  0039A8  B0D8               	btfsc	status,0,c
 12745  0039AA  2A06               	incf	(i2___flge@ff2+1)^0,f,c
 12746  0039AC  1E07               	comf	(i2___flge@ff2+2)^0,f,c
 12747  0039AE  B0D8               	btfsc	status,0,c
 12748  0039B0  2A07               	incf	(i2___flge@ff2+2)^0,f,c
 12749  0039B2  0E80               	movlw	128
 12750  0039B4  5608               	subfwb	(i2___flge@ff2+3)^0,f,c
 12751  0039B6                     i2l431:
 12752  0039B6  0E00               	movlw	0
 12753  0039B8  1A01               	xorwf	i2___flge@ff1^0,f,c
 12754  0039BA  0E00               	movlw	0
 12755  0039BC  1A02               	xorwf	(i2___flge@ff1+1)^0,f,c
 12756  0039BE  0E00               	movlw	0
 12757  0039C0  1A03               	xorwf	(i2___flge@ff1+2)^0,f,c
 12758  0039C2  0E80               	movlw	128
 12759  0039C4  1A04               	xorwf	(i2___flge@ff1+3)^0,f,c
 12760  0039C6  0E00               	movlw	0
 12761  0039C8  1A05               	xorwf	i2___flge@ff2^0,f,c
 12762  0039CA  0E00               	movlw	0
 12763  0039CC  1A06               	xorwf	(i2___flge@ff2+1)^0,f,c
 12764  0039CE  0E00               	movlw	0
 12765  0039D0  1A07               	xorwf	(i2___flge@ff2+2)^0,f,c
 12766  0039D2  0E80               	movlw	128
 12767  0039D4  1A08               	xorwf	(i2___flge@ff2+3)^0,f,c
 12768  0039D6  5005               	movf	i2___flge@ff2^0,w,c
 12769  0039D8  5C01               	subwf	i2___flge@ff1^0,w,c
 12770  0039DA  5006               	movf	(i2___flge@ff2+1)^0,w,c
 12771  0039DC  5802               	subwfb	(i2___flge@ff1+1)^0,w,c
 12772  0039DE  5007               	movf	(i2___flge@ff2+2)^0,w,c
 12773  0039E0  5803               	subwfb	(i2___flge@ff1+2)^0,w,c
 12774  0039E2  5008               	movf	(i2___flge@ff2+3)^0,w,c
 12775  0039E4  5804               	subwfb	(i2___flge@ff1+3)^0,w,c
 12776  0039E6  B0D8               	btfsc	status,0,c
 12777  0039E8  EFF8  F01C         	goto	i2u639_41
 12778  0039EC  EFFA  F01C         	goto	i2u639_40
 12779  0039F0                     i2u639_41:
 12780  0039F0  EFFD  F01C         	goto	i2l5000
 12781  0039F4                     i2u639_40:
 12782  0039F4  90D8               	bcf	status,0,c
 12783  0039F6  EFFE  F01C         	goto	i2l436
 12784  0039FA                     i2l5000:
 12785  0039FA  80D8               	bsf	status,0,c
 12786  0039FC                     i2l436:
 12787  0039FC  0012               	return		;funcret
 12788  0039FE                     __end_ofi2___flge:
 12789                           	callstack 0
 12790                           
 12791                           	psect	rparam
 12792  0000                     
 12793                           	psect	temp
 12794  00004E                     btemp:
 12795                           	callstack 0
 12796  00004E                     	ds	1
 12797  0000                     int$flags	set	btemp
 12798  0000                     wtemp8	set	btemp+1
 12799  0000                     ttemp5	set	btemp+1
 12800  0000                     ttemp6	set	btemp+4
 12801  0000                     ttemp7	set	btemp+8
 12802                           
 12803                           	psect	idloc
 12804                           
 12805                           ;Config register IDLOC0 @ 0x200000
 12806                           ;	unspecified, using default values
 12807  200000                     	org	2097152
 12808  200000  FF                 	db	255
 12809                           
 12810                           ;Config register IDLOC1 @ 0x200001
 12811                           ;	unspecified, using default values
 12812  200001                     	org	2097153
 12813  200001  FF                 	db	255
 12814                           
 12815                           ;Config register IDLOC2 @ 0x200002
 12816                           ;	unspecified, using default values
 12817  200002                     	org	2097154
 12818  200002  FF                 	db	255
 12819                           
 12820                           ;Config register IDLOC3 @ 0x200003
 12821                           ;	unspecified, using default values
 12822  200003                     	org	2097155
 12823  200003  FF                 	db	255
 12824                           
 12825                           ;Config register IDLOC4 @ 0x200004
 12826                           ;	unspecified, using default values
 12827  200004                     	org	2097156
 12828  200004  FF                 	db	255
 12829                           
 12830                           ;Config register IDLOC5 @ 0x200005
 12831                           ;	unspecified, using default values
 12832  200005                     	org	2097157
 12833  200005  FF                 	db	255
 12834                           
 12835                           ;Config register IDLOC6 @ 0x200006
 12836                           ;	unspecified, using default values
 12837  200006                     	org	2097158
 12838  200006  FF                 	db	255
 12839                           
 12840                           ;Config register IDLOC7 @ 0x200007
 12841                           ;	unspecified, using default values
 12842  200007                     	org	2097159
 12843  200007  FF                 	db	255
 12844                           
 12845                           	psect	config
 12846                           
 12847                           ; Padding undefined space
 12848  300000                     	org	3145728
 12849  300000  FF                 	db	255
 12850                           
 12851                           ;Config register CONFIG1H @ 0x300001
 12852                           ;	Oscillator Selection bits
 12853                           ;	OSC = HS, HS oscillator
 12854                           ;	Fail-Safe Clock Monitor Enable bit
 12855                           ;	FCMEN = OFF, Fail-Safe Clock Monitor disabled
 12856                           ;	Internal/External Oscillator Switchover bit
 12857                           ;	IESO = OFF, Oscillator Switchover mode disabled
 12858  300001                     	org	3145729
 12859  300001  02                 	db	2
 12860                           
 12861                           ;Config register CONFIG2L @ 0x300002
 12862                           ;	Power-up Timer Enable bit
 12863                           ;	PWRT = OFF, PWRT disabled
 12864                           ;	Brown-out Reset Enable bits
 12865                           ;	BOREN = OFF, Brown-out Reset disabled in hardware and software
 12866                           ;	Brown Out Reset Voltage bits
 12867                           ;	BORV = 3, Minimum setting
 12868  300002                     	org	3145730
 12869  300002  19                 	db	25
 12870                           
 12871                           ;Config register CONFIG2H @ 0x300003
 12872                           ;	Watchdog Timer Enable bit
 12873                           ;	WDT = OFF, WDT disabled (control is placed on the SWDTEN bit)
 12874                           ;	Watchdog Timer Postscale Select bits
 12875                           ;	WDTPS = 32768, 1:32768
 12876  300003                     	org	3145731
 12877  300003  1E                 	db	30
 12878                           
 12879                           ; Padding undefined space
 12880  300004                     	org	3145732
 12881  300004  FF                 	db	255
 12882                           
 12883                           ;Config register CONFIG3H @ 0x300005
 12884                           ;	CCP2 MUX bit
 12885                           ;	CCP2MX = PORTC, CCP2 input/output is multiplexed with RC1
 12886                           ;	PORTB A/D Enable bit
 12887                           ;	PBADEN = OFF, PORTB<4:0> pins are configured as digital I/O on Reset
 12888                           ;	Low-Power Timer1 Oscillator Enable bit
 12889                           ;	LPT1OSC = OFF, Timer1 configured for higher power operation
 12890                           ;	MCLR Pin Enable bit
 12891                           ;	MCLRE = ON, MCLR pin enabled; RE3 input pin disabled
 12892  300005                     	org	3145733
 12893  300005  81                 	db	129
 12894                           
 12895                           ;Config register CONFIG4L @ 0x300006
 12896                           ;	Stack Full/Underflow Reset Enable bit
 12897                           ;	STVREN = ON, Stack full/underflow will cause Reset
 12898                           ;	Single-Supply ICSP Enable bit
 12899                           ;	LVP = OFF, Single-Supply ICSP disabled
 12900                           ;	Extended Instruction Set Enable bit
 12901                           ;	XINST = OFF, Instruction set extension and Indexed Addressing mode disabled (Legacy mo
      +                          de)
 12902                           ;	Background Debugger Enable bit
 12903                           ;	DEBUG = 0x1, unprogrammed default
 12904  300006                     	org	3145734
 12905  300006  81                 	db	129
 12906                           
 12907                           ; Padding undefined space
 12908  300007                     	org	3145735
 12909  300007  FF                 	db	255
 12910                           
 12911                           ;Config register CONFIG5L @ 0x300008
 12912                           ;	Code Protection bit
 12913                           ;	CP0 = OFF, Block 0 (000800-001FFFh) not code-protected
 12914                           ;	Code Protection bit
 12915                           ;	CP1 = OFF, Block 1 (002000-003FFFh) not code-protected
 12916                           ;	Code Protection bit
 12917                           ;	CP2 = OFF, Block 2 (004000-005FFFh) not code-protected
 12918                           ;	Code Protection bit
 12919                           ;	CP3 = OFF, Block 3 (006000-007FFFh) not code-protected
 12920  300008                     	org	3145736
 12921  300008  0F                 	db	15
 12922                           
 12923                           ;Config register CONFIG5H @ 0x300009
 12924                           ;	Boot Block Code Protection bit
 12925                           ;	CPB = OFF, Boot block (000000-0007FFh) not code-protected
 12926                           ;	Data EEPROM Code Protection bit
 12927                           ;	CPD = OFF, Data EEPROM not code-protected
 12928  300009                     	org	3145737
 12929  300009  C0                 	db	192
 12930                           
 12931                           ;Config register CONFIG6L @ 0x30000A
 12932                           ;	Write Protection bit
 12933                           ;	WRT0 = OFF, Block 0 (000800-001FFFh) not write-protected
 12934                           ;	Write Protection bit
 12935                           ;	WRT1 = OFF, Block 1 (002000-003FFFh) not write-protected
 12936                           ;	Write Protection bit
 12937                           ;	WRT2 = OFF, Block 2 (004000-005FFFh) not write-protected
 12938                           ;	Write Protection bit
 12939                           ;	WRT3 = OFF, Block 3 (006000-007FFFh) not write-protected
 12940  30000A                     	org	3145738
 12941  30000A  0F                 	db	15
 12942                           
 12943                           ;Config register CONFIG6H @ 0x30000B
 12944                           ;	Configuration Register Write Protection bit
 12945                           ;	WRTC = OFF, Configuration registers (300000-3000FFh) not write-protected
 12946                           ;	Boot Block Write Protection bit
 12947                           ;	WRTB = OFF, Boot block (000000-0007FFh) not write-protected
 12948                           ;	Data EEPROM Write Protection bit
 12949                           ;	WRTD = OFF, Data EEPROM not write-protected
 12950  30000B                     	org	3145739
 12951  30000B  E0                 	db	224
 12952                           
 12953                           ;Config register CONFIG7L @ 0x30000C
 12954                           ;	Table Read Protection bit
 12955                           ;	EBTR0 = OFF, Block 0 (000800-001FFFh) not protected from table reads executed in other
      +                           blocks
 12956                           ;	Table Read Protection bit
 12957                           ;	EBTR1 = OFF, Block 1 (002000-003FFFh) not protected from table reads executed in other
      +                           blocks
 12958                           ;	Table Read Protection bit
 12959                           ;	EBTR2 = OFF, Block 2 (004000-005FFFh) not protected from table reads executed in other
      +                           blocks
 12960                           ;	Table Read Protection bit
 12961                           ;	EBTR3 = OFF, Block 3 (006000-007FFFh) not protected from table reads executed in other
      +                           blocks
 12962  30000C                     	org	3145740
 12963  30000C  0F                 	db	15
 12964                           
 12965                           ;Config register CONFIG7H @ 0x30000D
 12966                           ;	Boot Block Table Read Protection bit
 12967                           ;	EBTRB = OFF, Boot block (000000-0007FFh) not protected from table reads executed in ot
      +                          her blocks
 12968  30000D                     	org	3145741
 12969  30000D  40                 	db	64
 12970                           tosu	equ	0xFFF
 12971                           tosh	equ	0xFFE
 12972                           tosl	equ	0xFFD
 12973                           stkptr	equ	0xFFC
 12974                           pclatu	equ	0xFFB
 12975                           pclath	equ	0xFFA
 12976                           pcl	equ	0xFF9
 12977                           tblptru	equ	0xFF8
 12978                           tblptrh	equ	0xFF7
 12979                           tblptrl	equ	0xFF6
 12980                           tablat	equ	0xFF5
 12981                           prodh	equ	0xFF4
 12982                           prodl	equ	0xFF3
 12983                           indf0	equ	0xFEF
 12984                           postinc0	equ	0xFEE
 12985                           postdec0	equ	0xFED
 12986                           preinc0	equ	0xFEC
 12987                           plusw0	equ	0xFEB
 12988                           fsr0h	equ	0xFEA
 12989                           fsr0l	equ	0xFE9
 12990                           wreg	equ	0xFE8
 12991                           indf1	equ	0xFE7
 12992                           postinc1	equ	0xFE6
 12993                           postdec1	equ	0xFE5
 12994                           preinc1	equ	0xFE4
 12995                           plusw1	equ	0xFE3
 12996                           fsr1h	equ	0xFE2
 12997                           fsr1l	equ	0xFE1
 12998                           bsr	equ	0xFE0
 12999                           indf2	equ	0xFDF
 13000                           postinc2	equ	0xFDE
 13001                           postdec2	equ	0xFDD
 13002                           preinc2	equ	0xFDC
 13003                           plusw2	equ	0xFDB
 13004                           fsr2h	equ	0xFDA
 13005                           fsr2l	equ	0xFD9
 13006                           status	equ	0xFD8

Data Sizes:
    Strings     101
    Constant    0
    Data        0
    BSS         172
    Persistent  0
    Stack       0

Auto Spaces:
    Space          Size  Autos    Used
    COMRAM          126     55      77
    BANK0           128    121     127
    BANK1           256     35     179
    BANK2           256      0       0
    BANK3           256      0       0
    BANK4           256      0       0
    BANK5           256      0       0

Pointer List with Targets:

    strncmp@_r	PTR const unsigned char  size(2) Largest target is 3
		 -> STR_17(CODE[3]), 

    strncmp@r	PTR const unsigned char  size(2) Largest target is 3
		 -> STR_17(CODE[3]), 

    strncmp@_l	PTR const unsigned char  size(2) Largest target is 3
		 -> vfpfcnvrt@ct(BANK1[3]), 

    strncmp@l	PTR const unsigned char  size(2) Largest target is 3
		 -> vfpfcnvrt@ct(BANK1[3]), 

    strlen@s	PTR const unsigned char  size(2) Largest target is 80
		 -> dbuf(BANK1[80]), 

    strlen@a	PTR const unsigned char  size(2) Largest target is 80
		 -> dbuf(BANK1[80]), 

    strcpy@dest	PTR unsigned char  size(2) Largest target is 80
		 -> dbuf(BANK1[80]), 

    strcpy@d	PTR unsigned char  size(2) Largest target is 80
		 -> dbuf(BANK1[80]), 

    strcpy@src	PTR const unsigned char  size(2) Largest target is 80
		 -> STR_12(CODE[4]), STR_11(CODE[4]), STR_8(CODE[4]), STR_7(CODE[4]), 
		 -> dbuf(BANK1[80]), 

    strcpy@s	PTR const unsigned char  size(2) Largest target is 80
		 -> STR_12(CODE[4]), STR_11(CODE[4]), STR_8(CODE[4]), STR_7(CODE[4]), 
		 -> dbuf(BANK1[80]), 

    fputs@s	PTR const unsigned char  size(2) Largest target is 80
		 -> dbuf(BANK1[80]), 

    fputs@fp	PTR struct _IO_FILE size(2) Largest target is 11
		 -> sprintf@f(BANK1[11]), 

    fputc@fp...source	PTR const unsigned char  size(2) Largest target is 0

    fputc@fp...buffer	PTR unsigned char  size(2) Largest target is 0

    fputc@fp	PTR struct _IO_FILE size(2) Largest target is 11
		 -> sprintf@f(BANK1[11]), 

    atoi@s	PTR const unsigned char  size(2) Largest target is 16
		 -> STR_2(CODE[16]), STR_1(CODE[16]), 

    vfprintf@ap	PTR PTR void  size(2) Largest target is 2
		 -> sprintf@ap(BANK1[2]), 

    vfprintf@fp	PTR struct _IO_FILE size(2) Largest target is 11
		 -> sprintf@f(BANK1[11]), 

    vfprintf@fmt	PTR const unsigned char  size(2) Largest target is 16
		 -> STR_2(CODE[16]), STR_1(CODE[16]), 

    vfprintf@cfmt	PTR unsigned char  size(2) Largest target is 16
		 -> STR_2(CODE[16]), STR_1(CODE[16]), 

    vfpfcnvrt@fp	PTR struct _IO_FILE size(2) Largest target is 11
		 -> sprintf@f(BANK1[11]), 

    vfpfcnvrt@ap	PTR PTR void  size(2) Largest target is 2
		 -> sprintf@ap(BANK1[2]), 

    vfpfcnvrt@fmt	PTR PTR unsigned char  size(2) Largest target is 2
		 -> vfprintf@cfmt(BANK0[2]), 

    efgtoa@fp	PTR struct _IO_FILE size(2) Largest target is 11
		 -> sprintf@f(BANK1[11]), 

    sp__strcpy	PTR unsigned char  size(2) Largest target is 80
		 -> dbuf(BANK1[80]), 

    pad@fp	PTR struct _IO_FILE size(2) Largest target is 11
		 -> sprintf@f(BANK1[11]), 

    pad@buf	PTR unsigned char  size(2) Largest target is 80
		 -> dbuf(BANK1[80]), 

    sprintf@fmt	PTR const unsigned char  size(2) Largest target is 16
		 -> STR_2(CODE[16]), STR_1(CODE[16]), 

    sprintf@s	PTR unsigned char  size(2) Largest target is 32
		 -> BufferLevel(BANK1[32]), BufferVoltage(BANK1[32]), 

    sprintf@ap	PTR void [1] size(2) Largest target is 2
		 -> ?_sprintf(BANK1[2]), 

    S983$source	PTR const unsigned char  size(2) Largest target is 0

    f...source	PTR const unsigned char  size(2) Largest target is 0

    S983$buffer	PTR unsigned char  size(2) Largest target is 0

    f...buffer	PTR unsigned char  size(2) Largest target is 0

    lcd_write@str	PTR unsigned char  size(2) Largest target is 32
		 -> STR_6(CODE[16]), STR_5(CODE[16]), STR_4(CODE[18]), STR_3(CODE[16]), 
		 -> BufferLevel(BANK1[32]), BufferVoltage(BANK1[32]), 


Critical Paths under _main in COMRAM

    _main->_lcd_init
    _lcd_init->_lcd_cmd
    _equation_SENSOR->___fldiv
    _equation_SENSOR->___xxtofl
    _control_LOW->___fleq
    _control_HIGH->___fleq
    _vfpfcnvrt->_isdigit
    _vfpfcnvrt->_isupper
    _vfpfcnvrt->_strncmp
    _efgtoa->___awmod
    _efgtoa->___fltol
    _efgtoa->_isupper
    _efgtoa->_strcpy
    _tolower->_isupper
    _pad->_fputc
    _pad->_strlen
    _fputs->_fputc
    _floorf->___fldiv
    ___flsub->___fladd
    ___flmul->___xxtofl
    _atoi->___wmul
    _atoi->_isdigit
    _atoi->_isspace
    _lcd_write->_lcd_send_byte
    _lcd_send_byte->_lcd_cmd
    _lcd_cmd->_set_bit

Critical Paths under _config_HighLevel in COMRAM

    i2_lcd_write->i2_lcd_send_byte
    i2_lcd_send_byte->i2_lcd_cmd
    i2_lcd_cmd->i2_set_bit
    i2_equation_SENSOR->i2___flmul
    i2___flmul->i2___xxtofl

Critical Paths under _main in BANK0

    _equation_SENSOR->___flmul
    _control_LOW->___flge
    _control_HIGH->___flge
    _sprintf->_vfprintf
    _vfprintf->_vfpfcnvrt
    _vfpfcnvrt->_efgtoa
    _efgtoa->___flge
    _pad->_fputs
    _fputs->_fputc
    _floorf->___fldiv
    ___flsub->___flmul
    ___flmul->___xxtofl
    ___flge->___flmul
    _atoi->_isspace

Critical Paths under _config_HighLevel in BANK0

    None.

Critical Paths under _main in BANK1

    _Lcd_Print->_sprintf
    _sprintf->_vfprintf
    _vfprintf->_vfpfcnvrt

Critical Paths under _config_HighLevel in BANK1

    None.

Critical Paths under _main in BANK2

    None.

Critical Paths under _config_HighLevel in BANK2

    None.

Critical Paths under _main in BANK3

    None.

Critical Paths under _config_HighLevel in BANK3

    None.

Critical Paths under _main in BANK4

    None.

Critical Paths under _config_HighLevel in BANK4

    None.

Critical Paths under _main in BANK5

    None.

Critical Paths under _config_HighLevel in BANK5

    None.

Call Graph Tables:

 ---------------------------------------------------------------------------------
 (Depth) Function   	        Calls       Base Space   Used Autos Params    Refs
 ---------------------------------------------------------------------------------
 (0) _main                                                 0     0      0   62970
                          _Lcd_Print
                         _config_ADC
                        _config_FOSC
                          _config_IO
                   _config_Interrupt
                       _control_HIGH
                        _control_LOW
                           _conv_AN0
                    _equation_SENSOR
                           _lcd_init
 ---------------------------------------------------------------------------------
 (1) _lcd_init                                             2     2      0    1098
                                             53 COMRAM     2     2      0
                            _lcd_cmd
 ---------------------------------------------------------------------------------
 (1) _equation_SENSOR                                      0     0      0    7242
                            ___fldiv
                            ___flmul
                           ___xxtofl
 ---------------------------------------------------------------------------------
 (2) ___xxtofl                                            14    10      4     566
                                             49 COMRAM     4     0      4
                                              0 BANK0     10    10      0
 ---------------------------------------------------------------------------------
 (1) _conv_AN0                                             2     2      0       0
                                             49 COMRAM     2     2      0
 ---------------------------------------------------------------------------------
 (1) _control_LOW                                          0     0      0    5466
                             ___fleq
                             ___flge
 ---------------------------------------------------------------------------------
 (1) _control_HIGH                                         0     0      0    5466
                             ___fleq
                             ___flge
 ---------------------------------------------------------------------------------
 (1) _config_Interrupt                                     0     0      0       0
 ---------------------------------------------------------------------------------
 (1) _config_IO                                            0     0      0       0
 ---------------------------------------------------------------------------------
 (1) _config_FOSC                                          0     0      0       0
 ---------------------------------------------------------------------------------
 (1) _config_ADC                                           0     0      0       0
 ---------------------------------------------------------------------------------
 (1) _Lcd_Print                                            0     0      0   43698
                          _lcd_write
                            _sprintf
 ---------------------------------------------------------------------------------
 (2) _sprintf                                             23    15      8   41260
                                             14 BANK1     21    13      8
                           _vfprintf
 ---------------------------------------------------------------------------------
 (3) _vfprintf                                             8     2      6   40576
                                            119 BANK0      2     2      0
                                              8 BANK1      6     0      6
                          _vfpfcnvrt
 ---------------------------------------------------------------------------------
 (4) _vfpfcnvrt                                           44    38      6   40049
                                            109 BANK0     10     4      6
                                              0 BANK1      8     8      0
                               _atoi
                             _efgtoa
                              _fputc
                            _isdigit
                            _isupper
                            _strncmp
                            _tolower
 ---------------------------------------------------------------------------------
 (5) _strncmp                                             11     5      6     595
                                             49 COMRAM     6     0      6
                                              0 BANK0      5     5      0
 ---------------------------------------------------------------------------------
 (5) _efgtoa                                              62    55      7   33462
                                             47 BANK0     62    55      7
                            ___awdiv
                            ___awmod
                            ___fladd
                            ___fldiv
                             ___fleq
                             ___flge
                            ___flmul
                            ___flneg
                            ___flsub
                            ___fltol
                      ___fpclassifyf
                             _floorf
                            _isupper
                                _pad
                             _strcpy
                            _tolower
 ---------------------------------------------------------------------------------
 (5) _tolower                                              6     4      2    1105
                                              0 BANK0      6     4      2
                            _isupper
 ---------------------------------------------------------------------------------
 (6) _isupper                                              6     4      2     551
                                             49 COMRAM     6     4      2
 ---------------------------------------------------------------------------------
 (6) _strcpy                                              10     6      4    1037
                                             49 COMRAM     6     2      4
                                              0 BANK0      4     4      0
 ---------------------------------------------------------------------------------
 (6) _pad                                                 11     5      6    3957
                                             53 COMRAM     1     1      0
                                             12 BANK0     10     4      6
                              _fputc
                              _fputs
                             _strlen
 ---------------------------------------------------------------------------------
 (7) _strlen                                               4     2      2     220
                                             49 COMRAM     4     2      2
 ---------------------------------------------------------------------------------
 (7) _fputs                                                7     3      4    1537
                                              5 BANK0      7     3      4
                              _fputc
 ---------------------------------------------------------------------------------
 (5) _fputc                                                9     5      4    1037
                                             49 COMRAM     4     0      4
                                              0 BANK0      5     5      0
                              _putch
 ---------------------------------------------------------------------------------
 (6) _putch                                                1     1      0       0
 ---------------------------------------------------------------------------------
 (6) _floorf                                              20    16      4     669
                                             21 BANK0     20    16      4
                            ___fldiv (ARG)
 ---------------------------------------------------------------------------------
 (6) ___fpclassifyf                                       14    10      4     375
                                             49 COMRAM     4     0      4
                                              0 BANK0     10    10      0
 ---------------------------------------------------------------------------------
 (6) ___fltol                                             10     6      4     517
                                             49 COMRAM     6     2      4
                                              0 BANK0      4     4      0
 ---------------------------------------------------------------------------------
 (6) ___flsub                                              8     0      8    4007
                                             35 BANK0      8     0      8
                            ___fladd
                            ___flmul (ARG)
 ---------------------------------------------------------------------------------
 (7) ___fladd                                             16     8      8    3442
                                             49 COMRAM     4     4      0
                                              0 BANK0     12     4      8
 ---------------------------------------------------------------------------------
 (6) ___flneg                                              4     0      4     155
                                             49 COMRAM     4     0      4
 ---------------------------------------------------------------------------------
 (2) ___flmul                                             25    17      8    3773
                                             10 BANK0     25    17      8
                           ___xxtofl (ARG)
 ---------------------------------------------------------------------------------
 (2) ___flge                                              12     4      8    3976
                                             35 BANK0     12     4      8
                            ___flmul (ARG)
 ---------------------------------------------------------------------------------
 (2) ___fleq                                              12     4      8    1490
                                             49 COMRAM     4     4      0
                                              0 BANK0      8     0      8
 ---------------------------------------------------------------------------------
 (2) ___fldiv                                             25    17      8    2903
                                             49 COMRAM     4     4      0
                                              0 BANK0     21    13      8
 ---------------------------------------------------------------------------------
 (6) ___awmod                                              6     2      4     613
                                             49 COMRAM     6     2      4
 ---------------------------------------------------------------------------------
 (6) ___awdiv                                              8     4      4     625
                                             49 COMRAM     4     0      4
                                              0 BANK0      4     4      0
 ---------------------------------------------------------------------------------
 (5) _atoi                                                10     8      2    1404
                                              1 BANK0     10     8      2
                             ___wmul
                            _isdigit
                            _isspace
 ---------------------------------------------------------------------------------
 (6) _isspace                                              7     5      2     259
                                             49 COMRAM     6     4      2
                                              0 BANK0      1     1      0
 ---------------------------------------------------------------------------------
 (5) _isdigit                                              6     4      2     281
                                             49 COMRAM     6     4      2
 ---------------------------------------------------------------------------------
 (6) ___wmul                                               6     2      4     412
                                             49 COMRAM     6     2      4
 ---------------------------------------------------------------------------------
 (2) _lcd_write                                            5     2      3    2438
                                              0 BANK0      5     2      3
                      _lcd_send_byte
 ---------------------------------------------------------------------------------
 (3) _lcd_send_byte                                        2     1      1    1272
                                             53 COMRAM     2     1      1
                            _lcd_cmd
 ---------------------------------------------------------------------------------
 (2) _lcd_cmd                                              2     2      0    1030
                                             51 COMRAM     2     2      0
                            _set_bit
 ---------------------------------------------------------------------------------
 (3) _set_bit                                              2     1      1     782
                                             49 COMRAM     2     1      1
 ---------------------------------------------------------------------------------
 Estimated maximum stack depth 7
 ---------------------------------------------------------------------------------
 (Depth) Function   	        Calls       Base Space   Used Autos Params    Refs
 ---------------------------------------------------------------------------------
 (10) _config_HighLevel                                   10    10      0    4058
                                             39 COMRAM    10    10      0
                           i2___flge
                         i2_conv_AN0
                  i2_equation_SENSOR
                        i2_lcd_write
 ---------------------------------------------------------------------------------
 (11) i2_lcd_write                                         5     2      3     785
                                              6 COMRAM     5     2      3
                    i2_lcd_send_byte
 ---------------------------------------------------------------------------------
 (12) i2_lcd_send_byte                                     2     1      1     524
                                              4 COMRAM     2     1      1
                          i2_lcd_cmd
 ---------------------------------------------------------------------------------
 (13) i2_lcd_cmd                                           2     2      0     428
                                              2 COMRAM     2     2      0
                          i2_set_bit
 ---------------------------------------------------------------------------------
 (14) i2_set_bit                                           2     1      1     252
                                              0 COMRAM     2     1      1
 ---------------------------------------------------------------------------------
 (11) i2_equation_SENSOR                                   0     0      0    3039
                          i2___fldiv
                          i2___flmul
                         i2___xxtofl
 ---------------------------------------------------------------------------------
 (12) i2___xxtofl                                         14    10      4     348
                                              0 COMRAM    14    10      4
 ---------------------------------------------------------------------------------
 (12) i2___flmul                                          25    17      8    1518
                                             14 COMRAM    25    17      8
                         i2___xxtofl (ARG)
 ---------------------------------------------------------------------------------
 (12) i2___fldiv                                          25    17      8    1173
                                              0 COMRAM    25    17      8
 ---------------------------------------------------------------------------------
 (11) i2_conv_AN0                                          2     2      0       0
                                              0 COMRAM     2     2      0
 ---------------------------------------------------------------------------------
 (11) i2___flge                                           12     4      8     234
                                              0 COMRAM    12     4      8
 ---------------------------------------------------------------------------------
 Estimated maximum stack depth 14
 ---------------------------------------------------------------------------------

 Call Graph Graphs:

 _main (ROOT)
   _Lcd_Print
     _lcd_write
       _lcd_send_byte
         _lcd_cmd
           _set_bit
     _sprintf
       _vfprintf
         _vfpfcnvrt
           _atoi
             ___wmul
             _isdigit
             _isspace
           _efgtoa
             ___awdiv
             ___awmod
             ___fladd
             ___fldiv
             ___fleq
             ___flge
               ___flmul (ARG)
                 ___xxtofl (ARG)
             ___flmul
             ___flneg
             ___flsub
               ___fladd
               ___flmul (ARG)
             ___fltol
             ___fpclassifyf
             _floorf
               ___fldiv (ARG)
             _isupper
             _pad
               _fputc
                 _putch
               _fputs
                 _fputc
               _strlen
             _strcpy
             _tolower
               _isupper
           _fputc
           _isdigit
           _isupper
           _strncmp
           _tolower
   _config_ADC
   _config_FOSC
   _config_IO
   _config_Interrupt
   _control_HIGH
     ___fleq
     ___flge
   _control_LOW
     ___fleq
     ___flge
   _conv_AN0
   _equation_SENSOR
     ___fldiv
     ___flmul
     ___xxtofl
   _lcd_init
     _lcd_cmd

 _config_HighLevel (ROOT)
   i2___flge
   i2_conv_AN0
   i2_equation_SENSOR
     i2___fldiv
     i2___flmul
       i2___xxtofl (ARG)
     i2___xxtofl
   i2_lcd_write
     i2_lcd_send_byte
       i2_lcd_cmd
         i2_set_bit

 Address spaces:
Name               Size   Autos  Total    Cost      Usage
BIGRAM             5FF      0       0      24        0.0%
EEDATA             100      0       0       0        0.0%
BITBANK5           100      0       0      14        0.0%
BANK5              100      0       0      15        0.0%
BITBANK4           100      0       0      12        0.0%
BANK4              100      0       0      13        0.0%
BITBANK3           100      0       0      10        0.0%
BANK3              100      0       0      11        0.0%
BITBANK2           100      0       0       8        0.0%
BANK2              100      0       0       9        0.0%
BITBANK1           100      0       0       6        0.0%
BANK1              100     23      B3       7       69.9%
BITBANK0            80      0       0       4        0.0%
BANK0               80     79      7F       5       99.2%
BITCOMRAM           7E      0       0       0        0.0%
COMRAM              7E     37      4D       1       61.1%
BITBIGSFRlhl        24      0       0      19        0.0%
BITBIGSFRhl         1D      0       0      17        0.0%
BITBIGSFRlllh        E      0       0      21        0.0%
BITBIGSFRlhhh        E      0       0      18        0.0%
BITBIGSFRhh          D      0       0      16        0.0%
BITBIGSFRllh         4      0       0      20        0.0%
BITBIGSFRllll        2      0       0      22        0.0%
BIGSFR               0      0       0     200        0.0%
BITSFR               0      0       0     200        0.0%
SFR                  0      0       0     200        0.0%
STACK                0      0       0       2        0.0%
NULL                 0      0       0       0        0.0%
ABS                  0      0     17F      23        0.0%
DATA                 0      0     17F       3        0.0%
CODE                 0      0       0       0        0.0%


Microchip Technology PIC18 Macro Assembler V2.36 build 20220127204148 
Symbol Table                                                                                   Mon Jun 06 22:24:22 2022

             ___fldiv@aexp 0094               ___fldiv@bexp 0093               ___fldiv@sign 008C  
                       l51 4A58                         l60 4908                         l54 4A4E  
                       l62 4916                         l63 4928                         l57 4A3A  
                       l66 44B4                         l84 2D9E                         l69 45A6  
                       l93 300E                         l78 2D9E                         l99 300E  
           ?_lcd_send_byte 0036               ___awdiv@sign 0081        ___wmul@multiplicand 0034  
            i2set_bit@comp 0001                        l102 4A44                        l140 4434  
                      l151 4A0E                        l144 49D0                        l410 41A4  
                      l163 42F6                        l148 3CDA                        l166 49B0  
                      l431 38B2                        l440 4854                        l425 4250  
                      l436 38F8                        l711 158A                        l703 1740  
                      l463 37F2                        l720 165A                        l721 1648  
                      l397 40F4                        l821 3280                        l750 25D6  
                      l736 47E4                        l824 33DC                        l761 2694  
                      l753 259A                        l762 2682                        l922 0A28  
                      l906 127E                        l835 3374                        l748 2776  
                      l780 1C4C                        l844 470C                        l828 3318  
                      l790 1EA8                        l694 1470                        l950 0E6A  
                      l759 261C                        l695 145E                        l784 1FB0  
                      l696 1424                        l890 402E                        l787 1E42  
                      l797 1F72                        l789 1EBA                        l885 3FAE  
                      l888 3FF2                        l992 1B84                        l997 1ACA  
                      _pad 3F68                i2___fldiv@a 0005                i2___fldiv@b 0001  
             ___awmod@sign 0037                 i2___xxtofl 33DE                        wreg 000FE8  
              i2___flmul@a 0013                i2___flmul@b 000F               ___flmul@aexp 0097  
             ___flmul@bexp 009C               ___flmul@sign 0096               ___flmul@temp 00A1  
             ___flmul@prod 009D               ?_control_LOW 0001                 i2_conv_AN0 492A  
             ___fltol@exp1 0037                       l1003 4600                       l1004 4608  
                     l1014 3AFC                       l1102 4666                       l1040 36EA  
                     l1112 3E98                       l1122 474C                       l1108 48C2  
                     l1037 36E2                       l1125 4754                       l1046 3224  
                     l1070 481C                       l1056 488C                       l1064 46BA  
                     l1049 3168                       l1085 3F66                       l1093 479C  
                     l1096 4A5A                       l5100 12BE                       l5110 12EE  
                     l5102 12CE                       l5200 14C0                       l5120 1318  
                     l5112 1300                       l5104 12D0                       l6000 0AF0  
                     l5210 14EE                       l5202 14CE                       l5122 1328  
                     l5130 1352                       l5114 1302                       l5106 12D8  
                     l6010 0B3E                       l6002 0AF4                       l5220 155A  
                     l5212 14F8                       l5204 14DA                       l5140 138A  
                     l5132 1362                       l5124 1338                       l5116 1308  
                     l5108 12E8                       l5300 488E                       l6100 0FCA  
                     l6020 0BD6                       l6004 0B06                       l6012 0B46  
                     l5222 156A                       l5206 14DE                       l5214 14FE  
                     l5150 139E                       l5142 138E                       l5134 1374  
                     l5126 1348                       l5118 1316                       l5302 489A  
                     l5310 47E6                       l6110 1082                       l6102 1022  
                     l6030 0CBC                       l6022 0C2E                       l6014 0B4E  
                     l6006 0B14                       l6200 3646                       l5400 25C4  
                     l5320 23DC                       l5240 15EC                       l5232 15C4  
                     l5216 1524                       l5224 157A                       l5208 14EC  
                     l5160 13B2                       l5152 13A2                       l5144 1392  
                     l5136 1382                       l5128 134A                       l5080 3EBE  
                     l5304 489E                       l6120 10D2                       l6112 109E  
                     l6104 1058                       l6040 0D56                       l6032 0CF0  
                     l6024 0C64                       l6016 0B5E                       l6008 0B2C  
                     l5314 498C                       l6210 36C6                       l5410 260C  
                     l5402 25D4                       l5330 241A                       l5322 23EA  
                     l5242 15F4                       l5234 15CE                       l5226 15A0  
                     l5218 1558                       l5250 1618                       l5170 13C6  
                     l5162 13B6                       l5154 13A6                       l5146 1396  
                     l5138 1386                       l5090 1280                       l5082 3EC8  
                     l5306 48B6                       l6130 1114                       l6122 10E2  
                     l6114 10B0                       l6106 1060                       l6050 0E30  
                     l6042 0D8A                       l6034 0D04                       l6018 0B72  
                     l6026 0C6A                       l2842 4A50                       l2850 4906  
                     l5316 49A8                       l5420 264C                       l5412 261A  
                     l5404 25E6                       l5340 244A                       l5332 242A  
                     l5324 23F8                       l5500 1C8C                       l5260 166A  
                     l5252 161C                       l5244 15F8                       l5236 15DC  
                     l5228 15B0                       l5180 143E                       l5172 13F0  
                     l5164 13BA                       l5156 13AA                       l5148 139A  
                     l5092 128E                       l5084 3EE6                       l5076 3E9A  
                     l6140 1144                       l6132 1122                       l6124 10F4  
                     l6116 10BE                       l6060 0E86                       l6108 1064  
                     l6044 0DE4                       l6052 0E34                       l6036 0D38  
                     l6028 0C88                       l6300 19A6                       l2844 4A46  
                     l2852 491C                       l6206 367E                       l5430 26BE  
                     l5422 267A                       l5406 25FC                       l5414 262C  
                     l5350 2480                       l5342 2450                       l5334 242C  
                     l5326 23FA                       l5510 1CDC                       l5502 1C96  
                     l5270 16D0                       l5262 1676                       l5254 162A  
                     l5246 1608                       l5238 15DE                       l5190 147E  
                     l5182 1442                       l5174 140C                       l5166 13BE  
                     l5158 13AE                       l5094 129C                       l5086 3F1E  
                     l5078 3EAC                       l6150 11A6                       l6142 116A  
                     l6134 112A                       l6126 10FC                       l6118 10CE  
                     l6070 0F2C                       l6062 0EEA                       l6054 0E44  
                     l6046 0DE8                       l6038 0D46                       l6230 3E4A  
                     l6222 3DF6                       l6310 1A28                       l2846 4A2E  
                     ?_pad 008C                       l6240 3C64                       l6208 36B4  
                     l5600 404C                       l5440 2736                       l5432 26E8  
                     l5416 263A                       l5408 2602                       l5360 24C0  
                     l5352 2490                       l5344 245E                       l5328 240A  
                     l5336 2434                       l5520 1D1E                       l5512 1CE8  
                     l5504 1CAC                       l5280 1718                       l5272 16E0  
                     l5264 1684                       l5256 1640                       l5248 160A  
                     l5192 148E                       l5184 1450                       l5176 141C  
                     l5168 13C2                       l5096 129E                       l6160 11EC  
                     l6152 11C0                       l6144 1186                       l6136 1132  
                     l6128 110C                       l6080 0F6A                       l6064 0EF8  
                     l6072 0F34                       l6056 0E56                       l6048 0E1C  
                     l6232 3E74                       l6224 3E04                       l6216 3DC0  
                     l6312 1A66                       l6320 1ADE                       l6304 19D2  
                     l2944 4A3C                       l2848 48F8                       l6400 32BA  
                     l6250 3CBC                       l6242 3C66                       l5610 4072  
                     l5602 4050                       l5450 276C                       l5442 2752  
                     l5426 26A4                       l5434 26EC                       l5418 263E  
                     l5362 24D0                       l5370 24F0                       l5354 2492  
                     l5346 2460                       l5338 2444                       l5530 1D80  
                     l5522 1D2E                       l5514 1CF6                       l5506 1CB8  
                     l5282 171A                       l5274 1700                       l5266 16BE  
                     l5186 1452                       l5178 1432                       l5098 12AE  
                     l6170 1234                       l6162 11FC                       l6154 11C6  
                     l6146 118E                       l6138 113E                       l6090 0F96  
                     l6082 0F70                       l6074 0F48                       l6066 0F0C  
                     l6058 0E62                       l6226 3E1C                       l6218 3DEA  
                     l6322 1B02                       l6330 1B32                       l6314 1A9A  
                     l6306 1A00                       l6410 330E                       l6402 32C2  
                     l6252 3CD6                       l6244 3C6E                       l6236 3BFA  
                     l5620 40A8                       l5612 4084                       l5604 405E  
                     l5444 2756                       l5436 2706                       l5428 26B0  
                     l5380 252E                       l5372 2500                       l5364 24D8  
                     l5348 2470                       l5356 249A                       l5700 3880  
                     l5540 1E28                       l5532 1D9C                       l5524 1D48  
                     l5516 1D02                       l5508 1CD0                       l5460 1B94  
                     l5284 1720                       l5276 1704                       l5268 16C0  
                     l5196 14A2                       l5188 145C                       l5292 4756  
                     l6172 1240                       l6164 1202                       l6156 11D8  
                     l6148 1194                       l6084 0F7C                       l6076 0F56  
                     l6092 0F9C                       l6068 0F1E                       l6228 3E38  
                     l6332 1B40                       l6324 1B10                       l6260 1774  
                     l6500 2EA6                       l6420 3384                       l6412 334A  
                     l6404 32CE                       l6254 3CD8                       l6246 3C86  
                     l6238 3C62                       l6350 4A08                       l6190 35AC  
                     l5622 40BE                       l5614 408C                       l5630 40D4  
                     l5606 4066                       l5446 2764                       l5438 271C  
                     l5390 2576                       l5382 253E                       l5374 2500  
                     l5366 24DC                       l5358 24AA                       l5702 3892  
                     l5550 1E64                       l5542 1E32                       l5534 1DC6  
                     l5526 1D58                       l5518 1D12                       l5470 1BD4  
                     l5462 1BA2                       l5286 172E                       l5278 1712  
                     l5198 14B2                       l5294 4764                       l6174 1248  
                     l6158 11E4                       l6094 0FAE                       l6086 0F8C  
                     l6078 0F66                       l6326 1B24                       l6270 17C4  
                     l6262 1784                       l6510 2F56                       l6502 2EDA  
                     l6430 33CC                       l6422 3388                       l6414 3356  
                     l6406 3300                       l6248 3CA0                       l6344 49F4  
                     l6192 35C8                       l6184 3592                       l5632 40E4  
                     l5624 40C6                       l5616 4094                       l5608 406A  
                     l5640 40FA                       l5448 276A                       l5392 258A  
                     l5384 254E                       l5704 38A0                       l5560 1ED6  
                     l5552 1E72                       l5544 1E40                       l5536 1DFC  
                     l5528 1D74                       l5480 1C04                       l5472 1BDA  
                     l5464 1BA4                       l5712 481E                       l5288 1730  
                     l5720 36EC                       l5800 3AB0                       l5296 4776  
                     l6176 1258                       l6168 1208                       l6096 0FC0  
                     l6088 0F90                       l6280 1850                       l6272 17E8  
                     l6264 178A                       l6336 1B4E                       l6256 1742  
                     l6352 45A8                       l6360 46BC                       l6440 457E  
                     l6520 3004                       l6512 2F8A                       l6504 2EE4  
                     l6424 33AC                       l6416 3364                       l6408 3302  
                     l6346 49FE                       l6194 3602                       l6186 35A8  
                     l5634 40EC                       l5626 40C8                       l5618 40A2  
                     l5650 412A                       l5642 4108                       l5394 2598  
                     l5386 255E                       l5378 2514                       l5706 38F0  
                     l5570 1F40                       l5562 1EE4                       l5554 1EA0  
                     l5546 1E52                       l5538 1E0A                       l5490 1C3C  
                     l5482 1C06                       l5474 1BEA                       l5466 1BB4  
                     l5458 1B86                       l5714 4834                       l5730 3744  
                     l5722 3702                       l5298 477C                       l5810 461A  
                     l6178 125E                       l6098 0FC4                       l6338 1B72  
                     l6290 190A                       l6274 1822                       l6266 17AE  
                     l6282 1890                       l6258 1766                       l6354 45B0  
                     l6362 46CE                       l6442 4592                       l6450 2B66  
                     l6514 2FBE                       l6506 2F18                       l6426 33BC  
                     l6418 3382                       l6434 4436                       l6530 43A0  
                     l6348 4A06                       l6380 428A                       l6372 4256  
                     l6604 3630                       l6196 360A                       l5628 40CE  
                     l5660 4170                       l5652 413C                       l5644 4110  
                     l5396 25A4                       l5388 2566                       l5708 38F6  
                     l5580 1F96                       l5572 1F5A                       l5564 1F0E  
                     l5548 1E60                       l5492 1C5C                       l5484 1C16  
                     l5476 1BF0                       l5468 1BC4                       l5716 4844  
                     l5732 3754                       l5804 3AF4                       l5812 470E  
                     l5900 070C                       l6292 1940                       l6284 18B4  
                     l6276 1842                       l6268 17B6                       l6356 45BC  
                     l6364 46D6                       l6460 2C1E                       l6452 2B72  
                     l6444 2B12                       l6516 2FC4                       l6508 2F4C  
                     l6428 33CA                       l6436 447E                       l6540 43BC  
                     l6532 43A6                       l6524 4398                       l6382 4298  
                     l6374 4268                       l6198 3612                       l5670 419C  
                     l5662 4178                       l5654 4144                       l5646 4114  
                     l5638 40F6                       l5398 25C2                       l5574 1F76  
                     l5582 1F9C                       l5558 1ECA                       l5566 1F12  
                     l5494 1C6C                       l5486 1C26                       l5478 1BF6  
                     l5590 47B0                       l5742 377E                       l5734 3758  
                     l5726 3716                       l5830 30AA                       l5822 3010  
                     l5902 0714                       l6294 1952                       l6286 18C4  
                     l6358 45E4                       l6366 46DE                       l6438 4532  
                     l6470 2CDA                       l6462 2C52                       l6454 2BA6  
                     l6446 2B24                       l6518 2FD0                       l6390 323C  
                     l6550 43D4                       l6534 43A8                       l6526 439C  
                     l6384 42C0                       l6376 4272                       l5664 417E  
                     l5656 414C                       l5648 4122                       l5680 4214  
                     l5584 1FA0                       l5576 1F86                       l5568 1F2C  
                     l5488 1C36                       l5760 37E2                       l5752 37A6  
                     l5744 3788                       l5736 3766                       l5728 3742  
                     l5840 31C8                       l5824 3030                       l5808 460A  
                     l5816 470E                       l5920 07AA                       l5904 0718  
                     l6296 1968                       l6288 18FA                       l6368 46FA  
                     l6480 2D92                       l6472 2D0E                       l6464 2C62  
                     l6456 2BDA                       l6448 2B5A                       l6392 324A  
                     l6560 4402                       l6552 43D6                       l6536 43AA  
                     l6528 439E                       l6386 42C6                       l6378 4284  
                     l5850 4856                       l5594 4030                       l5658 415A  
                     l5666 4184                       l5682 4224                       l5674 41A6  
                     l5690 37F4                       l5578 1F94                       l5498 1C80  
                     l5754 37B2                       l5746 3792                       l5842 31DC  
                     l5834 311C                       l5826 3088                       l5770 3F9A  
                     l5818 473E                       l5922 07B4                       l5914 0748  
                     l5906 071C                       l6298 1976                       l6474 2D42  
                     l6466 2C96                       l6458 2BEA                       l6490 2DF4  
                     l6482 2DA0                       l6394 3290                       l6562 4408  
                     l6554 43E6                       l6546 43C0                       l6538 43AC  
                     l6570 496C                       l5860 46B0                       l5596 4036  
                     l5668 4194                       l5684 4248                       l5676 41D6  
                     l5692 3824                       l5588 479E                       l5756 37C2  
                     l5844 3204                       l5836 3158                       l5828 309C  
                     l5780 4000                       l5772 3FA6                       l5764 3F68  
                     l5932 0804                       l5916 0776                       l5908 0722  
                     l6476 2D52                       l6468 2CCA                       l6492 2E00  
                     l6484 2DB2                       l6396 32A6                       l6388 322A  
                     l6564 441E                       l6556 43EC                       l6548 43C6  
                     l6580 4980                       l6572 4970                       l5862 46B4  
                     l5854 4668                       l5598 4044                       l5686 424E  
                     l5678 41E6                       l5694 3834                       l5758 37D2  
                     l5790 3A5E                       l5846 3214                       l5838 318C  
                     l5782 4014                       l5774 3FBA                       l5766 3F76  
                     l5950 08BC                       l5934 0832                       l5918 0792  
                     l5926 07DE                       l6478 2D86                       l6494 2E34  
                     l6486 2DB8                       l6566 4426                       l6558 43F4  
                     l6574 4974                       l5856 466E                       l5696 3862  
                     l5792 3A86                       l5776 3FCE                       l5768 3F8A  
                     l5960 098E                       l5952 08F0                       l5936 084E  
                     l5944 086A                       l5880 0672                       l6496 2E68  
                     l6488 2DEE                       l6576 4978                       l6568 495C  
                     l5874 49CE                       l5866 49B4                       l5858 4682  
                     l5698 3872                       l5794 3A92                       l5786 39FE  
                     l5778 3FD4                       l5970 09FA                       l5954 08F6  
                     l5962 09C2                       l5946 0884                       l5890 06C6  
                     l5882 0682                       l6498 2E72                       l6578 497C  
                     l5868 49C8                       l5788 3A1E                       l5972 0A02  
                     l5964 09D2                       l5956 0952                       l5892 06CE  
                     l5884 0690                       l5798 3A9E                       l5990 0AB2  
                     l5982 0A46                       l5974 0A1C                       l5966 09D6  
                     l5958 0986                       l5894 06E0                       l5886 0698  
                     l5878 0668                       l5984 0A58                       l5992 0AB6  
                     l5968 09E8                       l5976 0A34                       l5896 06EE  
                     l5888 06BC                       l5994 0ABE                       l5986 0A74  
                     l5898 0700                       l5996 0AD0                       l5988 0AAA  
                     l5998 0AE2                       STR_1 0643                       STR_2 0633  
                     STR_3 0623                       STR_4 0601                       STR_5 0613  
                     STR_7 0653                       STR_8 065B                       u7000 25E6  
                     u7001 25E2                       u7010 25FC                       u2850 4916  
                     u7011 25F8                       u2851 4912                       u7100 2736  
                     u7020 261A                       u7101 2732                       u7021 2616  
                     u7110 2764                       u7030 263A                       u7111 2760  
                     u7031 2636                       u7040 264C                       u7200 1DE6  
                     u7120 1BA2                       u8000 09FA                       u7041 2648  
                     u7121 1B9E                       u8001 09F6                       u7050 267A  
                     u7210 1E40                       u7130 1BB4                       u8010 0A1C  
                     u7051 2676                       u7211 1E3C                       u7131 1BB0  
                     u8011 0A18                       u7060 2690                       u7300 1F94  
                     u7220 1E60                       u7140 1BC4                       u6500 1316  
                     u6420 3EAC                       u8100 0B14                       u8020 0A42  
                     u7061 268C                       u7301 1F90                       u7221 1E5C  
                     u7205 1DDC                       u7141 1BC0                       u6501 1312  
                     u6421 3EA8                       u8101 0B10                       u8021 0A3E  
                     u7310 4044                       u7070 26A4                       u7230 1E72  
                     u7150 1C04                       u6510 1328                       u6430 3EBE  
                     u8110 0B3E                       u8030 0A58                       u7311 4040  
                     u7071 26A0                       u7231 1E6E                       u7151 1C00  
                     u6511 1324                       u6431 3EBA                       u8111 0B3A  
                     u8031 0A54                       u7320 405E                       u7400 415A  
                     u7080 26BE                       u7240 1EA0                       u7160 1C16  
                     u6600 1470                       u6520 1338                       u6440 3EE6  
                     u8200 0F0C                       u8120 0C88                       u8040 0A74  
                     u7321 405A                       u7401 4156                       u7081 26BA  
                     u7241 1E9C                       u7161 1C12                       u6601 146C  
                     u6521 1334                       u6441 3EE2                       u8201 0F08  
                     u8121 0C84                       u8041 0A70                       u7330 4084  
                     u7410 4170                       u7090 2706                       u7250 1EB6  
                     u7170 1C26                       u6610 147E                       u6530 1374  
                     u6450 3F1E                       u8210 0F1E                       u8130 0CF0  
                     u8050 0AAA                       u7331 4080                       u7411 416C  
                     u7091 2702                       u7251 1EB2                       u7171 1C22  
                     u6611 147A                       u6531 1370                       u6451 3F1A  
                     u8211 0F1A                       u8131 0CEC                       u8051 0AA6  
                     i2l60 493A                       u7340 40A2                       u7420 4194  
                     u7500 38F0                       u7260 1ECA                       u7180 1C5C  
                     u6700 15DC                       u6620 148E                       u6540 1382  
                     u6460 129C                       u8300 10F4                       u8220 0F2C  
                     u8140 0D38                       u8060 0AD0                       u7341 409E  
                     u7421 4190                       u7501 38EC                       u7261 1EC6  
                     u7181 1C58                       u6701 15D8                       u6621 148A  
                     u6541 137E                       u6461 1298                       u8301 10F0  
                     u8221 0F28                       u8141 0D34                       u8061 0ACC  
                     i2l62 4948                       u7350 40BE                       u7430 41D6  
                     u7270 1EE4                       u7190 1C6C                       u7510 4834  
                     u6710 15EC                       u6630 14C0                       u6550 13F0  
                     u6470 12AE                       u8310 1122                       u8230 0F48  
                     u8150 0D46                       u8070 0AE2                       i2l63 495A  
                     u7351 40BA                       u7431 41D2                       u7271 1EE0  
                     u7191 1C68                       u7511 4830                       u6711 15E8  
                     u6631 14BC                       u6551 13EC                       u6471 12AA  
                     u8311 111E                       u8231 0F44                       u8151 0D42  
                     u8071 0ADE                       u9007 4420                       u7360 40E4  
                     u7440 4214                       u7280 1F2C                       u6800 16D0  
                     u6720 1608                       u6640 14CE                       u6560 1408  
                     u6480 12BE                       u7520 3702                       u7600 3F9A  
                     u8320 11A6                       u8240 0F56                       u8160 0DE4  
                     u8080 0AF0                       u8400 3DEA                       u7361 40E0  
                     u7441 4210                       u7281 1F28                       u6801 16CC  
                     u6721 1604                       u6641 14CA                       u6561 1402  
                     u6481 12BA                       u7521 36FE                       u7601 3F96  
                     u8321 11A2                       u8241 0F52                       u8161 0DE0  
                     u8081 0AEC                       u8401 3DE6                       u9017 442E  
                     i2l66 4530                       u7370 4108                       u7450 4248  
                     u7290 1F5A                       u6810 16E0                       u6730 1618  
                     u6650 14EC                       u6570 140A                       u6490 1300  
                     u7530 3738                       u7610 3FF2                       u8330 11C0  
                     u8250 0FAE                       u8170 0E30                       u8090 0B06  
                     u8410 3E1C                       u7371 4104                       u7451 4244  
                     u7291 1F56                       u6811 16DC                       u6731 1614  
                     u6651 14E8                       u6491 12FC                       u7611 3FEE  
                     u8331 11BC                       u8251 0FAA                       u8171 0E2C  
                     u8091 0B02                       u8411 3E18                       u9027 48FE  
                     u7380 4122                       u6900 240A                       u7460 3824  
                     u6820 1700                       u6740 162A                       u6660 1524  
                     u6580 1432                       u7540 3766                       u7620 4000  
                     u7700 4654                       u8340 11D8                       u8260 1082  
                     u8180 0E56                       u8420 3E38                       u8500 190A  
                     u9037 4A00                       u7381 411E                       u6901 2406  
                     u7461 3820                       u6821 16FC                       u6741 1626  
                     u6661 1520                       u6581 142E                       u7541 3762  
                     u7621 3FFC                       u8341 11D4                       u8261 107E  
                     u8181 0E52                       u8421 3E34                       u8501 1906  
                     u7390 413C                       u6910 241A                       u7470 3862  
                     u6830 1712                       u6750 1640                       u6670 156A  
                     u6590 1450                       u7550 377A                       u7630 3A40  
                     u7710 4666                       u8350 1234                       u8270 109E  
                     u8190 0EF8                       u8430 3E4A                       u8510 1952  
                     u9047 3C68                       u7391 4138                       u6911 2416  
                     u7471 385E                       u6831 170E                       u6751 163C  
                     u6671 1566                       u6591 144C                       u7551 3776  
                     u7535 372C                       u7711 4662                       u8351 1230  
                     u8271 109A                       u8191 0EF4                       u8431 3E46  
                     u8511 194E                       u8600 42E6                       u8360 35C8  
                     u6920 245E                       u7480 3880                       u6840 172E  
                     u6760 1656                       u6680 15A0                       u7560 37A2  
                     u7640 3A5E                       u7800 31AC                       u7720 473E  
                     u8280 10B0                       u8440 3E74                       u8520 1A00  
                     u8361 35C4                       u6921 245A                       u7481 387C  
                     u6841 172A                       u6761 1652                       u6681 159C  
                     u7561 379E                       u7641 3A5A                       u7721 473A  
                     u8281 10AC                       u8441 3E70                       u8521 19FC  
                     u8610 42F6                       u8370 35FE                       u6930 2470  
                     u7490 38A0                       u6770 166A                       u6690 15B0  
                     u7570 37C2                       u7650 3A86                       u7810 31C8  
                     u7730 305A                       u6850 479C                       u8290 10BE  
                     u8530 1A66                       u8450 1766                       u8611 42F2  
                     u8371 35FA                       u6931 246C                       u7491 389C  
                     u6771 1666                       u6691 15AC                       u7571 37BE  
                     u7651 3A82                       u7635 3A34                       u7811 31C4  
                     u6851 4798                       u7707 464A                       u8291 10BA  
                     u8531 1A62                       u8451 1762                       u8380 36B4  
                     u6940 2480                       u6780 1684                       u7580 37D2  
                     u7660 3AB0                       u7820 3204                       u7740 3088  
                     u6860 48B6                       u7900 06EE                       u8540 1B02  
                     u8460 17AE                       u8700 33BC                       u8620 323C  
                     u8381 36B0                       u6941 247C                       u6781 1680  
                     u7581 37CE                       u7661 3AAC                       u7821 3200  
                     u7805 31A2                       u7741 3084                       u6861 48B2  
                     u7901 06EA                       u8541 1AFE                       u8461 17AA  
                     u8701 33B8                       u8621 3238                       u7830 4886  
                     u8390 36C6                       u6950 24C0                       u6790 16BE  
                     u7750 30AA                       u7590 3F76                       u6870 4816  
                     u7910 0700                       u8470 17E8                       u8710 33CA  
                     u8630 324A                       u8607 42DC                       u7831 4880  
                     u8391 36C2                       u6951 24BC                       u6791 16BA  
                     u7751 30A6                       u7735 3050                       u7591 3F72  
                     u6871 4810                       u7911 06FC                       u8471 17E4  
                     u8711 33C6                       u8631 3246                       u7840 4888  
                     u6960 2500                       u7680 3AEA                       u6880 4818  
                     u7920 0748                       u8480 1890                       u8560 4600  
                     u8800 2D0E                       u8720 2B24                       u8640 32A6  
                     u6961 24FC                       u7681 3AE4                       u7921 0744  
                     u8481 188C                       u8561 45FC                       u8801 2D0A  
                     u8721 2B20                       u8641 32A2                       u8570 4268  
                     u7850 4682                       u6970 2576                       u6890 23F8  
                     u7690 3AEC                       u7770 3118                       u7930 0776  
                     u8490 18C4                       u8810 2D42                       u8730 2B5A  
                     u8650 32FC                       u8555 49FC                       u8571 4264  
                     u7851 467E                       u6971 2572                       u6891 23F4  
                     u7675 3AC2                       u7771 3114                       u7931 0772  
                     u8491 18C0                       u8811 2D3E                       u8731 2B56  
                     u8651 32F8                       u8556 49FE                       u8580 4284  
                     u7860 46B0                       u6980 2598                       u7780 313C  
                     u7940 0804                       u8820 2D86                       u8740 2BA6  
                     u8900 2F4C                       u8660 3346                       u8581 4280  
                     u7861 46AC                       u6981 2594                       u7765 30BE  
                     u7941 0800                       u8821 2D82                       u8741 2BA2  
                     u8901 2F48                       u8661 3342                       u7870 49C8  
                     u8590 42B8                       u6990 25C2                       u7790 3158  
                     u7766 30C8                       u7950 0832                       u8750 2BDA  
                     u8910 2F8A                       u8830 2DB2                       u8670 3364  
                     u7871 49C4                       u6991 25BE                       u7791 3154  
                     u7767 30D8                       u7951 082E                       u8751 2BD6  
                     u8911 2F86                       u8831 2DAE                       u8671 3360  
                     u7960 08B8                       u7880 0690                       u8760 2C1E  
                     u8920 2FBE                       u8840 2DEE                       u8680 3374  
                     u7785 3132                       u7961 08B4                       u7881 068C  
                     u8761 2C1A                       u8921 2FBA                       u8841 2DEA  
                     u8681 3370                       u7970 094E                       u7890 06E0  
                     u8770 2C52                       u8930 3004                       u8850 2E34  
                     u8690 3382                       u7971 094A                       u7891 06DC  
                     u8771 2C4E                       u8931 3000                       u8851 2E30  
                     u8691 337E                       u7980 09C2                       u8780 2C96  
                     u8860 2E68                       u8940 43E6                       u8597 42AE  
                     u7981 09BE                       u8781 2C92                       u8861 2E64  
                     u8941 43E2                       u7990 09E8                       u8790 2CCA  
                     u8870 2EA6                       u7991 09E4                       u8791 2CC6  
                     u8871 2EA2                       u8880 2EDA                       u8881 2ED6  
                     u8890 2F18                       u8891 2F14                       u8957 43B2  
                     u8967 43CC                       u8977 43EE                       u8987 43FC  
                     u8997 440E               i2___flge@ff1 0001               i2___flge@ff2 0005  
                     _dbuf 0100                       _atoi 3592                       _main 495C  
                     _prec 00FD                       _nout 0044                       pad@i 0092  
                     pad@p 0090                       fsr1h 000FE2                       fsr2h 000FDA  
                     indf1 000FE7                       indf2 000FDF                       fsr1l 000FE1  
                     pad@w 0094                       fsr2l 000FD9                       btemp 004E  
            ___fpclassifyf 39FE                       prodh 000FF4                       prodl 000FF3  
                     start 000E            ___fldiv@new_exp 008D            _equation_SENSOR 4436  
             ___param_bank 000000                      ??_pad 0036              ?_control_HIGH 0001  
            ___fltol@sign1 0036                      ?_atoi 0081            __end_of___fladd 1742  
                    ?_main 0001            __end_of___fldiv 2778            __end_of___awdiv 40F6  
          __end_of___flneg 4856                      STR_11 0657                      STR_12 065F  
                    STR_15 0663                      STR_17 0663            __end_of___awmod 41A6  
          __end_of___flmul 1FB2            __end_of___flsub 47E6            __end_of___fltol 37F4  
              i2_lcd_write 42F8            ___awdiv@divisor 0034                      i2l110 3BD2  
                    i2l111 3BD4                      i2l151 4A2C                      i2l144 49F0  
                    i2l163 4396                      i2l148 3DBE                      i2l431 39B6  
                    i2l436 39FC                      i2l821 3434                      i2l750 2970  
                    i2l824 3590                      i2l761 2A2E                      i2l753 2934  
                    i2l762 2A1C                      i2l835 3528                      i2l748 2B10  
                    i2l780 2076                      i2l828 34CC                      i2l790 22D2  
                    i2l759 29B6                      i2l784 23DA                      i2l787 226C  
          ___awdiv@counter 0080                      i2l797 239C                      i2l789 22E4  
             vfpfcnvrt@fmt 00EF                      _PORTD 000F83                      _TRISB 000F93  
                    _TRISC 000F94                      _TRISD 000F95            __end_of_lcd_cmd 3CDC  
                    _flags 0048                      _fputc 3E9A                      _fputs 4756  
          __end_of_isdigit 488E              i2___fldiv@grs 0014              i2___fldiv@rem 000D  
                    atoi@n 0089                      pad@fp 008C                      atoi@s 0081  
                    _width 0046                      _putch 4A5A            __end_of_isspace 46BC  
          __end_of_set_bit 49D2            __end_of_isupper 481E           __end_ofi2___flge 39FE  
                    tablat 000FF5                      ttemp5 004F                      ttemp6 0052  
                    ttemp7 0056                      status 000FD8                      wtemp8 004F  
          __end_of_sprintf 470E             ?___fpclassifyf 0032            __end_of_tolower 4756  
            i2___flmul@grs 001C            __end_of_strncmp 3E9A          ??i2_lcd_send_byte 0006  
             lcd_write@end 0083               lcd_write@col 0080               lcd_write@lin 0084  
             lcd_write@str 0081            __initialization 48C4               __end_of_atoi 36EC  
             __end_of_main 498C            ??_lcd_send_byte 0037             ??_control_HIGH 0036  
               _Level_Loop 004A                     ??_atoi 0083                     ??_main 0038  
            __activetblptr 000002                ?i2___xxtofl 0001                     _ADCON0 000FC2  
                   _ADCON1 000FC1                     _ADCON2 000FC0                     ?_fputc 0032  
              ?i2_conv_AN0 0001                     ?_fputs 0085                     _ADRESH 000FC4  
                   _ADRESL 000FC3           ___awdiv@dividend 0032                     ?_putch 0001  
  __end_of_equation_SENSOR 44B6                     i2l5000 39FA                     i2l5010 3B36  
                   i2l5020 3B42                     i2l5012 3B3A                     i2l5004 3B20  
                   i2l5030 3B62                     i2l5022 3B44                     i2l5014 3B3C  
                   i2l5032 3B64                     i2l5024 3B46                     i2l5016 3B3E  
                   i2l5008 3B32                     i2l4410 3D48                     i2l5034 3B7C  
                   i2l5026 3B5E                     i2l5018 3B40                     i2l4420 3DA0  
                   i2l4412 3D4A                     i2l4500 4A12                     i2l5036 3B8E  
                   i2l5028 3B60                     i2l4510 2784                     i2l4422 3DBA  
                   i2l4414 3D52                     i2l4406 3CDE                     i2l4502 4A1C  
                   i2l5038 3BA0                     i2l4600 29B4                     i2l4520 27C4  
                   i2l4512 2792                     i2l4424 3DBC                     i2l4416 3D6A  
                   i2l4408 3D46                     i2l4504 4A24                     i2l4610 2A14  
                   i2l4602 29C6                     i2l4530 27EA                     i2l4522 27C6  
                   i2l4514 2794                     i2l4418 3D84                     i2l4506 4A26  
                   i2l4620 2A82                     i2l4604 29D4                     i2l4540 282A  
                   i2l4532 27F8                     i2l4516 27A4                     i2l4524 27CE  
                   i2l4508 2778                     i2l4700 2112                     i2l4380 49E8  
                   i2l4630 2AEC                     i2l4614 2A3E                     i2l4622 2A86  
                   i2l4606 29D8                     i2l4550 286A                     i2l4542 282C  
                   i2l4534 27FA                     i2l4526 27DE                     i2l4518 27B4  
                   i2l4710 2158                     i2l4702 2120                     i2l4632 2AF0  
                   i2l4624 2AA0                     i2l4616 2A4A                     i2l4608 29E6  
                   i2l4560 289A                     i2l4552 2872                     i2l4536 280A  
                   i2l4544 2834                     i2l4528 27E4                     i2l4720 21C6  
                   i2l4712 2172                     i2l4704 212C                     i2l4800 34FE  
                   i2l4634 2AFE                     i2l4626 2AB6                     i2l4618 2A58  
                   i2l4570 28D8                     i2l4562 289A                     i2l4554 2876  
                   i2l4546 2844                     i2l4538 281A                     i2l4730 225C  
                   i2l4722 21F0                     i2l4714 2182                     i2l4706 213C  
                   i2l4650 1FCC                     i2l4810 353C                     i2l4802 350A  
                   i2l4386 49EE                     i2l4378 49D4                     i2l4636 2B04  
                   i2l4628 2AD0                     i2l4580 2924                     i2l4572 28E8  
                   i2l4548 285A                     i2l4740 229C                     i2l4732 226A  
                   i2l4724 2226                     i2l4716 219E                     i2l4708 2148  
                   i2l4660 2004                     i2l4652 1FCE                     i2l4812 3560  
                   i2l4804 3518                     i2l4638 2B06                     i2l4590 296E  
                   i2l4582 2932                     i2l4574 28F8                     i2l4566 28AE  
                   i2l4558 288A                     i2l4750 230E                     i2l4742 22CA  
                   i2l4734 227C                     i2l4726 2234                     i2l4718 21AA  
                   i2l4670 2030                     i2l4662 2014                     i2l4654 1FDE  
                   i2l4646 1FB2                     i2l4814 3570                     i2l4806 3536  
                   i2l4592 2980                     i2l4584 293E                     i2l4576 2900  
                   i2l4568 28C8                     i2l4760 2384                     i2l4752 2338  
                   i2l4736 228A                     i2l4728 2252                     i2l4680 2086  
                   i2l4672 2040                     i2l4664 201A                     i2l4656 1FEE  
                   i2l4648 1FBE                     i2l4816 357E                     i2l4808 3538  
                   _INTCON 000FF2                     i2l4594 2996                     i2l4586 295C  
                   i2l4578 2910                     i2l4762 23A0                     i2l4770 23C6  
                   i2l4746 22F4                     i2l4754 233C                     i2l4738 228E  
                   i2l4690 20C0                     i2l4682 2096                     i2l4674 2050  
                   i2l4666 2020                     i2l4658 1FFE                     i2l4818 3580  
                   i2l4596 299C                     i2l4588 295E                     i2l4772 23CA  
                   i2l4764 23B0                     i2l4756 2356                     i2l4748 2300  
                   i2l4692 20D6                     i2l4676 2060                     i2l4668 202E  
                   i2l4780 33FE                     i2l4598 29A6                     i2l4766 23BE  
                   i2l4758 236A                     i2l4694 20E2                     i2l4686 20AA  
                   i2l4678 2066                     i2l4790 3476                     i2l4782 3444  
                   i2l4960 494E                     i2l4768 23C0                     i2l4696 20FA  
                   i2l4688 20B6                     i2l4792 3482                     i2l4784 345A  
                   i2l4776 33E0                     i2l4698 2106                     i2l4794 34B4  
                   i2l4778 33F0                     i2l4962 44B6                     i2l4970 4314  
                   i2l4956 492A                     i2l4796 34B6                     i2l4788 346E  
                   i2l4964 44FC                     i2l4980 4366                     i2l4972 4326  
                   i2l4990 3976                     i2l4982 38FA                     i2l4958 4938  
                   i2l4798 34C2                     i2l4974 432C                     i2l4966 42FA  
                   i2l4992 3984                     i2l4984 3928                     i2l4976 433A  
                   i2l4968 430A                     i2l4994 3996                     i2l4986 3938  
                   i2l4978 4362                     i2l4996 39A4                     i2l4988 3966  
                   i2l4998 39F4                     _OSCCON 000FD3                _BufferLevel 0150  
         __end_of___xxtofl 33DE           __end_of_conv_AN0 492A               vfprintf@cfmt 00F7  
         __end_of_lcd_init 4436                     ___flge 37F4                     ___fleq 41A6  
                ??___fladd 0032                     ___wmul 498C                  ??___fldiv 0032  
                ??___awdiv 0036                  ??___flneg 0036                  ??___awmod 0036  
                ??___flmul 0092                  ??___flsub 0036                  ??___fltol 0080  
                   _efgtoa 0668                     _floorf 3010                     clear_0 48CA  
                   clear_1 48E4           ___awdiv@quotient 0082             i2___fldiv@aexp 0019  
           i2___fldiv@bexp 0018            ___awmod@divisor 0034                     isa$std 000001  
           i2___fldiv@sign 0011            ___awmod@counter 0036                     pad@buf 008E  
                ??_lcd_cmd 0034                     _strcpy 460A                     _strlen 488E  
                   fputc@c 0032                     fputs@c 0089                     fputs@i 008A  
                   fputs@s 0085                  ??_isdigit 0034          __end_ofi2___fldiv 2B12  
        __end_ofi2___flmul 23DC            ___fpclassifyf@e 0084            ___fpclassifyf@u 0086  
          ___fpclassifyf@x 0032               __mediumconst 0000                  ??_isspace 0034  
                ??_set_bit 0033                     tblptrh 000FF7                  ??_isupper 0034  
                   tblptrl 000FF6                     tblptru 000FF8                     putch@c 0001  
         __end_of_vfprintf 460A                  ??_sprintf 0038                  ??_tolower 0082  
        __end_ofi2_lcd_cmd 3DC0             i2___flmul@aexp 0020             i2___flmul@bexp 0021  
                ??_strncmp 0080             i2___flmul@sign 001B             i2___flmul@temp 0026  
           i2___flmul@prod 0022                 ___flge@ff1 00A3                 ___flge@ff2 00A7  
          ??___fpclassifyf 0080               ___xxtofl@arg 0086               ___xxtofl@exp 0085  
             ___xxtofl@val 0032                 ___fleq@ff1 0080                 ___fleq@ff2 0084  
               __accesstop 0080    __end_of__initialization 48EA                 ___flneg@f1 0032  
         _config_HighLevel 0008          __end_ofi2_set_bit 49F2              ___rparam_used 000001  
               ___fltol@f1 0032          __end_of_Lcd_Print 45A8             __pcstackCOMRAM 0001  
            __end_of_fputc 3F68              __end_of_fputs 479E              __end_of_putch 4A5C  
                ?i2___flge 0001           _config_Interrupt 4A3C               i2lcd_cmd@cmd 0004  
                  ??_fputc 0080                    ??_fputs 0036                    ??_putch 0032  
     __end_of_control_HIGH 2DA0                 __pbssBANK0 00F9                 __pbssBANK1 0100  
         ?_equation_SENSOR 0001                _VdigADC_AN0 004C                    ?___flge 00A3  
           i2lcd_write@end 000A             i2lcd_write@col 0007                    ?___fleq 0080  
           i2lcd_write@lin 000B             i2lcd_write@str 0008                    ?___wmul 0032  
                  ?_efgtoa 00AF                    ?_floorf 0095                 ??i2___flge 0009  
             ?i2_lcd_write 0007                    ?_strcpy 0032                    ?_strlen 0032  
                  _INTCON2 000FF1                 _config_ADC 4A2E                  ?___xxtofl 0032  
       lcd_send_byte@level 0037            i2_lcd_send_byte 4A10                    _OSCTUNE 000F9B  
                ?_conv_AN0 0001                  ?_lcd_init 0001        i2lcd_send_byte@data 0005  
                  __Hparam 0000                    __Lparam 0000          __end_of_config_IO 4A50  
                  ___fladd 1280                    ___fldiv 23DC                    ___awdiv 4030  
                  ___flneg 481E                    ___awmod 40F6                    ___flmul 1B86  
                  ___flsub 479E                    ___fltol 36EC          __end_of_lcd_write 42F8  
                ?_vfprintf 0198                set_bit@comp 0032               __psmallconst 0600  
                  __pcinit 48C4                    __ramtop 0600                    __ptext0 495C  
                  __ptext1 4398                    __ptext2 4436                    __ptext3 3226  
                  __ptext4 48F8                    __ptext5 2DA0                    __ptext6 2B12  
                  __ptext7 4A3C                    __ptext8 4A46                    __ptext9 4A50  
                  _lcd_cmd 3BF8                    _isdigit 4856               ??i2___xxtofl 0005  
               ??___xxtofl 0080           ___awmod@dividend 0032                    _isspace 4668  
                  _set_bit 49B2                    _isupper 47E6                    efgtoa@c 00B5  
                  efgtoa@d 00CD                    efgtoa@e 00E5                    efgtoa@f 00B1  
                  efgtoa@g 00E1                    efgtoa@h 00D7                    efgtoa@i 00DF  
                  efgtoa@l 00DB                    efgtoa@m 00C7                    efgtoa@n 00E7  
                  efgtoa@p 00D1                    efgtoa@t 00C1                    efgtoa@u 00E9  
                  efgtoa@w 00D3                    atoi@neg 0087               ??i2_conv_AN0 0001  
               ??_conv_AN0 0032                    _sprintf 46BC                    _tolower 470E  
               ??_lcd_init 0036                    _strncmp 3DC0             __pintcode_body 3AFE  
     end_of_initialization 48EA                    floorf@e 00A3                    floorf@m 009F  
                  floorf@u 00A5                    floorf@x 0095                    fputc@fp 0034  
            __Lmediumconst 0000                    int_func 3AFE                    fputs@fp 0087  
           i2___xxtofl@arg 000B             i2___xxtofl@exp 000A             i2___xxtofl@val 0001  
        __end_of_vfpfcnvrt 1B86                 efgtoa@mode 00D6                 efgtoa@sign 00CF  
       __end_ofi2___xxtofl 3592                    postdec2 000FDD                    postinc0 000FEE  
                  postinc1 000FE6                    postinc2 000FDE                 ??_vfprintf 0038  
    __end_of_lcd_send_byte 4A10                    strcpy@d 0082                    strlen@a 0034  
                  strcpy@s 0080                    strlen@s 0032         __end_ofi2_conv_AN0 495C  
  __end_ofi2_lcd_send_byte 4A2E                  _PORTCbits 000F82                  _PORTDbits 000F83  
                _PORTEbits 000F84   __end_of_config_HighLevel 3BF8                ___fladd@grs 008B  
              ?_config_ADC 0001              ___xxtofl@sign 0084                  _TRISEbits 000F96  
               lcd_cmd@cmd 0035                ___fldiv@grs 008F                ___fldiv@rem 0088  
                i2___fldiv 2778               i2set_bit@cmd 0002                  i2___flmul 1FB2  
              ___flmul@grs 0098                _Voltage_AN0 0040                  i2_lcd_cmd 3CDC  
            ??_config_FOSC 0032   __end_of_config_Interrupt 4A46                  i2_set_bit 49D2  
                _Lcd_Print 4532             __end_of___flge 38FA             __end_of___fleq 4252  
             _control_HIGH 2B12                vfpfcnvrt@ap 00F1                vfpfcnvrt@ct 0194  
              vfpfcnvrt@fp 00ED             __end_of___wmul 49B2             __end_of_efgtoa 1280  
           __end_of_floorf 3226                 floorf@F526 0038             __end_of_strcpy 4668  
           __end_of_strlen 48C4        start_initialization 48C4                  _Level_AN0 00F9  
              __end_of_pad 4030              ??_control_LOW 0036                 ?i2___fldiv 0001  
               ?i2___flmul 000F      __end_of___fpclassifyf 3AFE                 ?i2_lcd_cmd 0001  
               ?i2_set_bit 0001                vfprintf@fmt 019A                   ??___flge 00AB  
                 ??___fleq 0032        __end_of_config_FOSC 4A5A                   ??___wmul 0036  
               ?_Lcd_Print 0001                   ??_efgtoa 00B6                   ??_floorf 0099  
         ?i2_lcd_send_byte 0005                   ??_strcpy 0036                   ??_strlen 0034  
                ___fladd@a 0084                  ___fladd@b 0080                  ___fldiv@a 0084  
                ___fldiv@b 0080                  ___flmul@a 008E                  ___flmul@b 008A  
              __pbssCOMRAM 0038                  ___flsub@a 00A7                  ___flsub@b 00A3  
            __pcstackBANK0 0080              __pcstackBANK1 0190        __end_of_control_LOW 3010  
              _efgtoa$1125 00BD                _efgtoa$1117 00BB                _efgtoa$1126 00BF  
                __pintcode 0008                   ?___fladd 0080                   ?___fldiv 0080  
                 ?___awdiv 0032                   ?___flneg 0032                   ?___awmod 0032  
                 ?___flmul 008A                   ?___flsub 00A3                   ?___fltol 0032  
                _config_IO 4A46          lcd_send_byte@data 0036                   ?_lcd_cmd 0001  
                _lcd_write 4252                __smallconst 0600                   ?_isdigit 0032  
                 ?_isspace 0032                   ?_set_bit 0032                   ?_isupper 0032  
               set_bit@cmd 0033                ??i2___fldiv 0009                   ?_sprintf 019E  
                 ?_tolower 0080                ??i2___flmul 0017                   ?_strncmp 0032  
              ??i2_lcd_cmd 0003             ___wmul@product 0036                _config_FOSC 4A50  
                 i2u600_40 34FA                   i2u600_41 34F6                   i2u601_40 3518  
                 i2u601_41 3514                   i2u602_40 3528                   i2u602_41 3524  
                 i2u603_40 3536                   i2u603_41 3532                ??i2_set_bit 0002  
                 i2u604_40 3570                   i2u604_41 356C                   i2u605_40 357E  
                 i2u605_41 357A                   i2u630_40 430A                   i2u630_41 4306  
                 i2u535_40 49E8                   i2u631_40 4326                   i2u535_41 49E4  
                 i2u631_41 4322                   i2u560_40 285A                   i2u632_40 435A  
                 i2u640_40 3B2E                   i2u560_41 2856                   i2u640_41 3B2A  
                 i2u632_47 4350                   i2u561_40 289A                   i2u633_40 4386  
                 i2u641_40 3BD2                   i2u561_41 2896                   i2u641_41 3BCE  
                 i2u553_45 4A1A                   i2u553_46 4A1C                   i2u633_47 437C  
                 i2u570_40 2A14                   i2u562_40 2910                   i2u554_40 2792  
                 i2u634_40 4396                   i2u570_41 2A10                   i2u562_41 290C  
                 i2u554_41 278E                   i2u634_41 4392                   i2u635_40 3928  
                 i2u571_40 2A2A                   i2u563_40 2932                   i2u555_40 27A4  
                 i2u635_41 3924                   i2u571_41 2A26                   i2u563_41 292E  
                 i2u555_41 27A0                   i2u636_40 3966                   i2u572_40 2A3E  
                 i2u564_40 295C                   i2u556_40 27B4                   i2u580_40 202E  
                 i2u636_41 3962                   i2u572_41 2A3A                   i2u564_41 2958  
                 i2u556_41 27B0                   i2u580_41 202A                   i2u637_40 3984  
                 i2u629_40 4948                   i2u573_40 2A58                   i2u565_40 2980  
                 i2u557_40 27F8                   i2u581_40 2040                   i2u637_41 3980  
                 i2u629_41 4944                   i2u573_41 2A54                   i2u565_41 297C  
                 i2u557_41 27F4                   i2u581_41 203C                   i2u638_40 39A4  
                 i2u574_40 2AA0                   i2u566_40 2996                   i2u558_40 280A  
                 i2u590_40 22E0                   i2u582_40 2050                   i2u638_41 39A0  
                 i2u574_41 2A9C                   i2u566_41 2992                   i2u558_41 2806  
                 i2u590_41 22DC                   i2u582_41 204C                   i2u639_40 39F4  
                 i2u575_40 2AD0                   i2u567_40 29B4                   i2u559_40 281A  
                 i2u591_40 22F4                   i2u583_40 2086                   i2u639_41 39F0  
                 i2u575_41 2ACC                   i2u567_41 29B0                   i2u559_41 2816  
                 i2u591_41 22F0                   i2u583_41 2082                   i2u576_40 2AFE  
                 i2u568_40 29D4                   i2u592_40 230E                   i2u584_40 2096  
                 i2u576_41 2AFA                   i2u568_41 29D0                   i2u592_41 230A  
                 i2u584_41 2092                   i2u569_40 29E6                   i2u593_40 2356  
                 i2u585_40 2210                   i2u577_40 1FCC                   i2u569_41 29E2  
                 i2u593_41 2352                   i2u577_41 1FC8                   i2u585_45 2206  
                 i2u905_47 3B50                   i2u594_40 2384                   i2u586_40 226A  
                 i2u578_40 1FDE                   i2u594_41 2380                   i2u586_41 2266  
                 i2u578_41 1FDA                   i2u906_47 3B6E                   i2u595_40 23BE  
                 i2u587_40 228A                   i2u579_40 1FEE                   i2u595_41 23BA  
                 i2u587_41 2286                   i2u579_41 1FEA                   i2u907_47 4A1E  
                 i2u588_40 229C                   i2u596_40 33F0                   i2u588_41 2298  
                 i2u596_41 33EC                   i2u908_47 3D4C                   i2u589_40 22CA  
                 i2u597_40 33FE                   i2u589_41 22C6                   i2u597_41 33FA  
                 i2u909_47 4930                   i2u598_40 345A                   i2u598_41 3456  
                 i2u599_40 34B0                   i2u599_41 34AC          i2___fldiv@new_exp 0012  
        i2_equation_SENSOR 44B6                ??_Lcd_Print 0038         ?i2_equation_SENSOR 0001  
                _vfpfcnvrt 1742                 ?_config_IO 0001                 _ADCON0bits 000FC2  
                 i2___flge 38FA                 ?_lcd_write 0080          ___wmul@multiplier 0032  
                lcd_init@i 0037          ?_config_HighLevel 0001               ??_config_ADC 0032  
            _BufferVoltage 0170        ??i2_equation_SENSOR 0028         ??_config_HighLevel 0028  
     i2lcd_send_byte@level 0006               _isspace$1204 0080                 vfpfcnvrt@c 0197  
               vfpfcnvrt@f 0190                _control_LOW 2DA0  __end_ofi2_equation_SENSOR 4532  
                 __Hrparam 0000          ?_config_Interrupt 0001                 vfprintf@ap 019C  
                 __Lrparam 0000                 vfprintf@fp 0198         __end_of_config_ADC 4A3C  
       ??_config_Interrupt 0032                 ?_vfpfcnvrt 00ED          ??_equation_SENSOR 0036  
       ___fpclassifyf@F465 003C                 sprintf@fmt 01A0                   ___xxtofl 3226  
                 __ptext10 4A2E                   __ptext11 4532                   __ptext20 3F68  
                 __ptext12 46BC                   __ptext21 488E                   __ptext13 45A8  
                 __ptext30 481E                   __ptext22 4756                   __ptext14 1742  
                 __ptext31 1B86                   __ptext23 3E9A                   __ptext15 3DC0  
                 __ptext40 498C                   __ptext32 37F4                   __ptext24 4A5A  
                 __ptext16 0668                   __ptext41 4252                   __ptext33 41A6  
                 __ptext25 3010                   __ptext17 470E                   __ptext50 44B6  
                 __ptext42 49F2                   __ptext34 23DC                   __ptext26 39FE  
                 __ptext18 47E6                   __ptext51 33DE                   __ptext43 3BF8  
                 __ptext35 40F6                   __ptext27 36EC                   __ptext19 460A  
                 __ptext52 1FB2                   __ptext44 49B2                   __ptext36 4030  
                 __ptext28 479E                   __ptext53 2778                   __ptext37 3592  
                 __ptext29 1280                   __ptext54 492A                   __ptext46 42F8  
                 __ptext38 4668                   __ptext55 38FA                   __ptext47 4A10  
                 __ptext39 4856                   __ptext48 3CDC                   __ptext49 49D2  
                 _conv_AN0 48F8                   _lcd_init 4398                 strcpy@dest 0032  
                 efgtoa@fp 00AF                   efgtoa@ne 00C5                   efgtoa@pp 00C3  
                 efgtoa@ou 00C9                   isa$xinst 000000                   int$flags 004E  
                 _vfprintf 45A8                ??_config_IO 0032              ??i2_lcd_write 000A  
              ??_lcd_write 0038                 _INTCONbits 000FF2                   isdigit@c 0032  
                 intlevel2 0000                  sprintf@ap 01A6            i2___xxtofl@sign 0009  
                 isspace@c 0032                  strcpy@src 0034                   isupper@c 0032  
                strncmp@_l 0032                  strncmp@_r 0034                efgtoa@nmode 00D5  
              ??_vfpfcnvrt 00F3              _lcd_send_byte 49F2                   sprintf@f 01A8  
                 tolower@c 0080                   sprintf@s 019E                   strncmp@l 0081  
                 strncmp@n 0036                   strncmp@r 0083        __end_ofi2_lcd_write 4398  
            ___fladd@signs 0088               ___fladd@aexp 0089               ___fladd@bexp 008A  
             ?_config_FOSC 0001  
